(dp0
S'643'
p1
(lp2
Vspeak
p3
asS'344'
p4
(lp5
Vby
p6
asS'345'
p7
(lp8
V.
p9
asS'346'
p10
(lp11
Vworth
p12
asS'347'
p13
(lp14
Vif
p15
asS'340'
p16
(lp17
Vwas
p18
asS'341'
p19
(lp20
Vwas
p21
asS'342'
p22
(lp23
Vinexpertly
p24
asS'343'
p25
(lp26
Vrestaurant
p27
asS'348'
p28
(lp29
g9
asS'349'
p30
(lp31
g9
asS'2919'
p32
(lp33
Vprevious
p34
asS'2318'
p35
(lp36
Vthe
p37
asS'2316'
p38
(lp39
Vnice
p40
asS'2317'
p41
(lp42
Vout
p43
asS'2314'
p44
(lp45
Vwas
p46
asS'2315'
p47
(lp48
g9
asS'2312'
p49
(lp50
Vpizza
p51
asS'2311'
p52
(lp53
Vblock
p54
asS'2184'
p55
(lp56
Vmartini
p57
asS'298'
p58
(lp59
Vtimes
p60
asS'299'
p61
(lp62
Vis
p63
asS'296'
p64
(lp65
Vleft
p66
asS'297'
p67
(lp68
Vconclusion
p69
asS'294'
p70
(lp71
Vout
p72
asS'295'
p73
(lp74
Vhappened
p75
asS'292'
p76
(lp77
Vlingered
p78
asS'293'
p79
(lp80
g9
asS'291'
p81
(lp82
Vsoon
p83
asS'587'
p84
(lp85
g9
asS'270'
p86
(lp87
Vfriendly
p88
asS'271'
p89
(lp90
Vas
p91
asS'272'
p92
(lp93
Vwine
p94
asS'273'
p95
(lp96
Vhelpful
p97
asS'274'
p98
(lp99
Vrestaurants
p100
asS'275'
p101
(lp102
Vout
p103
asS'276'
p104
(lp105
Vthe
p106
asS'277'
p107
(lp108
Vthe
p109
asS'278'
p110
(lp111
Vor
p112
asS'279'
p113
(lp114
Vthe
p115
asS'58'
p116
(lp117
Vcool
p118
asS'2268'
p119
(lp120
Vtop
p121
asS'2269'
p122
(lp123
Vknow
p124
asS'2262'
p125
(lp126
Vroll
p127
asS'2263'
p128
(lp129
Vdied
p130
asS'2260'
p131
(lp132
V?
p133
asS'2261'
p134
(lp135
Vlisted
p136
asS'2267'
p137
(lp138
Vnice
p139
asS'2442'
p140
(lp141
Vonto
p142
asS'2443'
p143
(lp144
Vfriendly
p145
asS'2440'
p146
(lp147
Vexcellent
p148
asS'2441'
p149
(lp150
Vpeep
p151
asS'2446'
p152
(lp153
Vbest
p154
asS'2447'
p155
(lp156
g9
asS'2444'
p157
(lp158
VThe
p159
asS'2445'
p160
(lp161
Vdrinks
p162
asS'2448'
p163
(lp164
VThai
p165
asS'2449'
p166
(lp167
Vhe
p168
asS'2189'
p169
(lp170
Vreally
p171
asS'109'
p172
(lp173
Vthe
p174
asS'102'
p175
(lp176
Vgo
p177
asS'103'
p178
(lp179
Vabsolute
p180
asS'101'
p181
(lp182
Vfrequent
p183
asS'3597'
p184
(lp185
Vout
p186
asS'2042'
p187
(lp188
g9
asS'2040'
p189
(lp190
Vthe
p191
asS'2041'
p192
(lp193
Vbest
p194
asS'1297'
p195
(lp196
Vfriendly
p197
asS'2839'
p198
(lp199
Vthe
p200
asS'2838'
p201
(lp202
Vchosing
p203
asS'3159'
p204
(lp205
Vtoo
p206
asS'3519'
p207
(lp208
Vthe
p209
asS'3518'
p210
(lp211
Vor
p212
asS'3513'
p213
(lp214
Vthis
p215
asS'3512'
p216
(lp217
Vrestaurants
p218
asS'3511'
p219
(lp220
Vcame
p221
asS'3510'
p222
(lp223
Vat
p224
asS'3517'
p225
(lp226
g9
asS'3516'
p227
(lp228
g9
asS'3515'
p229
(lp230
Vstaff
p231
asS'3514'
p232
(lp233
VNever
p234
asS'2688'
p235
(lp236
Vor
p237
asS'2689'
p238
(lp239
VRecommendations
p240
asS'2686'
p241
(lp242
Vor
p243
asS'2687'
p244
(lp245
Vor
p246
asS'2681'
p247
(lp248
VThe
p249
asS'3391'
p250
(lp251
g9
asS'1434'
p252
(lp253
VIf
p254
asS'98'
p255
(lp256
Vitalian
p257
asS'3392'
p258
(lp259
Vthai
p260
asS'91'
p261
(lp262
Vheartily
p263
asS'90'
p264
(lp265
Vquantity
p266
asS'93'
p267
(lp268
Vthe
p269
asS'92'
p270
(lp271
Vplace
p272
asS'95'
p273
(lp274
VItalian
p275
asS'94'
p276
(lp277
Vfriendly
p278
asS'97'
p279
(lp280
Vnice
p281
asS'96'
p282
(lp283
Vrunned
p284
asS'3207'
p285
(lp286
Vmeal
p287
asS'3206'
p288
(lp289
Vout
p290
asS'1621'
p291
(lp292
Vclass
p293
asS'3204'
p294
(lp295
Vnice
p296
asS'1627'
p297
(lp298
Vor
p299
asS'1994'
p300
(lp301
Vby
p302
asS'1625'
p303
(lp304
Vwaiters
p305
asS'1624'
p306
(lp307
Vmore
p308
asS'1998'
p309
(lp310
Vdefinetely
p311
asS'1431'
p312
(lp313
Vthink
p314
asS'3209'
p315
(lp316
Vthis
p317
asS'3208'
p318
(lp319
g9
asS'2860'
p320
(lp321
VMy
p322
asS'2861'
p323
(lp324
Vmore
p325
asS'2862'
p326
(lp327
Vcharged
p328
asS'2863'
p329
(lp330
Vsave
p331
asS'2864'
p332
(lp333
Vstumbled
p334
asS'558'
p335
(lp336
Vare
p337
asS'555'
p338
(lp339
Vyou
p340
asS'554'
p341
(lp342
VYork
p343
asS'557'
p344
(lp345
Vtreated
p346
asS'556'
p347
(lp348
Vwine
p349
asS'551'
p350
(lp351
Vwait
p352
asS'550'
p353
(lp354
Vwine
p355
asS'553'
p356
(lp357
Vsat
p358
asS'552'
p359
(lp360
Vwine
p361
asS'1199'
p362
(lp363
Vsauces
p364
asS'1198'
p365
(lp366
Vout
p367
asS'1191'
p368
(lp369
Vwaitress
p370
asS'3343'
p371
(lp372
Vnow
p373
asS'3340'
p374
(lp375
Vour
p376
asS'3341'
p377
(lp378
Vstaff
p379
asS'1195'
p380
(lp381
Vis
p382
asS'1194'
p383
(lp384
Vtimes
p385
asS'1197'
p386
(lp387
Vwhere
p388
asS'1196'
p389
(lp390
Vmean
p391
asS'1759'
p392
(lp393
Vwith
p394
asS'1756'
p395
(lp396
g9
asS'1755'
p397
(lp398
Vpizza
p399
asS'1750'
p400
(lp401
Vblock
p402
asS'1177'
p403
(lp404
VSO
p405
asS'1176'
p406
(lp407
Vthe
p408
asS'1175'
p409
(lp410
Vkick
p411
asS'1174'
p412
(lp413
Vthe
p414
asS'1173'
p415
(lp416
Vcan
p417
asS'1171'
p418
(lp419
Vquantity
p420
asS'1170'
p421
(lp422
Vtimes
p423
asS'1179'
p424
(lp425
Vhad
p426
asS'1178'
p427
(lp428
Vcheap
p429
asS'511'
p430
(lp431
Vravioli
p432
asS'510'
p433
(lp434
VRatio
p435
asS'1005'
p436
(lp437
VManhattan
p438
asS'644'
p439
(lp440
Vstaff
p441
asS'1285'
p442
(lp443
Vthe
p444
asS'1287'
p445
(lp446
Vmy
p447
asS'1286'
p448
(lp449
Vthe
p450
asS'1281'
p451
(lp452
Vworth
p453
asS'1280'
p454
(lp455
Vfast
p456
asS'1283'
p457
(lp458
g9
asS'1282'
p459
(lp460
Vever
p461
asS'879'
p462
(lp463
VBon
p464
asS'1289'
p465
(lp466
Vpizza
p467
asS'1288'
p468
(lp469
Vpizza
p470
asS'514'
p471
(lp472
Vhe
p473
asS'1579'
p474
(lp475
g9
asS'1578'
p476
(lp477
Vwas
p478
asS'689'
p479
(lp480
VSaul
p481
asS'688'
p482
(lp483
Vif
p484
asS'877'
p485
(lp486
Vthe
p487
asS'685'
p488
(lp489
VSaul
p490
asS'1572'
p491
(lp492
Vonce
p493
asS'1571'
p494
(lp495
Vnot
p496
asS'686'
p497
(lp498
g9
asS'1577'
p499
(lp500
VDisney
p501
asS'680'
p502
(lp503
Vmore
p504
asS'1575'
p505
(lp506
VOur
p507
asS'1574'
p508
(lp509
Vplace
p510
asS'1227'
p511
(lp512
Vmake
p513
asS'875'
p514
(lp515
VPM
p516
asS'2818'
p517
(lp518
Vat
p519
asS'622'
p520
(lp521
Vmy
p522
asS'872'
p523
(lp524
Vleft
p525
asS'873'
p526
(lp527
VPM
p528
asS'3436'
p529
(lp530
Vthe
p531
asS'1295'
p532
(lp533
VThe
p534
asS'871'
p535
(lp536
VIf
p537
asS'2037'
p538
(lp539
Vjustify
p540
asS'2740'
p541
(lp542
g9
asS'1243'
p543
(lp544
Vmore
p545
asS'2743'
p546
(lp547
Vout
p548
asS'1371'
p549
(lp550
Vtasted
p551
asS'1370'
p552
(lp553
Vmad
p554
asS'1373'
p555
(lp556
Vthe
p557
asS'404'
p558
(lp559
Vfirst
p560
asS'1375'
p561
(lp562
g9
asS'1374'
p563
(lp564
Vtwice
p565
asS'1377'
p566
(lp567
Vperfect
p568
asS'400'
p569
(lp570
VIf
p571
asS'1379'
p572
(lp573
g9
asS'1378'
p574
(lp575
Vwith
p576
asS'409'
p577
(lp578
Vworth
p579
asS'408'
p580
(lp581
Vthe
p582
asS'453'
p583
(lp584
V10
p585
asS'1344'
p586
(lp587
Vmore
p588
asS'2192'
p589
(lp590
Vthe
p591
asS'2746'
p592
(lp593
Vis
p594
asS'1245'
p595
(lp596
g133
asS'379'
p597
(lp598
g9
asS'378'
p599
(lp600
Vsauce
p601
asS'370'
p602
(lp603
Vkalbi
p604
asS'375'
p605
(lp606
Vyou
p607
asS'377'
p608
(lp609
V8
p610
asS'391'
p611
(lp612
Vthe
p613
asS'390'
p614
(lp615
Vnext
p616
asS'397'
p617
(lp618
Vspecial
p619
asS'396'
p620
(lp621
Vrestaurants
p622
asS'395'
p623
(lp624
VThe
p625
asS'394'
p626
(lp627
Vetc.
p628
asS'2309'
p629
(lp630
Vif
p631
asS'2308'
p632
(lp633
g9
asS'2301'
p634
(lp635
g9
asS'2300'
p636
(lp637
Vwait
p638
asS'2303'
p639
(lp640
Vconveniently
p641
asS'2302'
p642
(lp643
Vwine
p644
asS'2305'
p645
(lp646
Vmore
p647
asS'2304'
p648
(lp649
VThey
p650
asS'2307'
p651
(lp652
Vsize
p653
asS'2306'
p654
(lp655
g9
asS'898'
p656
(lp657
Vor
p658
asS'3253'
p659
(lp660
Vwhere
p661
asS'247'
p662
(lp663
Vrestaurant
p664
asS'246'
p665
(lp666
Vsalt
p667
asS'241'
p668
(lp669
Vrestaurants
p670
asS'240'
p671
(lp672
VYork
p673
asS'249'
p674
(lp675
Vthe
p676
asS'248'
p677
(lp678
Vbalance
p679
asS'2275'
p680
(lp681
Vof
p682
asS'2274'
p683
(lp684
Vsoft
p685
asS'2277'
p686
(lp687
Vdifferent
p688
asS'2276'
p689
(lp690
Vmy
p691
asS'2271'
p692
(lp693
VIf
p694
asS'2273'
p695
(lp696
VRolls
p697
asS'2272'
p698
(lp699
Vnames
p700
asS'2279'
p701
(lp702
Vthe
p703
asS'2278'
p704
(lp705
Vmore
p706
asS'2459'
p707
(lp708
Vreasons
p709
asS'2458'
p710
(lp711
Vthe
p712
asS'2455'
p713
(lp714
Vmake
p715
asS'2454'
p716
(lp717
Vpeep
p718
asS'2457'
p719
(lp720
Vstaff
p721
asS'2456'
p722
(lp723
Vfirst
p724
asS'2451'
p725
(lp726
g9
asS'2450'
p727
(lp728
Vwas
p729
asS'2453'
p730
(lp731
Vhusband
p732
asS'2452'
p733
(lp734
Vthe
p735
asS'179'
p736
(lp737
Vfriendly
p738
asS'178'
p739
(lp740
Vwaitress
p741
asS'177'
p742
(lp743
Vhad
p744
asS'176'
p745
(lp746
g9
asS'175'
p747
(lp748
Vside
p749
asS'174'
p750
(lp751
Vorder
p752
asS'173'
p753
(lp754
Vside
p755
asS'3698'
p756
(lp757
Vthose
p758
asS'3699'
p759
(lp760
Vcame
p761
asS'2053'
p762
(lp763
Vworth
p764
asS'2052'
p765
(lp766
VDeff
p767
asS'2054'
p768
(lp769
VFirst
p770
asS'2057'
p771
(lp772
Vhappy
p773
asS'2059'
p774
(lp775
Vthe
p776
asS'2058'
p777
(lp778
g9
asS'3692'
p779
(lp780
Vorder
p781
asS'3693'
p782
(lp783
Votherwise
p784
asS'3694'
p785
(lp786
Vout
p787
asS'3695'
p788
(lp789
Vsandwiches
p790
asS'3696'
p791
(lp792
Vwhere
p793
asS'3697'
p794
(lp795
Varound
p796
asS'1501'
p797
(lp798
Vif
p799
asS'3089'
p800
(lp801
Vadorn
p802
asS'653'
p803
(lp804
VIf
p805
asS'3526'
p806
(lp807
g9
asS'3527'
p808
(lp809
Vdescription
p810
asS'3524'
p811
(lp812
g9
asS'3525'
p813
(lp814
Vstaff
p815
asS'3520'
p816
(lp817
g9
asS'3521'
p818
(lp819
Vloves
p820
asS'1508'
p821
(lp822
Vas
p823
asS'1509'
p824
(lp825
Vmy
p826
asS'1977'
p827
(lp828
Vmean
p829
asS'658'
p830
(lp831
g9
asS'2699'
p832
(lp833
Vcome
p834
asS'1976'
p835
(lp836
VFinally
p837
asS'2697'
p838
(lp839
Vflavor
p840
asS'2696'
p841
(lp842
Vthe
p843
asS'2695'
p844
(lp845
Vboyfriend
p846
asS'2694'
p847
(lp848
VPo
p849
asS'2693'
p850
(lp851
Vstart
p852
asS'1603'
p853
(lp854
Vthose
p855
asS'2691'
p856
(lp857
Vmeal
p858
asS'2690'
p859
(lp860
Vor
p861
asS'2405'
p862
(lp863
Vprices
p864
asS'3226'
p865
(lp866
Vare
p867
asS'1973'
p868
(lp869
Vexpect
p870
asS'3220'
p871
(lp872
Vthe
p873
asS'3223'
p874
(lp875
Vis
p876
asS'1606'
p877
(lp878
Vare
p879
asS'1362'
p880
(lp881
VReally
p882
asS'3232'
p883
(lp884
VManhattan
p885
asS'3233'
p886
(lp887
Vboyfriend
p888
asS'3230'
p889
(lp890
Vwine
p891
asS'3236'
p892
(lp893
Vrestaurant
p894
asS'3237'
p895
(lp896
Vthe
p897
asS'3234'
p898
(lp899
VRibbon
p900
asS'1619'
p901
(lp902
Vleft
p903
asS'1616'
p904
(lp905
Vas
p906
asS'1617'
p907
(lp908
VVolare
p909
asS'3238'
p910
(lp911
VSaturday
p912
asS'3239'
p913
(lp914
Vthe
p915
asS'1960'
p916
(lp917
Vgave
p918
asS'1961'
p919
(lp920
Vcould
p921
asS'1610'
p922
(lp923
g9
asS'1611'
p924
(lp925
Vwas
p926
asS'2063'
p927
(lp928
Veat
p929
asS'1363'
p930
(lp931
Vasian-air
p932
asS'2872'
p933
(lp934
Vthe
p935
asS'2871'
p936
(lp937
VVillage
p938
asS'2877'
p939
(lp940
g9
asS'2876'
p941
(lp942
g9
asS'2875'
p943
(lp944
Vwine
p945
asS'2879'
p946
(lp947
Vthe
p948
asS'2878'
p949
(lp950
Vthe
p951
asS'3355'
p952
(lp953
Vcake
p954
asS'3354'
p955
(lp956
V,
p957
asS'3353'
p958
(lp959
Vcomes
p960
asS'3352'
p961
(lp962
Vpizza
p963
asS'3359'
p964
(lp965
Vpizza
p966
asS'3358'
p967
(lp968
Vdid
p969
asS'1768'
p970
(lp971
g9
asS'1769'
p972
(lp973
g9
asS'1760'
p974
(lp975
Vor
p976
asS'1766'
p977
(lp978
g9
asS'1767'
p979
(lp980
Vis
p981
asS'1765'
p982
(lp983
g9
asS'1140'
p984
(lp985
Vmy
p986
asS'1146'
p987
(lp988
g9
asS'1147'
p989
(lp990
Vor
p991
asS'1144'
p992
(lp993
Vmore
p994
asS'1145'
p995
(lp996
Vbest
p997
asS'1148'
p998
(lp999
Vrestaurants
p1000
asS'1149'
p1001
(lp1002
Vreal
p1003
asS'768'
p1004
(lp1005
VIf
p1006
asS'2966'
p1007
(lp1008
Vbefore
p1009
asS'2402'
p1010
(lp1011
Vorder
p1012
asS'692'
p1013
(lp1014
VSaul
p1015
asS'1547'
p1016
(lp1017
Vshows
p1018
asS'690'
p1019
(lp1020
Vmore
p1021
asS'691'
p1022
(lp1023
Vthe
p1024
asS'1542'
p1025
(lp1026
Vthe
p1027
asS'1543'
p1028
(lp1029
g9
asS'694'
p1030
(lp1031
Vspecial
p1032
asS'1541'
p1033
(lp1034
Vstale
p1035
asS'698'
p1036
(lp1037
Vduck
p1038
asS'699'
p1039
(lp1040
Vwine
p1041
asS'1548'
p1042
(lp1043
Vavoid
p1044
asS'1549'
p1045
(lp1046
VDOLLARS
p1047
asS'542'
p1048
(lp1049
Vfriend
p1050
asS'762'
p1051
(lp1052
Vwith
p1053
asS'540'
p1054
(lp1055
VThe
p1056
asS'541'
p1057
(lp1058
Vto
p1059
asS'547'
p1060
(lp1061
Vtimes
p1062
asS'544'
p1063
(lp1064
Vbest
p1065
asS'763'
p1066
(lp1067
g957
asS'548'
p1068
(lp1069
Veat
p1070
asS'549'
p1071
(lp1072
Vwent
p1073
asS'1782'
p1074
(lp1075
VTaxan
p1076
asS'761'
p1077
(lp1078
Vrip-off
p1079
asS'1784'
p1080
(lp1081
Vreally
p1082
asS'1785'
p1083
(lp1084
Vthe
p1085
asS'1786'
p1086
(lp1087
Vbest
p1088
asS'1787'
p1089
(lp1090
Vwas
p1091
asS'414'
p1092
(lp1093
g9
asS'415'
p1094
(lp1095
Vwaited
p1096
asS'416'
p1097
(lp1098
Vcalled
p1099
asS'417'
p1100
(lp1101
Vout
p1102
asS'410'
p1103
(lp1104
Vrecent
p1105
asS'411'
p1106
(lp1107
Vif
p1108
asS'412'
p1109
(lp1110
Vthe
p1111
asS'413'
p1112
(lp1113
Vrecommended
p1114
asS'1384'
p1115
(lp1116
Vrestaurant
p1117
asS'1385'
p1118
(lp1119
VQueens
p1120
asS'1386'
p1121
(lp1122
VThai
p1123
asS'1387'
p1124
(lp1125
Vthe
p1126
asS'1380'
p1127
(lp1128
Vout
p1129
asS'1381'
p1130
(lp1131
Vthe
p1132
asS'1382'
p1133
(lp1134
Vordinary
p1135
asS'1383'
p1136
(lp1137
Vorder
p1138
asS'2769'
p1139
(lp1140
V!
p1141
asS'3583'
p1142
(lp1143
Vfinishing
p1144
asS'368'
p1145
(lp1146
Vwine
p1147
asS'369'
p1148
(lp1149
Vleft
p1150
asS'366'
p1151
(lp1152
Vhe
p1153
asS'367'
p1154
(lp1155
Vwas
p1156
asS'364'
p1157
(lp1158
Vat
p1159
asS'365'
p1160
(lp1161
Vglasses
p1162
asS'362'
p1163
(lp1164
VItalian
p1165
asS'363'
p1166
(lp1167
Vwine
p1168
asS'1945'
p1169
(lp1170
VIf
p1171
asS'380'
p1172
(lp1173
g9
asS'381'
p1174
(lp1175
VThai
p1176
asS'382'
p1177
(lp1178
Vsauce
p1179
asS'385'
p1180
(lp1181
Vreally
p1182
asS'386'
p1183
(lp1184
Vwas
p1185
asS'387'
p1186
(lp1187
Vwas
p1188
asS'388'
p1189
(lp1190
Vhas
p1191
asS'3215'
p1192
(lp1193
VHaru
p1194
asS'2065'
p1195
(lp1196
Vgo
p1197
asS'2190'
p1198
(lp1199
VDownstairs
p1200
asS'2191'
p1201
(lp1202
Vthe
p1203
asS'258'
p1204
(lp1205
Vrestaurants
p1206
asS'259'
p1207
(lp1208
Vfirst
p1209
asS'2194'
p1210
(lp1211
Vseem
p1212
asS'2195'
p1213
(lp1214
VThe
p1215
asS'2196'
p1216
(lp1217
Vgroove
p1218
asS'2197'
p1219
(lp1220
Vout
p1221
asS'2198'
p1222
(lp1223
g9
asS'2199'
p1224
(lp1225
Vbest
p1226
asS'250'
p1227
(lp1228
Vor
p1229
asS'256'
p1230
(lp1231
Vtoo
p1232
asS'257'
p1233
(lp1234
Vout
p1235
asS'254'
p1236
(lp1237
Vwas
p1238
asS'255'
p1239
(lp1240
Vreally
p1241
asS'2200'
p1242
(lp1243
VThe
p1244
asS'2201'
p1245
(lp1246
Vwine
p1247
asS'2202'
p1248
(lp1249
Vmore
p1250
asS'2203'
p1251
(lp1252
Vto
p1253
asS'2204'
p1254
(lp1255
Vthe
p1256
asS'2205'
p1257
(lp1258
Vusually
p1259
asS'2206'
p1260
(lp1261
Vother
p1262
asS'2207'
p1263
(lp1264
Vleft
p1265
asS'2208'
p1266
(lp1267
Vyou
p1268
asS'2209'
p1269
(lp1270
Vreally
p1271
asS'2428'
p1272
(lp1273
Vthe
p1274
asS'2429'
p1275
(lp1276
Vmore
p1277
asS'2400'
p1278
(lp1279
Vfried
p1280
asS'2420'
p1281
(lp1282
VPM
p1283
asS'2421'
p1284
(lp1285
VRoll
p1286
asS'2422'
p1287
(lp1288
Vside
p1289
asS'2423'
p1290
(lp1291
Vfirst
p1292
asS'2424'
p1293
(lp1294
Vtrue
p1295
asS'2425'
p1296
(lp1297
Vrolls
p1298
asS'2426'
p1299
(lp1300
Vthe
p1301
asS'2427'
p1302
(lp1303
Vmy
p1304
asS'2432'
p1305
(lp1306
VThe
p1307
asS'168'
p1308
(lp1309
g9
asS'169'
p1310
(lp1311
V've
p1312
asS'164'
p1313
(lp1314
Vbelt
p1315
asS'165'
p1316
(lp1317
Vspecial
p1318
asS'166'
p1319
(lp1320
VYet
p1321
asS'167'
p1322
(lp1323
Vout
p1324
asS'160'
p1325
(lp1326
Vhaving
p1327
asS'161'
p1328
(lp1329
Vfriend
p1330
asS'162'
p1331
(lp1332
Vdrinks
p1333
asS'163'
p1334
(lp1335
Vwaitress
p1336
asS'3689'
p1337
(lp1338
g9
asS'3688'
p1339
(lp1340
Vthe
p1341
asS'3683'
p1342
(lp1343
Vthe
p1344
asS'3682'
p1345
(lp1346
Vfreindly
p1347
asS'3681'
p1348
(lp1349
Vits
p1350
asS'3680'
p1351
(lp1352
Vthe
p1353
asS'3687'
p1354
(lp1355
Vbefore
p1356
asS'3686'
p1357
(lp1358
Vat
p1359
asS'3685'
p1360
(lp1361
Vworth
p1362
asS'3684'
p1363
(lp1364
Vlike
p1365
asS'2796'
p1366
(lp1367
g9
asS'2514'
p1368
(lp1369
Vthe
p1370
asS'2515'
p1371
(lp1372
VYork
p1373
asS'2516'
p1374
(lp1375
Vthe
p1376
asS'2517'
p1377
(lp1378
Vthe
p1379
asS'2511'
p1380
(lp1381
Vwas
p1382
asS'2512'
p1383
(lp1384
Vmusic
p1385
asS'2513'
p1386
(lp1387
Vwine
p1388
asS'2734'
p1389
(lp1390
Vturns
p1391
asS'2735'
p1392
(lp1393
VUES
p1394
asS'2736'
p1395
(lp1396
Vby
p1397
asS'2737'
p1398
(lp1399
Vcomes
p1400
asS'2730'
p1401
(lp1402
Vrestaurants
p1403
asS'2733'
p1404
(lp1405
V!!
p1406
asS'2738'
p1407
(lp1408
VItalian
p1409
asS'2739'
p1410
(lp1411
VGnocchi
p1412
asS'3531'
p1413
(lp1414
Vlook
p1415
asS'3530'
p1416
(lp1417
Vthe
p1418
asS'3533'
p1419
(lp1420
g9
asS'3532'
p1421
(lp1422
Vdisappointment
p1423
asS'3535'
p1424
(lp1425
Vcool
p1426
asS'3534'
p1427
(lp1428
Vchefs
p1429
asS'3537'
p1430
(lp1431
Vthe
p1432
asS'3536'
p1433
(lp1434
Vspecial
p1435
asS'3539'
p1436
(lp1437
Vrestaurants
p1438
asS'3538'
p1439
(lp1440
Vreading
p1441
asS'1814'
p1442
(lp1443
g9
asS'1815'
p1444
(lp1445
Vpony
p1446
asS'1816'
p1447
(lp1448
g9
asS'1817'
p1449
(lp1450
g9
asS'1811'
p1451
(lp1452
Vknow
p1453
asS'1818'
p1454
(lp1455
Vfriendly
p1456
asS'1819'
p1457
(lp1458
Vstylish
p1459
asS'671'
p1460
(lp1461
Vthin
p1462
asS'1609'
p1463
(lp1464
g9
asS'1608'
p1465
(lp1466
Vpizza
p1467
asS'3229'
p1468
(lp1469
Vbest
p1470
asS'3228'
p1471
(lp1472
VIf
p1473
asS'1979'
p1474
(lp1475
Vpiece
p1476
asS'3225'
p1477
(lp1478
Vparticularly
p1479
asS'1600'
p1480
(lp1481
Vmakes
p1482
asS'1975'
p1483
(lp1484
Vroad
p1485
asS'1602'
p1486
(lp1487
Vtoo
p1488
asS'3221'
p1489
(lp1490
Vbest
p1491
asS'1972'
p1492
(lp1493
Vout
p1494
asS'1971'
p1495
(lp1496
Vsides
p1497
asS'3222'
p1498
(lp1499
Vmean
p1500
asS'809'
p1501
(lp1502
Vor
p1503
asS'808'
p1504
(lp1505
Vif
p1506
asS'803'
p1507
(lp1508
VItalian
p1509
asS'802'
p1510
(lp1511
Vthe
p1512
asS'801'
p1513
(lp1514
Vthan
p1515
asS'800'
p1516
(lp1517
VScopa
p1518
asS'1532'
p1519
(lp1520
Vmy
p1521
asS'804'
p1522
(lp1523
Vcame
p1524
asS'2848'
p1525
(lp1526
Vat
p1527
asS'2849'
p1528
(lp1529
VWOW
p1530
asS'2846'
p1531
(lp1532
Vwas
p1533
asS'2847'
p1534
(lp1535
Vmy
p1536
asS'2844'
p1537
(lp1538
Vmy
p1539
asS'2845'
p1540
(lp1541
Vrestaurants
p1542
asS'2842'
p1543
(lp1544
Vbest
p1545
asS'2843'
p1546
(lp1547
Vwhole
p1548
asS'2840'
p1549
(lp1550
g957
asS'2841'
p1551
(lp1552
Vthink
p1553
asS'3320'
p1554
(lp1555
Vnice
p1556
asS'3321'
p1557
(lp1558
Vincompetent
p1559
asS'3322'
p1560
(lp1561
Vpersonality
p1562
asS'3323'
p1563
(lp1564
Vhe
p1565
asS'3324'
p1566
(lp1567
VSoho
p1568
asS'3325'
p1569
(lp1570
Vlousy
p1571
asS'3326'
p1572
(lp1573
Vother
p1574
asS'3327'
p1575
(lp1576
VThe
p1577
asS'3328'
p1578
(lp1579
Vslurry
p1580
asS'1777'
p1581
(lp1582
Vcome
p1583
asS'1771'
p1584
(lp1585
Vyrs
p1586
asS'1770'
p1587
(lp1588
Vhusband
p1589
asS'1779'
p1590
(lp1591
Vstaff
p1592
asS'1778'
p1593
(lp1594
Vspecial
p1595
asS'1990'
p1596
(lp1597
Vout
p1598
asS'2998'
p1599
(lp1600
Vif
p1601
asS'1159'
p1602
(lp1603
VNY
p1604
asS'1158'
p1605
(lp1606
Vif
p1607
asS'1550'
p1608
(lp1609
Vturnover
p1610
asS'1155'
p1611
(lp1612
Vsally
p1613
asS'1154'
p1614
(lp1615
g9
asS'1157'
p1616
(lp1617
Vdeegan
p1618
asS'1156'
p1619
(lp1620
Vhottest
p1621
asS'1151'
p1622
(lp1623
VGhetto
p1624
asS'1150'
p1625
(lp1626
VDominican
p1627
asS'1153'
p1628
(lp1629
Vgo
p1630
asS'1152'
p1631
(lp1632
VIf
p1633
asS'59'
p1634
(lp1635
Vmy
p1636
asS'1554'
p1637
(lp1638
Vcans
p1639
asS'1551'
p1640
(lp1641
Vfirst
p1642
asS'2999'
p1643
(lp1644
g9
asS'1553'
p1645
(lp1646
Vthe
p1647
asS'1552'
p1648
(lp1649
Vdefinitely
p1650
asS'1555'
p1651
(lp1652
g9
asS'3039'
p1653
(lp1654
Vtasts
p1655
asS'1557'
p1656
(lp1657
Vor
p1658
asS'1556'
p1659
(lp1660
g133
asS'3034'
p1661
(lp1662
Vor
p1663
asS'1558'
p1664
(lp1665
V2-3
p1666
asS'2992'
p1667
(lp1668
Vfirst
p1669
asS'56'
p1670
(lp1671
Vgreat
p1672
asS'51'
p1673
(lp1674
Vthe
p1675
asS'2995'
p1676
(lp1677
Vreally
p1678
asS'53'
p1679
(lp1680
Vusual
p1681
asS'3033'
p1682
(lp1683
Vflavor
p1684
asS'537'
p1685
(lp1686
g9
asS'55'
p1687
(lp1688
g957
asS'533'
p1689
(lp1690
Vthe
p1691
asS'532'
p1692
(lp1693
V10
p1694
asS'531'
p1695
(lp1696
g9
asS'530'
p1697
(lp1698
Vtimes
p1699
asS'1940'
p1700
(lp1701
Vthe
p1702
asS'57'
p1703
(lp1704
Vtypical
p1705
asS'539'
p1706
(lp1707
g9
asS'538'
p1708
(lp1709
Vfirst
p1710
asS'2993'
p1711
(lp1712
Vnice
p1713
asS'2994'
p1714
(lp1715
Vstaff
p1716
asS'1906'
p1717
(lp1718
Vleft
p1719
asS'3295'
p1720
(lp1721
Vmust
p1722
asS'52'
p1723
(lp1724
Vto
p1725
asS'3296'
p1726
(lp1727
Vnoisy
p1728
asS'1905'
p1729
(lp1730
Vbefore
p1731
asS'536'
p1732
(lp1733
Vthe
p1734
asS'1902'
p1735
(lp1736
Vhusband
p1737
asS'3291'
p1738
(lp1739
g9
asS'429'
p1740
(lp1741
Vthan
p1742
asS'428'
p1743
(lp1744
Vbest
p1745
asS'1900'
p1746
(lp1747
VSaturday
p1748
asS'1399'
p1749
(lp1750
Vthe
p1751
asS'1398'
p1752
(lp1753
Vmakes
p1754
asS'423'
p1755
(lp1756
Vthe
p1757
asS'1394'
p1758
(lp1759
Vmore
p1760
asS'1393'
p1761
(lp1762
Vreally
p1763
asS'1392'
p1764
(lp1765
Vis
p1766
asS'427'
p1767
(lp1768
Vever
p1769
asS'426'
p1770
(lp1771
Vnow
p1772
asS'854'
p1773
(lp1774
Vloud
p1775
asS'3453'
p1776
(lp1777
VSaturday
p1778
asS'3074'
p1779
(lp1780
Vout
p1781
asS'3450'
p1782
(lp1783
Vrestaurant
p1784
asS'857'
p1785
(lp1786
Vor
p1787
asS'850'
p1788
(lp1789
Vthe
p1790
asS'1423'
p1791
(lp1792
Vchongqing
p1793
asS'1970'
p1794
(lp1795
Vsteak
p1796
asS'1424'
p1797
(lp1798
Vmy
p1799
asS'2331'
p1800
(lp1801
Vmore
p1802
asS'3475'
p1803
(lp1804
VIt
p1805
asS'2183'
p1806
(lp1807
Vboyfriend
p1808
asS'2187'
p1809
(lp1810
Vwine
p1811
asS'2186'
p1812
(lp1813
Vby
p1814
asS'229'
p1815
(lp1816
Vyou
p1817
asS'228'
p1818
(lp1819
Vchampagne
p1820
asS'227'
p1821
(lp1822
Vmommy
p1823
asS'226'
p1824
(lp1825
Vlady
p1826
asS'225'
p1827
(lp1828
Vthe
p1829
asS'224'
p1830
(lp1831
Vthe
p1832
asS'223'
p1833
(lp1834
g9
asS'222'
p1835
(lp1836
Vwent
p1837
asS'221'
p1838
(lp1839
VMy
p1840
asS'220'
p1841
(lp1842
Vrecommend
p1843
asS'2213'
p1844
(lp1845
g9
asS'2212'
p1846
(lp1847
VIf
p1848
asS'2211'
p1849
(lp1850
Vwas
p1851
asS'2210'
p1852
(lp1853
Vmy
p1854
asS'2217'
p1855
(lp1856
Vif
p1857
asS'2216'
p1858
(lp1859
Vminutes
p1860
asS'2215'
p1861
(lp1862
Vreally
p1863
asS'2214'
p1864
(lp1865
Vout
p1866
asS'2219'
p1867
(lp1868
Vblock
p1869
asS'2218'
p1870
(lp1871
Vat
p1872
asS'1160'
p1873
(lp1874
Vout
p1875
asS'151'
p1876
(lp1877
Vif
p1878
asS'150'
p1879
(lp1880
Vif
p1881
asS'2439'
p1882
(lp1883
Vpoints
p1884
asS'152'
p1885
(lp1886
g9
asS'154'
p1887
(lp1888
Vhappy
p1889
asS'2433'
p1890
(lp1891
Vat
p1892
asS'158'
p1893
(lp1894
Vorder
p1895
asS'2431'
p1896
(lp1897
Vfreshness
p1898
asS'2437'
p1899
(lp1900
VAmazing
p1901
asS'2436'
p1902
(lp1903
Vonions
p1904
asS'2435'
p1905
(lp1906
Vreally
p1907
asS'2434'
p1908
(lp1909
Vrolls
p1910
asS'2508'
p1911
(lp1912
VSat
p1913
asS'2507'
p1914
(lp1915
Vauthentic
p1916
asS'2506'
p1917
(lp1918
g9
asS'2503'
p1919
(lp1920
Vthe
p1921
asS'2502'
p1922
(lp1923
Vloud
p1924
asS'2501'
p1925
(lp1926
Vfriendly
p1927
asS'2500'
p1928
(lp1929
Vtried
p1930
asS'2727'
p1931
(lp1932
Vside
p1933
asS'2726'
p1934
(lp1935
g9
asS'2723'
p1936
(lp1937
Vfeeling
p1938
asS'2722'
p1939
(lp1940
Vat
p1941
asS'2721'
p1942
(lp1943
Vbest
p1944
asS'1712'
p1945
(lp1946
Vhappened
p1947
asS'125'
p1948
(lp1949
Veat
p1950
asS'1805'
p1951
(lp1952
Veaten
p1953
asS'1804'
p1954
(lp1955
g9
asS'1803'
p1956
(lp1957
Vn't
p1958
asS'1800'
p1959
(lp1960
Vasked
p1961
asS'1808'
p1962
(lp1963
g957
asS'3088'
p1964
(lp1965
Vyou
p1966
asS'3258'
p1967
(lp1968
Vrestaurants
p1969
asS'3259'
p1970
(lp1971
Vyour
p1972
asS'1948'
p1973
(lp1974
Vfollowing
p1975
asS'1949'
p1976
(lp1977
VIf
p1978
asS'1942'
p1979
(lp1980
Vhim
p1981
asS'3251'
p1982
(lp1983
Vif
p1984
asS'3252'
p1985
(lp1986
g9
asS'1941'
p1987
(lp1988
Vasked
p1989
asS'3254'
p1990
(lp1991
Vwas
p1992
asS'3255'
p1993
(lp1994
Vthe
p1995
asS'3256'
p1996
(lp1997
Vrestaurants
p1998
asS'3257'
p1999
(lp2000
Vnice
p2001
asS'818'
p2002
(lp2003
VThe
p2004
asS'810'
p2005
(lp2006
Vspend
p2007
asS'811'
p2008
(lp2009
Vfirst
p2010
asS'812'
p2011
(lp2012
Vfirst
p2013
asS'813'
p2014
(lp2015
Vwas
p2016
asS'814'
p2017
(lp2018
Vwas
p2019
asS'817'
p2020
(lp2021
g9
asS'2859'
p2022
(lp2023
Vout
p2024
asS'1991'
p2025
(lp2026
Vexperience.The
p2027
asS'1522'
p2028
(lp2029
V!!!
p2030
asS'1622'
p2031
(lp2032
Vstarter
p2033
asS'2851'
p2034
(lp2035
Vromantic
p2036
asS'2850'
p2037
(lp2038
Vpersonable
p2039
asS'2853'
p2040
(lp2041
Vany
p2042
asS'2852'
p2043
(lp2044
Vamazing
p2045
asS'2855'
p2046
(lp2047
Vwas
p2048
asS'3205'
p2049
(lp2050
VSouth
p2051
asS'2856'
p2052
(lp2053
Vfact
p2054
asS'1490'
p2055
(lp2056
Vphenomenal
p2057
asS'3332'
p2058
(lp2059
Vthe
p2060
asS'1492'
p2061
(lp2062
Vname
p2063
asS'1493'
p2064
(lp2065
Vpizza
p2066
asS'1494'
p2067
(lp2068
Vmore
p2069
asS'1495'
p2070
(lp2071
Vout
p2072
asS'3335'
p2073
(lp2074
Vsauce
p2075
asS'3334'
p2076
(lp2077
Vif
p2078
asS'3203'
p2079
(lp2080
Vmore
p2081
asS'3339'
p2082
(lp2083
Vsupreme
p2084
asS'1395'
p2085
(lp2086
Ventrees
p2087
asS'3202'
p2088
(lp2089
Vthe
p2090
asS'1700'
p2091
(lp2092
VFinally
p2093
asS'1701'
p2094
(lp2095
Vare
p2096
asS'1702'
p2097
(lp2098
Vprice
p2099
asS'1703'
p2100
(lp2101
Vmore
p2102
asS'1704'
p2103
(lp2104
g9
asS'3201'
p2105
(lp2106
Vthe
p2107
asS'1706'
p2108
(lp2109
Vfriends
p2110
asS'1707'
p2111
(lp2112
Vinto
p2113
asS'1708'
p2114
(lp2115
Vif
p2116
asS'1709'
p2117
(lp2118
Vworked
p2119
asS'3200'
p2120
(lp2121
g9
asS'424'
p2122
(lp2123
g9
asS'3658'
p2124
(lp2125
Vcool
p2126
asS'2975'
p2127
(lp2128
Vkitchen
p2129
asS'3659'
p2130
(lp2131
Vrestaurant
p2132
asS'1128'
p2133
(lp2134
Vnice
p2135
asS'1129'
p2136
(lp2137
Vthai
p2138
asS'1120'
p2139
(lp2140
Vmy
p2141
asS'1123'
p2142
(lp2143
VSaturday
p2144
asS'1124'
p2145
(lp2146
Vwaitress
p2147
asS'1125'
p2148
(lp2149
Vloud
p2150
asS'1126'
p2151
(lp2152
Vlive
p2153
asS'1127'
p2154
(lp2155
Vat
p2156
asS'2989'
p2157
(lp2158
Veven
p2159
asS'2988'
p2160
(lp2161
Vwaitress
p2162
asS'3029'
p2163
(lp2164
Vover
p2165
asS'2983'
p2166
(lp2167
VNice
p2168
asS'2099'
p2169
(lp2170
g9
asS'3025'
p2171
(lp2172
Vfinal
p2173
asS'3024'
p2174
(lp2175
Vfirst
p2176
asS'3023'
p2177
(lp2178
V've
p2179
asS'2986'
p2180
(lp2181
Vthe
p2182
asS'2985'
p2183
(lp2184
VMy
p2185
asS'3020'
p2186
(lp2187
Vwas
p2188
asS'524'
p2189
(lp2190
Vwas
p2191
asS'527'
p2192
(lp2193
Vdrinks
p2194
asS'520'
p2195
(lp2196
Vwine
p2197
asS'1019'
p2198
(lp2199
g9
asS'523'
p2200
(lp2201
Vwine
p2202
asS'1014'
p2203
(lp2204
Vatmosphere
p2205
asS'1015'
p2206
(lp2207
Vdrinks
p2208
asS'1017'
p2209
(lp2210
Vfood
p2211
asS'528'
p2212
(lp2213
Vfriendly
p2214
asS'529'
p2215
(lp2216
VThe
p2217
asS'1012'
p2218
(lp2219
Vsweetness
p2220
asS'1013'
p2221
(lp2222
Vor
p2223
asS'1236'
p2224
(lp2225
Vproblem
p2226
asS'1237'
p2227
(lp2228
Vvegetarian
p2229
asS'1231'
p2230
(lp2231
Vbest
p2232
asS'1232'
p2233
(lp2234
Vsoft
p2235
asS'1233'
p2236
(lp2237
g9
asS'1238'
p2238
(lp2239
g9
asS'1239'
p2240
(lp2241
Vweeknight
p2242
asS'438'
p2243
(lp2244
Vpizza
p2245
asS'439'
p2246
(lp2247
Vpizzas
p2248
asS'433'
p2249
(lp2250
Vhope
p2251
asS'430'
p2252
(lp2253
Vrestaurants
p2254
asS'559'
p2255
(lp2256
Vwhole
p2257
asS'1967'
p2258
(lp2259
g9
asS'3162'
p2260
(lp2261
Vbest
p2262
asS'3160'
p2263
(lp2264
Vfind
p2265
asS'2465'
p2266
(lp2267
VFOR
p2268
asS'2948'
p2269
(lp2270
g9
asS'997'
p2271
(lp2272
Veat
p2273
asS'238'
p2274
(lp2275
Vnice
p2276
asS'239'
p2277
(lp2278
g9
asS'991'
p2279
(lp2280
Vlocation
p2281
asS'236'
p2282
(lp2283
Vor
p2284
asS'237'
p2285
(lp2286
Vfry
p2287
asS'230'
p2288
(lp2289
Varound
p2290
asS'231'
p2291
(lp2292
Vafternoon
p2293
asS'232'
p2294
(lp2295
Vwas
p2296
asS'233'
p2297
(lp2298
Vwas
p2299
asS'2228'
p2300
(lp2301
Vnice
p2302
asS'2229'
p2303
(lp2304
g9
asS'2226'
p2305
(lp2306
Vthe
p2307
asS'2227'
p2308
(lp2309
Vyou
p2310
asS'2224'
p2311
(lp2312
Vcouteract
p2313
asS'2225'
p2314
(lp2315
Vday
p2316
asS'2222'
p2317
(lp2318
VWent
p2319
asS'2223'
p2320
(lp2321
Vwas
p2322
asS'2220'
p2323
(lp2324
Vthe
p2325
asS'2221'
p2326
(lp2327
g9
asS'147'
p2328
(lp2329
VBBQ
p2330
asS'142'
p2331
(lp2332
Vbread
p2333
asS'140'
p2334
(lp2335
VBBQ
p2336
asS'141'
p2337
(lp2338
Vtired
p2339
asS'2468'
p2340
(lp2341
Vthe
p2342
asS'148'
p2343
(lp2344
Vor
p2345
asS'149'
p2346
(lp2347
Vfriend
p2348
asS'3401'
p2349
(lp2350
Vwas
p2351
asS'2088'
p2352
(lp2353
Vsomething
p2354
asS'2089'
p2355
(lp2356
Vchic
p2357
asS'2082'
p2358
(lp2359
Vworth
p2360
asS'2083'
p2361
(lp2362
Vsum
p2363
asS'2080'
p2364
(lp2365
Venjoying
p2366
asS'2081'
p2367
(lp2368
Vworth
p2369
asS'2086'
p2370
(lp2371
VThe
p2372
asS'2087'
p2373
(lp2374
Vspeaks
p2375
asS'2084'
p2376
(lp2377
Vthe
p2378
asS'2085'
p2379
(lp2380
Vfresh
p2381
asS'3342'
p2382
(lp2383
Vbefore
p2384
asS'2538'
p2385
(lp2386
g9
asS'2539'
p2387
(lp2388
Vspecial
p2389
asS'1190'
p2390
(lp2391
Vthe
p2392
asS'2532'
p2393
(lp2394
VYour
p2395
asS'2533'
p2396
(lp2397
Varound
p2398
asS'2536'
p2399
(lp2400
Vprevious
p2401
asS'1193'
p2402
(lp2403
Vmore
p2404
asS'2534'
p2405
(lp2406
Veat
p2407
asS'2535'
p2408
(lp2409
Vwomen
p2410
asS'2712'
p2411
(lp2412
Vmeal
p2413
asS'2713'
p2414
(lp2415
Vmore
p2416
asS'2710'
p2417
(lp2418
g9
asS'2711'
p2419
(lp2420
Vfact
p2421
asS'2716'
p2422
(lp2423
VThey
p2424
asS'2717'
p2425
(lp2426
VRed
p2427
asS'2714'
p2428
(lp2429
Vits
p2430
asS'2715'
p2431
(lp2432
Vis
p2433
asS'2718'
p2434
(lp2435
Vtaken
p2436
asS'128'
p2437
(lp2438
Vout
p2439
asS'3344'
p2440
(lp2441
Vofficial
p2442
asS'129'
p2443
(lp2444
Vthe
p2445
asS'3345'
p2446
(lp2447
Vpizza
p2448
asS'1832'
p2449
(lp2450
g9
asS'1830'
p2451
(lp2452
VRay
p2453
asS'1831'
p2454
(lp2455
VHe
p2456
asS'1836'
p2457
(lp2458
Vthan
p2459
asS'1837'
p2460
(lp2461
Vfast
p2462
asS'1835'
p2463
(lp2464
Vtalk
p2465
asS'1838'
p2466
(lp2467
g9
asS'1839'
p2468
(lp2469
g9
asS'137'
p2470
(lp2471
Vpopular
p2472
asS'2406'
p2473
(lp2474
g9
asS'2155'
p2475
(lp2476
Vmayo
p2477
asS'2156'
p2478
(lp2479
Vbagels
p2480
asS'938'
p2481
(lp2482
Vthe
p2483
asS'2150'
p2484
(lp2485
g9
asS'2403'
p2486
(lp2487
Vif
p2488
asS'2152'
p2489
(lp2490
g9
asS'2153'
p2491
(lp2492
Vorder
p2493
asS'932'
p2494
(lp2495
Vminutes
p2496
asS'931'
p2497
(lp2498
Vglasses
p2499
asS'930'
p2500
(lp2501
Vwith
p2502
asS'2158'
p2503
(lp2504
Vbest
p2505
asS'2159'
p2506
(lp2507
Vsize
p2508
asS'2408'
p2509
(lp2510
Vplaying
p2511
asS'2409'
p2512
(lp2513
Vheel
p2514
asS'471'
p2515
(lp2516
Vconsisted
p2517
asS'3091'
p2518
(lp2519
Vthe
p2520
asS'1955'
p2521
(lp2522
Vtalk
p2523
asS'1954'
p2524
(lp2525
Vcozy
p2526
asS'1957'
p2527
(lp2528
g1141
asS'1956'
p2529
(lp2530
VIf
p2531
asS'1951'
p2532
(lp2533
Vasked
p2534
asS'1950'
p2535
(lp2536
Vboyfriend
p2537
asS'1953'
p2538
(lp2539
g9
asS'1952'
p2540
(lp2541
Vthe
p2542
asS'2673'
p2543
(lp2544
Vgo
p2545
asS'1959'
p2546
(lp2547
Vwait
p2548
asS'1958'
p2549
(lp2550
VNow
p2551
asS'3249'
p2552
(lp2553
Vpits
p2554
asS'3248'
p2555
(lp2556
Vchicken
p2557
asS'3243'
p2558
(lp2559
g9
asS'3242'
p2560
(lp2561
Vwas
p2562
asS'3241'
p2563
(lp2564
Vwhole
p2565
asS'3247'
p2566
(lp2567
Vthe
p2568
asS'3246'
p2569
(lp2570
g9
asS'3245'
p2571
(lp2572
Vquite
p2573
asS'3244'
p2574
(lp2575
Vtimes
p2576
asS'828'
p2577
(lp2578
Vview
p2579
asS'825'
p2580
(lp2581
Vat
p2582
asS'824'
p2583
(lp2584
Vout
p2585
asS'827'
p2586
(lp2587
Vnice
p2588
asS'826'
p2589
(lp2590
Vknow
p2591
asS'823'
p2592
(lp2593
Vclient
p2594
asS'822'
p2595
(lp2596
Vthe
p2597
asS'2284'
p2598
(lp2599
VThe
p2600
asS'1536'
p2601
(lp2602
V$
p2603
asS'1993'
p2604
(lp2605
Vroad
p2606
asS'3227'
p2607
(lp2608
Vbest
p2609
asS'1483'
p2610
(lp2611
Vthe
p2612
asS'1482'
p2613
(lp2614
Vwhole
p2615
asS'1481'
p2616
(lp2617
Vthe
p2618
asS'1480'
p2619
(lp2620
VPizza
p2621
asS'1487'
p2622
(lp2623
Vpizza
p2624
asS'1823'
p2625
(lp2626
Vpizza
p2627
asS'1485'
p2628
(lp2629
VPizza
p2630
asS'1484'
p2631
(lp2632
Vside
p2633
asS'3306'
p2634
(lp2635
Vyour
p2636
asS'3304'
p2637
(lp2638
VBisque
p2639
asS'3305'
p2640
(lp2641
Vwith
p2642
asS'3302'
p2643
(lp2644
Vstaff
p2645
asS'3303'
p2646
(lp2647
VBisque
p2648
asS'797'
p2649
(lp2650
Vfor
p2651
asS'928'
p2652
(lp2653
Vcare
p2654
asS'1711'
p2655
(lp2656
Vprices
p2657
asS'1710'
p2658
(lp2659
Vat
p2660
asS'1717'
p2661
(lp2662
Vcan
p2663
asS'792'
p2664
(lp2665
V???
p2666
asS'791'
p2667
(lp2668
Vbefore
p2669
asS'2410'
p2670
(lp2671
Vwait
p2672
asS'1719'
p2673
(lp2674
Vrecommend
p2675
asS'1718'
p2676
(lp2677
g9
asS'2413'
p2678
(lp2679
Vthe
p2680
asS'799'
p2681
(lp2682
Vwas
p2683
asS'798'
p2684
(lp2685
Vwith
p2686
asS'612'
p2687
(lp2688
V100
p2689
asS'2412'
p2690
(lp2691
Vcool
p2692
asS'1271'
p2693
(lp2694
Vred
p2695
asS'2415'
p2696
(lp2697
Vgrab
p2698
asS'610'
p2699
(lp2700
Vshows
p2701
asS'2414'
p2702
(lp2703
V've
p2704
asS'1139'
p2705
(lp2706
Vsalt
p2707
asS'1138'
p2708
(lp2709
VEdamame
p2710
asS'2417'
p2711
(lp2712
Vclearly
p2713
asS'1133'
p2714
(lp2715
Vif
p2716
asS'1995'
p2717
(lp2718
Vmean
p2719
asS'1131'
p2720
(lp2721
Vwow
p2722
asS'1130'
p2723
(lp2724
VIf
p2725
asS'617'
p2726
(lp2727
g9
asS'2419'
p2728
(lp2729
Vmy
p2730
asS'1276'
p2731
(lp2732
Vof
p2733
asS'2418'
p2734
(lp2735
Vsoft
p2736
asS'615'
p2737
(lp2738
Vwith
p2739
asS'2790'
p2740
(lp2741
Vwas
p2742
asS'3018'
p2743
(lp2744
Vexpensive
p2745
asS'3019'
p2746
(lp2747
Vhusband
p2748
asS'3012'
p2749
(lp2750
Vside
p2751
asS'3013'
p2752
(lp2753
Vattitude
p2754
asS'3011'
p2755
(lp2756
Vmaine
p2757
asS'3016'
p2758
(lp2759
Vthe
p2760
asS'3017'
p2761
(lp2762
Vwine
p2763
asS'3014'
p2764
(lp2765
Vfirst
p2766
asS'3015'
p2767
(lp2768
Vorder
p2769
asS'519'
p2770
(lp2771
Vwine
p2772
asS'518'
p2773
(lp2774
Vfriendly
p2775
asS'926'
p2776
(lp2777
Vforward
p2778
asS'1009'
p2779
(lp2780
Vsat
p2781
asS'1008'
p2782
(lp2783
Vmissed
p2784
asS'1007'
p2785
(lp2786
Vtrays
p2787
asS'1006'
p2788
(lp2789
Vto
p2790
asS'513'
p2791
(lp2792
Vhe
p2793
asS'927'
p2794
(lp2795
Vthe
p2796
asS'1003'
p2797
(lp2798
VWonderful
p2799
asS'1002'
p2800
(lp2801
Vview
p2802
asS'1001'
p2803
(lp2804
Vout-of-towners
p2805
asS'1000'
p2806
(lp2807
Vdrinks
p2808
asS'623'
p2809
(lp2810
VIts
p2811
asS'1226'
p2812
(lp2813
Vtake
p2814
asS'621'
p2815
(lp2816
Vout
p2817
asS'620'
p2818
(lp2819
Vhusband
p2820
asS'627'
p2821
(lp2822
Vsat
p2823
asS'626'
p2824
(lp2825
Vdrinks
p2826
asS'625'
p2827
(lp2828
Vthe
p2829
asS'624'
p2830
(lp2831
VYou
p2832
asS'629'
p2833
(lp2834
Vhidden
p2835
asS'628'
p2836
(lp2837
Vdrinks
p2838
asS'1228'
p2839
(lp2840
Velsewhere
p2841
asS'2882'
p2842
(lp2843
Vforgettable
p2844
asS'2883'
p2845
(lp2846
Vthe
p2847
asS'2880'
p2848
(lp2849
Vmy
p2850
asS'2881'
p2851
(lp2852
Vcomes
p2853
asS'2886'
p2854
(lp2855
VMy
p2856
asS'2887'
p2857
(lp2858
VIf
p2859
asS'2884'
p2860
(lp2861
Vthe
p2862
asS'2885'
p2863
(lp2864
Vcravings
p2865
asS'2888'
p2866
(lp2867
Vnot
p2868
asS'2889'
p2869
(lp2870
Vgo
p2871
asS'3196'
p2872
(lp2873
g9
asS'1920'
p2874
(lp2875
Vfirst
p2876
asS'15'
p2877
(lp2878
VSat
p2879
asS'14'
p2880
(lp2881
Vwhole
p2882
asS'16'
p2883
(lp2884
Vthe
p2885
asS'1922'
p2886
(lp2887
Vrestaurants
p2888
asS'3275'
p2889
(lp2890
Vwaitress
p2891
asS'1925'
p2892
(lp2893
Vrecord
p2894
asS'3193'
p2895
(lp2896
Vasked
p2897
asS'929'
p2898
(lp2899
Vview
p2900
asS'1534'
p2901
(lp2902
Vexpect
p2903
asS'201'
p2904
(lp2905
Vwine
p2906
asS'200'
p2907
(lp2908
g9
asS'202'
p2909
(lp2910
Vn't
p2911
asS'205'
p2912
(lp2913
Vare
p2914
asS'204'
p2915
(lp2916
Vthe
p2917
asS'206'
p2918
(lp2919
Vpacked
p2920
asS'209'
p2921
(lp2922
Vclose
p2923
asS'208'
p2924
(lp2925
Vtoo
p2926
asS'1573'
p2927
(lp2928
Vtime
p2929
asS'831'
p2930
(lp2931
Vview
p2932
asS'3470'
p2933
(lp2934
Vatmosphere
p2935
asS'687'
p2936
(lp2937
Vnice
p2938
asS'3471'
p2939
(lp2940
g9
asS'2239'
p2941
(lp2942
Vyour
p2943
asS'2238'
p2944
(lp2945
VSuan
p2946
asS'1570'
p2947
(lp2948
Vmight
p2949
asS'834'
p2950
(lp2951
Vwind
p2952
asS'2230'
p2953
(lp2954
Vcame
p2955
asS'2233'
p2956
(lp2957
Vworth
p2958
asS'3473'
p2959
(lp2960
VLOUD
p2961
asS'2235'
p2962
(lp2963
Vrestaurants
p2964
asS'2234'
p2965
(lp2966
g9
asS'2237'
p2967
(lp2968
Vwas
p2969
asS'2236'
p2970
(lp2971
Vsauces
p2972
asS'682'
p2973
(lp2974
VOne
p2975
asS'3499'
p2976
(lp2977
Vby
p2978
asS'3496'
p2979
(lp2980
VPizza
p2981
asS'3494'
p2982
(lp2983
VPizza
p2984
asS'3495'
p2985
(lp2986
g9
asS'3492'
p2987
(lp2988
VPizza
p2989
asS'3493'
p2990
(lp2991
Vimpeccable
p2992
asS'3490'
p2993
(lp2994
VChelsea
p2995
asS'3491'
p2996
(lp2997
VItalian
p2998
asS'2095'
p2999
(lp3000
Vdimsum
p3001
asS'2094'
p3002
(lp3003
g9
asS'2097'
p3004
(lp3005
Vvs.
p3006
asS'2096'
p3007
(lp3008
Vthan
p3009
asS'2091'
p3010
(lp3011
Vpiece
p3012
asS'2090'
p3013
(lp3014
Vbite
p3015
asS'2093'
p3016
(lp3017
Vbill
p3018
asS'2092'
p3019
(lp3020
g9
asS'3654'
p3021
(lp3022
Vthe
p3023
asS'3655'
p3024
(lp3025
Vout
p3026
asS'3650'
p3027
(lp3028
Vhe
p3029
asS'2098'
p3030
(lp3031
g9
asS'3652'
p3032
(lp3033
g9
asS'3653'
p3034
(lp3035
Vreferred
p3036
asS'2525'
p3037
(lp3038
Vside
p3039
asS'2524'
p3040
(lp3041
Vstill
p3042
asS'2526'
p3043
(lp3044
Vhigher
p3045
asS'2521'
p3046
(lp3047
Vis
p3048
asS'2520'
p3049
(lp3050
Vplace
p3051
asS'2523'
p3052
(lp3053
Vcold
p3054
asS'2522'
p3055
(lp3056
Vbread
p3057
asS'2529'
p3058
(lp3059
g9
asS'2709'
p3060
(lp3061
Vrestaurants
p3062
asS'2708'
p3063
(lp3064
Vreasonably
p3065
asS'2705'
p3066
(lp3067
Vthe
p3068
asS'2704'
p3069
(lp3070
V-RRB-
p3071
asS'2707'
p3072
(lp3073
Vyou
p3074
asS'2706'
p3075
(lp3076
VTends
p3077
asS'2701'
p3078
(lp3079
Vwas
p3080
asS'2700'
p3081
(lp3082
Vfirst
p3083
asS'2703'
p3084
(lp3085
g9
asS'2702'
p3086
(lp3087
Vcame
p3088
asS'1829'
p3089
(lp3090
Vbought
p3091
asS'1828'
p3092
(lp3093
VHe
p3094
asS'1825'
p3095
(lp3096
VRosario
p3097
asS'1824'
p3098
(lp3099
Vto
p3100
asS'1827'
p3101
(lp3102
VHe
p3103
asS'1826'
p3104
(lp3105
VYork
p3106
asS'1821'
p3107
(lp3108
Vmy
p3109
asS'1820'
p3110
(lp3111
Vliterate
p3112
asS'512'
p3113
(lp3114
VDay
p3115
asS'1822'
p3116
(lp3117
Vis
p3118
asS'2147'
p3119
(lp3120
Vmeal
p3121
asS'2146'
p3122
(lp3123
Vstaff
p3124
asS'2145'
p3125
(lp3126
g1141
asS'2144'
p3127
(lp3128
V's
p3129
asS'2143'
p3130
(lp3131
Vhave
p3132
asS'2142'
p3133
(lp3134
g9
asS'2141'
p3135
(lp3136
Vtuna
p3137
asS'2140'
p3138
(lp3139
Vname
p3140
asS'920'
p3141
(lp3142
g9
asS'921'
p3143
(lp3144
Vnice
p3145
asS'922'
p3146
(lp3147
Vbit
p3148
asS'923'
p3149
(lp3150
Vwas
p3151
asS'924'
p3152
(lp3153
Vmeal
p3154
asS'925'
p3155
(lp3156
g9
asS'2149'
p3157
(lp3158
g9
asS'2148'
p3159
(lp3160
g9
asS'2411'
p3161
(lp3162
Vdelectable
p3163
asS'3276'
p3164
(lp3165
Vgets
p3166
asS'3277'
p3167
(lp3168
Vdisapointed
p3169
asS'3274'
p3170
(lp3171
Vtypical
p3172
asS'1923'
p3173
(lp3174
VMore
p3175
asS'3272'
p3176
(lp3177
VBijin
p3178
asS'3273'
p3179
(lp3180
Vmartini
p3181
asS'1926'
p3182
(lp3183
Vmy
p3184
asS'1927'
p3185
(lp3186
Vwere
p3187
asS'1928'
p3188
(lp3189
Vpleasantly
p3190
asS'1929'
p3191
(lp3192
Vtop-notch
p3193
asS'3278'
p3194
(lp3195
Vthe
p3196
asS'3279'
p3197
(lp3198
Vyou
p3199
asS'3474'
p3200
(lp3201
Vnever
p3202
asS'833'
p3203
(lp3204
VMetrazur
p3205
asS'3476'
p3206
(lp3207
g9
asS'3477'
p3208
(lp3209
Vif
p3210
asS'836'
p3211
(lp3212
Vwere
p3213
asS'837'
p3214
(lp3215
VWhy
p3216
asS'3472'
p3217
(lp3218
Vhad
p3219
asS'835'
p3220
(lp3221
Vexpensive
p3222
asS'838'
p3223
(lp3224
g9
asS'839'
p3225
(lp3226
g9
asS'3478'
p3227
(lp3228
Vtalk
p3229
asS'3479'
p3230
(lp3231
Vout
p3232
asS'3'
p3233
(lp3234
Vor
p3235
asS'1986'
p3236
(lp3237
VIf
p3238
asS'3319'
p3239
(lp3240
Vtypical
p3241
asS'3318'
p3242
(lp3243
Vby
p3244
asS'3313'
p3245
(lp3246
Vmy
p3247
asS'3315'
p3248
(lp3249
Vthe
p3250
asS'3314'
p3251
(lp3252
Vview
p3253
asS'3317'
p3254
(lp3255
Vview
p3256
asS'3316'
p3257
(lp3258
Vwas
p3259
asS'784'
p3260
(lp3261
VIf
p3262
asS'785'
p3263
(lp3264
Vthe
p3265
asS'780'
p3266
(lp3267
Vworht
p3268
asS'781'
p3269
(lp3270
Vmore
p3271
asS'1728'
p3272
(lp3273
Vwith
p3274
asS'1729'
p3275
(lp3276
VPizza
p3277
asS'1727'
p3278
(lp3279
VThe
p3280
asS'1724'
p3281
(lp3282
VLS
p3283
asS'788'
p3284
(lp3285
Vwas
p3286
asS'1723'
p3287
(lp3288
Vsauce
p3289
asS'1720'
p3290
(lp3291
Vthe
p3292
asS'1721'
p3293
(lp3294
Vthe
p3295
asS'153'
p3296
(lp3297
Vbest
p3298
asS'3005'
p3299
(lp3300
Vthe
p3301
asS'61'
p3302
(lp3303
Vdrinks
p3304
asS'62'
p3305
(lp3306
Vthe
p3307
asS'2438'
p3308
(lp3309
g9
asS'3001'
p3310
(lp3311
Vstaff
p3312
asS'3000'
p3313
(lp3314
Vtreated
p3315
asS'66'
p3316
(lp3317
Vtheir
p3318
asS'3002'
p3319
(lp3320
VMore
p3321
asS'1985'
p3322
(lp3323
Vwine
p3324
asS'407'
p3325
(lp3326
Vseemed
p3327
asS'406'
p3328
(lp3329
Vslightly
p3330
asS'1582'
p3331
(lp3332
VEVER
p3333
asS'1583'
p3334
(lp3335
g9
asS'1580'
p3336
(lp3337
Vstaff
p3338
asS'1581'
p3339
(lp3340
Vthe
p3341
asS'1586'
p3342
(lp3343
VREALLY
p3344
asS'405'
p3345
(lp3346
Vurchin
p3347
asS'1584'
p3348
(lp3349
VBEST
p3350
asS'1585'
p3351
(lp3352
VREALLY
p3353
asS'159'
p3354
(lp3355
Vcame
p3356
asS'1038'
p3357
(lp3358
Vmeal
p3359
asS'1372'
p3360
(lp3361
Vwas
p3362
asS'508'
p3363
(lp3364
Vif
p3365
asS'509'
p3366
(lp3367
Vwas
p3368
asS'1032'
p3369
(lp3370
Vfish
p3371
asS'1033'
p3372
(lp3373
g9
asS'504'
p3374
(lp3375
Vwine
p3376
asS'505'
p3377
(lp3378
Vovercooking
p3379
asS'502'
p3380
(lp3381
Vfirst
p3382
asS'1037'
p3383
(lp3384
Vexpensive
p3385
asS'500'
p3386
(lp3387
Vto
p3388
asS'1035'
p3389
(lp3390
Vonce
p3391
asS'630'
p3392
(lp3393
Vdrinks
p3394
asS'1213'
p3395
(lp3396
Vside
p3397
asS'1210'
p3398
(lp3399
Vjoint
p3400
asS'1211'
p3401
(lp3402
Vbest
p3403
asS'1216'
p3404
(lp3405
Vthe
p3406
asS'401'
p3407
(lp3408
Vwas
p3409
asS'1214'
p3410
(lp3411
V74th
p3412
asS'1215'
p3413
(lp3414
Vout
p3415
asS'638'
p3416
(lp3417
Vmakes
p3418
asS'639'
p3419
(lp3420
g133
asS'1218'
p3421
(lp3422
Vanyways
p3423
asS'1376'
p3424
(lp3425
Vby
p3426
asS'2416'
p3427
(lp3428
Vrestaurants
p3429
asS'2899'
p3430
(lp3431
Vbefore
p3432
asS'782'
p3433
(lp3434
Vout
p3435
asS'2895'
p3436
(lp3437
Vplace
p3438
asS'2894'
p3439
(lp3440
Vwhy
p3441
asS'2897'
p3442
(lp3443
Vthe
p3444
asS'2896'
p3445
(lp3446
Vout
p3447
asS'2891'
p3448
(lp3449
Vwine
p3450
asS'2890'
p3451
(lp3452
V'm
p3453
asS'2893'
p3454
(lp3455
Vaccomodate
p3456
asS'2892'
p3457
(lp3458
Vamazed
p3459
asS'1454'
p3460
(lp3461
Vthe
p3462
asS'1455'
p3463
(lp3464
VItalian
p3465
asS'1104'
p3466
(lp3467
Vmy
p3468
asS'1105'
p3469
(lp3470
g9
asS'1102'
p3471
(lp3472
Vcare
p3473
asS'1103'
p3474
(lp3475
Vwas
p3476
asS'1100'
p3477
(lp3478
Vby
p3479
asS'1101'
p3480
(lp3481
Vbefore
p3482
asS'1458'
p3483
(lp3484
Vmeats
p3485
asS'1459'
p3486
(lp3487
Vbaked
p3488
asS'1108'
p3489
(lp3490
Vthe
p3491
asS'1109'
p3492
(lp3493
Vbest
p3494
asS'1722'
p3495
(lp3496
Vthe
p3497
asS'789'
p3498
(lp3499
Vthe
p3500
asS'1357'
p3501
(lp3502
Votherwise
p3503
asS'1576'
p3504
(lp3505
Vmust
p3506
asS'959'
p3507
(lp3508
Vfriendly
p3509
asS'958'
p3510
(lp3511
Vwine
p3512
asS'2794'
p3513
(lp3514
Vname
p3515
asS'216'
p3516
(lp3517
Vblowup
p3518
asS'217'
p3519
(lp3520
Vmy
p3521
asS'214'
p3522
(lp3523
Vattentive
p3524
asS'215'
p3525
(lp3526
VWine
p3527
asS'212'
p3528
(lp3529
Vthe
p3530
asS'213'
p3531
(lp3532
Vmore
p3533
asS'210'
p3534
(lp3535
Vits
p3536
asS'211'
p3537
(lp3538
Vany
p3539
asS'218'
p3540
(lp3541
Vlike
p3542
asS'3094'
p3543
(lp3544
Vhave
p3545
asS'957'
p3546
(lp3547
Vconsisted
p3548
asS'956'
p3549
(lp3550
g9
asS'939'
p3551
(lp3552
g9
asS'4'
p3553
(lp3554
Vor
p3555
asS'3489'
p3556
(lp3557
g9
asS'3488'
p3558
(lp3559
Vor
p3560
asS'3481'
p3561
(lp3562
Vout
p3563
asS'3480'
p3564
(lp3565
g9
asS'3483'
p3566
(lp3567
Vmy
p3568
asS'3482'
p3569
(lp3570
Vthe
p3571
asS'3487'
p3572
(lp3573
Vdream
p3574
asS'2474'
p3575
(lp3576
Vthe
p3577
asS'3649'
p3578
(lp3579
Vfriends
p3580
asS'3648'
p3581
(lp3582
Vwas
p3583
asS'3647'
p3584
(lp3585
Vby
p3586
asS'3646'
p3587
(lp3588
g9
asS'3645'
p3589
(lp3590
Vor
p3591
asS'3644'
p3592
(lp3593
g9
asS'3643'
p3594
(lp3595
Vnice
p3596
asS'3642'
p3597
(lp3598
Vfriendly
p3599
asS'3641'
p3600
(lp3601
Vwith
p3602
asS'3640'
p3603
(lp3604
Vplace
p3605
asS'2550'
p3606
(lp3607
VOnce
p3608
asS'2551'
p3609
(lp3610
VHighly
p3611
asS'2553'
p3612
(lp3613
Vpizza
p3614
asS'2554'
p3615
(lp3616
Vhigher
p3617
asS'2555'
p3618
(lp3619
Vthe
p3620
asS'3004'
p3621
(lp3622
Vor
p3623
asS'2558'
p3624
(lp3625
Vusual
p3626
asS'2559'
p3627
(lp3628
Vby
p3629
asS'2396'
p3630
(lp3631
Vmakes
p3632
asS'2397'
p3633
(lp3634
Vonce
p3635
asS'2394'
p3636
(lp3637
Vfrustrating
p3638
asS'2395'
p3639
(lp3640
Vwait
p3641
asS'2392'
p3642
(lp3643
VSpice
p3644
asS'2393'
p3645
(lp3646
Vor
p3647
asS'2390'
p3648
(lp3649
Vheating
p3650
asS'2391'
p3651
(lp3652
Vthe
p3653
asS'2398'
p3654
(lp3655
Vlays
p3656
asS'65'
p3657
(lp3658
Vthe
p3659
asS'2778'
p3660
(lp3661
Vcould
p3662
asS'2779'
p3663
(lp3664
Vasked
p3665
asS'3003'
p3666
(lp3667
Vsalt
p3668
asS'2770'
p3669
(lp3670
VFirst
p3671
asS'2771'
p3672
(lp3673
Vor
p3674
asS'2772'
p3675
(lp3676
Vwine
p3677
asS'2773'
p3678
(lp3679
Vlisted
p3680
asS'2774'
p3681
(lp3682
Vprice
p3683
asS'2777'
p3684
(lp3685
Vaverage
p3686
asS'3166'
p3687
(lp3688
Vside
p3689
asS'3167'
p3690
(lp3691
Vreally
p3692
asS'3165'
p3693
(lp3694
Vif
p3695
asS'1851'
p3696
(lp3697
Vwas
p3698
asS'1852'
p3699
(lp3700
VMy
p3701
asS'1853'
p3702
(lp3703
Vthe
p3704
asS'1854'
p3705
(lp3706
Vbank
p3707
asS'1855'
p3708
(lp3709
Vhusband
p3710
asS'1856'
p3711
(lp3712
Vnice
p3713
asS'1857'
p3714
(lp3715
Vnice
p3716
asS'2172'
p3717
(lp3718
Vthan
p3719
asS'2173'
p3720
(lp3721
Vstore
p3722
asS'2170'
p3723
(lp3724
Vstaff
p3725
asS'2171'
p3726
(lp3727
g9
asS'2176'
p3728
(lp3729
g9
asS'2177'
p3730
(lp3731
Vyou
p3732
asS'915'
p3733
(lp3734
Vnice
p3735
asS'914'
p3736
(lp3737
Vfirst
p3738
asS'2178'
p3739
(lp3740
Vunbeliavably
p3741
asS'916'
p3742
(lp3743
Vor
p3744
asS'911'
p3745
(lp3746
Vthe
p3747
asS'910'
p3748
(lp3749
Vwas
p3750
asS'913'
p3751
(lp3752
Vhad
p3753
asS'912'
p3754
(lp3755
Vwine-by-the-glass
p3756
asS'2604'
p3757
(lp3758
Vpizza
p3759
asS'2605'
p3760
(lp3761
Vkind
p3762
asS'2606'
p3763
(lp3764
Vpizza
p3765
asS'2607'
p3766
(lp3767
Vday
p3768
asS'2600'
p3769
(lp3770
g9
asS'2601'
p3771
(lp3772
Vfind
p3773
asS'2602'
p3774
(lp3775
Veat
p3776
asS'1420'
p3777
(lp3778
Vmust
p3779
asS'2608'
p3780
(lp3781
Vor
p3782
asS'2609'
p3783
(lp3784
g9
asS'3261'
p3785
(lp3786
Vsalt
p3787
asS'3260'
p3788
(lp3789
Vyou
p3790
asS'3263'
p3791
(lp3792
VKai
p3793
asS'1930'
p3794
(lp3795
Vcame
p3796
asS'3265'
p3797
(lp3798
Vat
p3799
asS'3264'
p3800
(lp3801
Vwith
p3802
asS'1935'
p3803
(lp3804
Vthe
p3805
asS'3266'
p3806
(lp3807
VIf
p3808
asS'3268'
p3809
(lp3810
VThe
p3811
asS'1939'
p3812
(lp3813
Vgem
p3814
asS'2051'
p3815
(lp3816
Vknow
p3817
asS'847'
p3818
(lp3819
Vmeal
p3820
asS'846'
p3821
(lp3822
Vmeal
p3823
asS'845'
p3824
(lp3825
Vrefreshing
p3826
asS'844'
p3827
(lp3828
Vits
p3829
asS'843'
p3830
(lp3831
Vservice
p3832
asS'3462'
p3833
(lp3834
Vany
p3835
asS'3461'
p3836
(lp3837
g9
asS'3460'
p3838
(lp3839
Vbest
p3840
asS'3469'
p3841
(lp3842
Vbest
p3843
asS'3468'
p3844
(lp3845
Vbest
p3846
asS'3364'
p3847
(lp3848
Vthe
p3849
asS'3365'
p3850
(lp3851
VItalian
p3852
asS'3361'
p3853
(lp3854
Vby
p3855
asS'2407'
p3856
(lp3857
Vpacked
p3858
asS'1192'
p3859
(lp3860
Vspecial
p3861
asS'1739'
p3862
(lp3863
Vservice
p3864
asS'1738'
p3865
(lp3866
g9
asS'1731'
p3867
(lp3868
Vthe
p3869
asS'1730'
p3870
(lp3871
Vmeal
p3872
asS'1733'
p3873
(lp3874
g9
asS'1732'
p3875
(lp3876
Vslightly
p3877
asS'1735'
p3878
(lp3879
g133
asS'1734'
p3880
(lp3881
g9
asS'1039'
p3882
(lp3883
Vreally
p3884
asS'753'
p3885
(lp3886
Vusual
p3887
asS'752'
p3888
(lp3889
Vconsistent
p3890
asS'751'
p3891
(lp3892
g9
asS'750'
p3893
(lp3894
Vthe
p3895
asS'757'
p3896
(lp3897
Vplace
p3898
asS'756'
p3899
(lp3900
VRuby
p3901
asS'755'
p3902
(lp3903
Vreally
p3904
asS'754'
p3905
(lp3906
Vreally
p3907
asS'759'
p3908
(lp3909
Vnearby
p3910
asS'758'
p3911
(lp3912
Vor
p3913
asS'1595'
p3914
(lp3915
Vmeal
p3916
asS'3071'
p3917
(lp3918
Vromantic
p3919
asS'1597'
p3920
(lp3921
VQuality
p3922
asS'1596'
p3923
(lp3924
Vpreference
p3925
asS'2958'
p3926
(lp3927
Vcramped
p3928
asS'3075'
p3929
(lp3930
g9
asS'3076'
p3931
(lp3932
g9
asS'1592'
p3933
(lp3934
Vfriendly
p3935
asS'2954'
p3936
(lp3937
Vout
p3938
asS'2955'
p3939
(lp3940
Vwas
p3941
asS'2956'
p3942
(lp3943
Vtotally
p3944
asS'2957'
p3945
(lp3946
Vtoo
p3947
asS'1599'
p3948
(lp3949
Vpizza
p3950
asS'1598'
p3951
(lp3952
Vgo
p3953
asS'1024'
p3954
(lp3955
VIf
p3956
asS'1027'
p3957
(lp3958
Vorder
p3959
asS'1031'
p3960
(lp3961
Vfeeling
p3962
asS'1021'
p3963
(lp3964
Vor
p3965
asS'1974'
p3966
(lp3967
Vpar
p3968
asS'1023'
p3969
(lp3970
Vdrinks
p3971
asS'1022'
p3972
(lp3973
Vwaitress
p3974
asS'1029'
p3975
(lp3976
Vthe
p3977
asS'1028'
p3978
(lp3979
Vgenerous
p3980
asS'503'
p3981
(lp3982
Vworked
p3983
asS'1034'
p3984
(lp3985
Vfriendly
p3986
asS'501'
p3987
(lp3988
Vmy
p3989
asS'605'
p3990
(lp3991
Vover
p3992
asS'1212'
p3993
(lp3994
Vif
p3995
asS'607'
p3996
(lp3997
Vcame
p3998
asS'606'
p3999
(lp4000
Vreturning
p4001
asS'1209'
p4002
(lp4003
Vyou
p4004
asS'1208'
p4005
(lp4006
Vside
p4007
asS'603'
p4008
(lp4009
Vattentive
p4010
asS'602'
p4011
(lp4012
Vbest
p4013
asS'1205'
p4014
(lp4015
Vbest
p4016
asS'1204'
p4017
(lp4018
Vthe
p4019
asS'1207'
p4020
(lp4021
Vtuna
p4022
asS'1206'
p4023
(lp4024
Vthe
p4025
asS'609'
p4026
(lp4027
Vcool
p4028
asS'1200'
p4029
(lp4030
VIf
p4031
asS'1203'
p4032
(lp4033
Vleft
p4034
asS'633'
p4035
(lp4036
Vwere
p4037
asS'634'
p4038
(lp4039
Vthe
p4040
asS'935'
p4041
(lp4042
VRICE
p4043
asS'1217'
p4044
(lp4045
Vgives
p4046
asS'3108'
p4047
(lp4048
Vexpensive
p4049
asS'3105'
p4050
(lp4051
VMary
p4052
asS'3106'
p4053
(lp4054
Vthe
p4055
asS'637'
p4056
(lp4057
Vetched
p4058
asS'3100'
p4059
(lp4060
Vhappy
p4061
asS'3101'
p4062
(lp4063
Vsaid
p4064
asS'3102'
p4065
(lp4066
Vdrinks
p4067
asS'3103'
p4068
(lp4069
Vmanhattan
p4070
asS'1111'
p4071
(lp4072
Vdrinks
p4073
asS'1110'
p4074
(lp4075
Vyet
p4076
asS'1113'
p4077
(lp4078
Vrestaurants
p4079
asS'1112'
p4080
(lp4081
Vfind
p4082
asS'1115'
p4083
(lp4084
Vits
p4085
asS'1114'
p4086
(lp4087
Vstaff
p4088
asS'1117'
p4089
(lp4090
Vthe
p4091
asS'1116'
p4092
(lp4093
Vzucchini
p4094
asS'1119'
p4095
(lp4096
Vthe
p4097
asS'1118'
p4098
(lp4099
Vhe
p4100
asS'1351'
p4101
(lp4102
g9
asS'1449'
p4103
(lp4104
Vgo
p4105
asS'1448'
p4106
(lp4107
Vripoff
p4108
asS'1350'
p4109
(lp4110
g9
asS'2401'
p4111
(lp4112
g9
asS'450'
p4113
(lp4114
Vtender
p4115
asS'460'
p4116
(lp4117
Vpleasantly
p4118
asS'463'
p4119
(lp4120
g9
asS'489'
p4121
(lp4122
Voriginal
p4123
asS'488'
p4124
(lp4125
Vmore
p4126
asS'487'
p4127
(lp4128
Vpickles
p4129
asS'486'
p4130
(lp4131
Vmy
p4132
asS'485'
p4133
(lp4134
Vreally
p4135
asS'484'
p4136
(lp4137
Vonce
p4138
asS'483'
p4139
(lp4140
Vof
p4141
asS'482'
p4142
(lp4143
Vplace
p4144
asS'481'
p4145
(lp4146
Vgallery
p4147
asS'480'
p4148
(lp4149
Vare
p4150
asS'790'
p4151
(lp4152
g9
asS'695'
p4153
(lp4154
Vwait
p4155
asS'723'
p4156
(lp4157
Vcame
p4158
asS'124'
p4159
(lp4160
VThe
p4161
asS'992'
p4162
(lp4163
Vkeep
p4164
asS'2898'
p4165
(lp4166
Vwas
p4167
asS'3665'
p4168
(lp4169
Vromantic
p4170
asS'199'
p4171
(lp4172
Vthe
p4173
asS'198'
p4174
(lp4175
Vthe
p4176
asS'2289'
p4177
(lp4178
VThe
p4179
asS'195'
p4180
(lp4181
VIf
p4182
asS'194'
p4183
(lp4184
Vname
p4185
asS'197'
p4186
(lp4187
Vtimes
p4188
asS'196'
p4189
(lp4190
Vmore
p4191
asS'191'
p4192
(lp4193
Vthe
p4194
asS'190'
p4195
(lp4196
Vnot
p4197
asS'193'
p4198
(lp4199
Vis
p4200
asS'192'
p4201
(lp4202
g9
asS'3679'
p4203
(lp4204
V!!
p4205
asS'3672'
p4206
(lp4207
Vmy
p4208
asS'3670'
p4209
(lp4210
Vwine
p4211
asS'3671'
p4212
(lp4213
Vmy
p4214
asS'3676'
p4215
(lp4216
Vbread
p4217
asS'3677'
p4218
(lp4219
Vplentiful
p4220
asS'3675'
p4221
(lp4222
Vhusband
p4223
asS'2547'
p4224
(lp4225
Vcalled
p4226
asS'2546'
p4227
(lp4228
Vthe
p4229
asS'2545'
p4230
(lp4231
g9
asS'2544'
p4232
(lp4233
Vthink
p4234
asS'2549'
p4235
(lp4236
Vfriendly
p4237
asS'2548'
p4238
(lp4239
Vorder
p4240
asS'1456'
p4241
(lp4242
Vrestaurants
p4243
asS'2381'
p4244
(lp4245
Vthose
p4246
asS'2380'
p4247
(lp4248
Vwrote
p4249
asS'2382'
p4250
(lp4251
VIf
p4252
asS'2385'
p4253
(lp4254
Vcome
p4255
asS'2384'
p4256
(lp4257
Vfried
p4258
asS'2387'
p4259
(lp4260
Vorders
p4261
asS'2386'
p4262
(lp4263
Vthan
p4264
asS'2389'
p4265
(lp4266
Vmore
p4267
asS'2388'
p4268
(lp4269
Vbad
p4270
asS'3580'
p4271
(lp4272
VRoxy
p4273
asS'3581'
p4274
(lp4275
Vcheeseburgers
p4276
asS'3582'
p4277
(lp4278
Vthe
p4279
asS'2768'
p4280
(lp4281
Vsituated
p4282
asS'3584'
p4283
(lp4284
Vwere
p4285
asS'3585'
p4286
(lp4287
Vroll
p4288
asS'3587'
p4289
(lp4290
Vmy
p4291
asS'3588'
p4292
(lp4293
Vyork
p4294
asS'3589'
p4295
(lp4296
Vget
p4297
asS'2767'
p4298
(lp4299
Vbite
p4300
asS'2766'
p4301
(lp4302
Vdisappointment
p4303
asS'2765'
p4304
(lp4305
VManhattan
p4306
asS'2764'
p4307
(lp4308
Vbene
p4309
asS'902'
p4310
(lp4311
Vfirst
p4312
asS'903'
p4313
(lp4314
VOrsay
p4315
asS'900'
p4316
(lp4317
g9
asS'901'
p4318
(lp4319
Vthan
p4320
asS'906'
p4321
(lp4322
Vfirst
p4323
asS'907'
p4324
(lp4325
Vonce
p4326
asS'904'
p4327
(lp4328
V8th
p4329
asS'905'
p4330
(lp4331
Vthrow
p4332
asS'1843'
p4333
(lp4334
Vpresentation
p4335
asS'1842'
p4336
(lp4337
Vcan
p4338
asS'1841'
p4339
(lp4340
Vtry
p4341
asS'1840'
p4342
(lp4343
g9
asS'1846'
p4344
(lp4345
Vside
p4346
asS'1845'
p4347
(lp4348
Vhad
p4349
asS'1844'
p4350
(lp4351
Vdrinks
p4352
asS'3250'
p4353
(lp4354
Vthe
p4355
asS'2169'
p4356
(lp4357
Vthese
p4358
asS'2168'
p4359
(lp4360
g9
asS'2165'
p4361
(lp4362
g9
asS'2164'
p4363
(lp4364
Vgem
p4365
asS'2167'
p4366
(lp4367
Vcream
p4368
asS'2166'
p4369
(lp4370
Vsoft
p4371
asS'2161'
p4372
(lp4373
Vlox
p4374
asS'2160'
p4375
(lp4376
Vcream
p4377
asS'2163'
p4378
(lp4379
Vfirst
p4380
asS'2162'
p4381
(lp4382
VHighly
p4383
asS'2617'
p4384
(lp4385
Vdied
p4386
asS'2616'
p4387
(lp4388
Vhave
p4389
asS'2615'
p4390
(lp4391
Vtrip
p4392
asS'2614'
p4393
(lp4394
Vfirst
p4395
asS'2611'
p4396
(lp4397
VBest
p4398
asS'2610'
p4399
(lp4400
Vplace
p4401
asS'1946'
p4402
(lp4403
Vthose
p4404
asS'1947'
p4405
(lp4406
Vout
p4407
asS'3298'
p4408
(lp4409
Vspecial
p4410
asS'3299'
p4411
(lp4412
Vrestaurants
p4413
asS'1908'
p4414
(lp4415
Vmust
p4416
asS'1909'
p4417
(lp4418
Vwas
p4419
asS'3294'
p4420
(lp4421
Vcelebrate
p4422
asS'1907'
p4423
(lp4424
Vglasses
p4425
asS'1904'
p4426
(lp4427
Vcomplain
p4428
asS'3297'
p4429
(lp4430
VIf
p4431
asS'3290'
p4432
(lp4433
g9
asS'1903'
p4434
(lp4435
VMy
p4436
asS'3292'
p4437
(lp4438
g9
asS'3293'
p4439
(lp4440
Vhave
p4441
asS'3452'
p4442
(lp4443
Vout
p4444
asS'855'
p4445
(lp4446
VBut
p4447
asS'856'
p4448
(lp4449
Vthe
p4450
asS'3451'
p4451
(lp4452
Vwine
p4453
asS'3456'
p4454
(lp4455
Vpersonality
p4456
asS'3457'
p4457
(lp4458
Vmore
p4459
asS'3454'
p4460
(lp4461
Vtrout
p4462
asS'3455'
p4463
(lp4464
Vbank
p4465
asS'3458'
p4466
(lp4467
Vwait
p4468
asS'3459'
p4469
(lp4470
Vbest
p4471
asS'858'
p4472
(lp4473
Vminutes
p4474
asS'859'
p4475
(lp4476
Vreserve
p4477
asS'1186'
p4478
(lp4479
Vor
p4480
asS'425'
p4481
(lp4482
Vis
p4483
asS'740'
p4484
(lp4485
Vthe
p4486
asS'741'
p4487
(lp4488
Vtuna
p4489
asS'742'
p4490
(lp4491
Vthe
p4492
asS'743'
p4493
(lp4494
Vis
p4495
asS'744'
p4496
(lp4497
Vwas
p4498
asS'745'
p4499
(lp4500
Vwas
p4501
asS'746'
p4502
(lp4503
Vwith
p4504
asS'747'
p4505
(lp4506
VShe
p4507
asS'748'
p4508
(lp4509
Vthe
p4510
asS'749'
p4511
(lp4512
Vwith
p4513
asS'1799'
p4514
(lp4515
Vwaitress
p4516
asS'3063'
p4517
(lp4518
VFinally
p4519
asS'3062'
p4520
(lp4521
VAuthentic
p4522
asS'3061'
p4523
(lp4524
Vother
p4525
asS'3060'
p4526
(lp4527
VWorse
p4528
asS'3067'
p4529
(lp4530
Vwas
p4531
asS'2949'
p4532
(lp4533
Vroom
p4534
asS'3064'
p4535
(lp4536
Vif
p4537
asS'2947'
p4538
(lp4539
Vwas
p4540
asS'2946'
p4541
(lp4542
Vwine
p4543
asS'2945'
p4544
(lp4545
Vonce
p4546
asS'2944'
p4547
(lp4548
Vtimes
p4549
asS'2943'
p4550
(lp4551
g957
asS'2942'
p4552
(lp4553
g9
asS'2941'
p4554
(lp4555
Vranging
p4556
asS'2940'
p4557
(lp4558
Vnotch
p4559
asS'1050'
p4560
(lp4561
Vbest
p4562
asS'1051'
p4563
(lp4564
Vrestaurants
p4565
asS'1052'
p4566
(lp4567
Vcream
p4568
asS'1053'
p4569
(lp4570
Vwhipped
p4571
asS'1054'
p4572
(lp4573
Vwhich
p4574
asS'1055'
p4575
(lp4576
Vbagels
p4577
asS'1056'
p4578
(lp4579
Vthe
p4580
asS'1057'
p4581
(lp4582
V:
p4583
asS'1058'
p4584
(lp4585
g9
asS'1059'
p4586
(lp4587
Vout
p4588
asS'717'
p4589
(lp4590
Vmeal
p4591
asS'1692'
p4592
(lp4593
Vspecial
p4594
asS'1693'
p4595
(lp4596
Vmust
p4597
asS'1690'
p4598
(lp4599
Vout
p4600
asS'1691'
p4601
(lp4602
g9
asS'715'
p4603
(lp4604
VThai
p4605
asS'1698'
p4606
(lp4607
Vseveral
p4608
asS'1699'
p4609
(lp4610
Vfried
p4611
asS'1278'
p4612
(lp4613
Vpizza
p4614
asS'1279'
p4615
(lp4616
VPizza
p4617
asS'618'
p4618
(lp4619
VIf
p4620
asS'619'
p4621
(lp4622
Vhusband
p4623
asS'1270'
p4624
(lp4625
Vthai
p4626
asS'613'
p4627
(lp4628
VIf
p4629
asS'1272'
p4630
(lp4631
Vyou
p4632
asS'611'
p4633
(lp4634
Vlage
p4635
asS'616'
p4636
(lp4637
g9
asS'1275'
p4638
(lp4639
Vbuying
p4640
asS'614'
p4641
(lp4642
Veffects
p4643
asS'1277'
p4644
(lp4645
V's
p4646
asS'1795'
p4647
(lp4648
Vcool
p4649
asS'1794'
p4650
(lp4651
Vdrinks
p4652
asS'3119'
p4653
(lp4654
Vmaking
p4655
asS'3118'
p4656
(lp4657
Vdrinks
p4658
asS'3117'
p4659
(lp4660
Vwas
p4661
asS'3116'
p4662
(lp4663
Vimpressive
p4664
asS'3115'
p4665
(lp4666
Vpromptly
p4667
asS'3114'
p4668
(lp4669
Vthe
p4670
asS'3113'
p4671
(lp4672
Vfirst
p4673
asS'3112'
p4674
(lp4675
Vare
p4676
asS'3111'
p4677
(lp4678
Vreally
p4679
asS'1472'
p4680
(lp4681
Vrestaurants
p4682
asS'1473'
p4683
(lp4684
Vpizza
p4685
asS'1470'
p4686
(lp4687
Vpizza
p4688
asS'1471'
p4689
(lp4690
Veach
p4691
asS'1477'
p4692
(lp4693
Vorder
p4694
asS'1474'
p4695
(lp4696
Vthe
p4697
asS'1475'
p4698
(lp4699
Vdisappointment
p4700
asS'1478'
p4701
(lp4702
Vrestaurants
p4703
asS'1479'
p4704
(lp4705
Vwait
p4706
asS'3336'
p4707
(lp4708
Vout
p4709
asS'1304'
p4710
(lp4711
V-RRB-
p4712
asS'1305'
p4713
(lp4714
Vfact
p4715
asS'1306'
p4716
(lp4717
Vfirst
p4718
asS'1307'
p4719
(lp4720
Vchange
p4721
asS'1300'
p4722
(lp4723
Vfriend
p4724
asS'1301'
p4725
(lp4726
Vwas
p4727
asS'1302'
p4728
(lp4729
Vthink
p4730
asS'1303'
p4731
(lp4732
Vwith
p4733
asS'1497'
p4734
(lp4735
Vwaitress
p4736
asS'1309'
p4737
(lp4738
Vwas
p4739
asS'3590'
p4740
(lp4741
Vmore
p4742
asS'498'
p4743
(lp4744
g9
asS'499'
p4745
(lp4746
Vexperience
p4747
asS'494'
p4748
(lp4749
Vdogs
p4750
asS'495'
p4751
(lp4752
Vmore
p4753
asS'496'
p4754
(lp4755
Vsouth
p4756
asS'497'
p4757
(lp4758
Vvisiting
p4759
asS'490'
p4760
(lp4761
VIf
p4762
asS'491'
p4763
(lp4764
Vbread
p4765
asS'492'
p4766
(lp4767
Vmight
p4768
asS'493'
p4769
(lp4770
Vunforgetable
p4771
asS'24'
p4772
(lp4773
g9
asS'25'
p4774
(lp4775
VHAPPY
p4776
asS'21'
p4777
(lp4778
Vback
p4779
asS'28'
p4780
(lp4781
Vwas
p4782
asS'29'
p4783
(lp4784
Vroom
p4785
asS'3262'
p4786
(lp4787
VThey
p4788
asS'1705'
p4789
(lp4790
Vreally
p4791
asS'1601'
p4792
(lp4793
Ventrees
p4794
asS'1604'
p4795
(lp4796
VNaples
p4797
asS'3267'
p4798
(lp4799
VIf
p4800
asS'7'
p4801
(lp4802
VCafe
p4803
asS'2288'
p4804
(lp4805
Vgood
p4806
asS'3664'
p4807
(lp4808
Vnot
p4809
asS'3667'
p4810
(lp4811
Vthe
p4812
asS'3666'
p4813
(lp4814
VYes
p4815
asS'3661'
p4816
(lp4817
g9
asS'3660'
p4818
(lp4819
Vrestaurants
p4820
asS'3663'
p4821
(lp4822
Vthe
p4823
asS'3662'
p4824
(lp4825
Vthe
p4826
asS'2280'
p4827
(lp4828
Vrestuarant
p4829
asS'2281'
p4830
(lp4831
VIf
p4832
asS'2282'
p4833
(lp4834
Vbest
p4835
asS'2283'
p4836
(lp4837
g9
asS'3669'
p4838
(lp4839
Vwait
p4840
asS'2285'
p4841
(lp4842
Vis
p4843
asS'2286'
p4844
(lp4845
VQueens
p4846
asS'2287'
p4847
(lp4848
VBest
p4849
asS'1605'
p4850
(lp4851
Vpizza
p4852
asS'2578'
p4853
(lp4854
Vyour
p4855
asS'2579'
p4856
(lp4857
Vmust
p4858
asS'2576'
p4859
(lp4860
Vbest
p4861
asS'2577'
p4862
(lp4863
g9
asS'2574'
p4864
(lp4865
Vwhich
p4866
asS'2575'
p4867
(lp4868
g9
asS'2572'
p4869
(lp4870
g9
asS'2573'
p4871
(lp4872
Vsalads
p4873
asS'2570'
p4874
(lp4875
Vday
p4876
asS'2571'
p4877
(lp4878
g9
asS'3690'
p4879
(lp4880
Vthe
p4881
asS'2378'
p4882
(lp4883
Vtypical
p4884
asS'2379'
p4885
(lp4886
Vthats
p4887
asS'601'
p4888
(lp4889
Vreally
p4890
asS'2377'
p4891
(lp4892
Vwas
p4893
asS'2370'
p4894
(lp4895
Vblock
p4896
asS'2372'
p4897
(lp4898
Vhappy
p4899
asS'2594'
p4900
(lp4901
VConveniently
p4902
asS'2595'
p4903
(lp4904
Vyou
p4905
asS'2596'
p4906
(lp4907
Vgoing
p4908
asS'2597'
p4909
(lp4910
Vmy
p4911
asS'2590'
p4912
(lp4913
Vrestaurants
p4914
asS'2591'
p4915
(lp4916
g9
asS'2592'
p4917
(lp4918
VSaturday
p4919
asS'2593'
p4920
(lp4921
Vnice
p4922
asS'3599'
p4923
(lp4924
Vpizza
p4925
asS'3598'
p4926
(lp4927
g9
asS'2598'
p4928
(lp4929
g9
asS'2599'
p4930
(lp4931
Vcool
p4932
asS'1874'
p4933
(lp4934
Vwas
p4935
asS'1872'
p4936
(lp4937
Vquite
p4938
asS'1873'
p4939
(lp4940
Vflavor
p4941
asS'1870'
p4942
(lp4943
g9
asS'1871'
p4944
(lp4945
Vthink
p4946
asS'600'
p4947
(lp4948
Vthe
p4949
asS'1607'
p4950
(lp4951
Vyours
p4952
asS'1878'
p4953
(lp4954
Vwine
p4955
asS'1879'
p4956
(lp4957
Vdinnertime
p4958
asS'977'
p4959
(lp4960
Vare
p4961
asS'182'
p4962
(lp4963
g9
asS'974'
p4964
(lp4965
Vor
p4966
asS'973'
p4967
(lp4968
Vwhich
p4969
asS'972'
p4970
(lp4971
Vfact
p4972
asS'971'
p4973
(lp4974
Vsauce
p4975
asS'970'
p4976
(lp4977
Vwhole
p4978
asS'1080'
p4979
(lp4980
Vwas
p4981
asS'979'
p4982
(lp4983
Vpacked
p4984
asS'978'
p4985
(lp4986
Vyou
p4987
asS'2118'
p4988
(lp4989
Vfirst
p4990
asS'2119'
p4991
(lp4992
VMy
p4993
asS'180'
p4994
(lp4995
Vworth
p4996
asS'181'
p4997
(lp4998
Vwait
p4999
asS'186'
p5000
(lp5001
Vnice
p5002
asS'187'
p5003
(lp5004
Vpretty
p5005
asS'184'
p5006
(lp5007
Vkitchen
p5008
asS'185'
p5009
(lp5010
Vif
p5011
asS'2112'
p5012
(lp5013
Vfriend
p5014
asS'2113'
p5015
(lp5016
Vfirst
p5017
asS'2114'
p5018
(lp5019
Vrestaurant
p5020
asS'2115'
p5021
(lp5022
Vthe
p5023
asS'2116'
p5024
(lp5025
Vwhite
p5026
asS'1559'
p5027
(lp5028
Vturnover
p5029
asS'2622'
p5030
(lp5031
g9
asS'2623'
p5032
(lp5033
VIf
p5034
asS'2620'
p5035
(lp5036
Vfriendly
p5037
asS'2621'
p5038
(lp5039
Vdrinks
p5040
asS'2627'
p5041
(lp5042
Vnice
p5043
asS'2624'
p5044
(lp5045
Vwas
p5046
asS'60'
p5047
(lp5048
Vit
p5049
asS'1919'
p5050
(lp5051
Vyou
p5052
asS'1918'
p5053
(lp5054
Vquite
p5055
asS'3289'
p5056
(lp5057
Vbest
p5058
asS'3288'
p5059
(lp5060
Vmore
p5061
asS'1911'
p5062
(lp5063
Vwine
p5064
asS'1910'
p5065
(lp5066
Vexpensive
p5067
asS'3285'
p5068
(lp5069
g9
asS'1912'
p5070
(lp5071
g9
asS'3282'
p5072
(lp5073
Vwas
p5074
asS'3281'
p5075
(lp5076
Voften
p5077
asS'3280'
p5078
(lp5079
VExample
p5080
asS'869'
p5081
(lp5082
Vauthentic
p5083
asS'868'
p5084
(lp5085
g9
asS'189'
p5086
(lp5087
Vsoft
p5088
asS'861'
p5089
(lp5090
Vboyfriend
p5091
asS'860'
p5092
(lp5093
VHill
p5094
asS'863'
p5095
(lp5096
Vempty
p5097
asS'862'
p5098
(lp5099
g9
asS'865'
p5100
(lp5101
Vbread
p5102
asS'3440'
p5103
(lp5104
Vtoo
p5105
asS'3443'
p5106
(lp5107
g9
asS'3442'
p5108
(lp5109
Vcame
p5110
asS'2024'
p5111
(lp5112
Vduring
p5113
asS'2757'
p5114
(lp5115
VNo
p5116
asS'2026'
p5117
(lp5118
Vwine
p5119
asS'2027'
p5120
(lp5121
Vthe
p5122
asS'2020'
p5123
(lp5124
Vwith
p5125
asS'2753'
p5126
(lp5127
VIf
p5128
asS'2751'
p5129
(lp5130
Vgo
p5131
asS'2828'
p5132
(lp5133
Vthe
p5134
asS'2117'
p5135
(lp5136
Vthose
p5137
asS'2028'
p5138
(lp5139
VArtisanal
p5140
asS'2029'
p5141
(lp5142
Vproblem
p5143
asS'2829'
p5144
(lp5145
g9
asS'883'
p5146
(lp5147
Vbone
p5148
asS'882'
p5149
(lp5150
g9
asS'881'
p5151
(lp5152
Vthan
p5153
asS'880'
p5154
(lp5155
Vthe
p5156
asS'887'
p5157
(lp5158
Vrecognition
p5159
asS'885'
p5160
(lp5161
Vwas
p5162
asS'884'
p5163
(lp5164
VProbably
p5165
asS'889'
p5166
(lp5167
g9
asS'888'
p5168
(lp5169
Vleft
p5170
asS'3149'
p5171
(lp5172
Vbefore
p5173
asS'775'
p5174
(lp5175
Vthe
p5176
asS'774'
p5177
(lp5178
VFoos
p5179
asS'777'
p5180
(lp5181
Vwas
p5182
asS'776'
p5183
(lp5184
g9
asS'771'
p5185
(lp5186
Vexplanations
p5187
asS'770'
p5188
(lp5189
Vminutes
p5190
asS'773'
p5191
(lp5192
Vleft
p5193
asS'772'
p5194
(lp5195
Vreallocating
p5196
asS'779'
p5197
(lp5198
Vexpect
p5199
asS'778'
p5200
(lp5201
VThe
p5202
asS'419'
p5203
(lp5204
Vfriend
p5205
asS'77'
p5206
(lp5207
Vthe
p5208
asS'76'
p5209
(lp5210
Vcompelled
p5211
asS'2978'
p5212
(lp5213
Vresponse
p5214
asS'2979'
p5215
(lp5216
Vaweful
p5217
asS'72'
p5218
(lp5219
Vrestaurants
p5220
asS'3058'
p5221
(lp5222
Vare
p5223
asS'3059'
p5224
(lp5225
Vthe
p5226
asS'2972'
p5227
(lp5228
VFirst
p5229
asS'3057'
p5230
(lp5231
g9
asS'2970'
p5232
(lp5233
g9
asS'2971'
p5234
(lp5235
g9
asS'2976'
p5236
(lp5237
Vwine
p5238
asS'2977'
p5239
(lp5240
Vthe
p5241
asS'3050'
p5242
(lp5243
Vthe
p5244
asS'78'
p5245
(lp5246
Vtreated
p5247
asS'1041'
p5248
(lp5249
Vthe
p5250
asS'1040'
p5251
(lp5252
Vout
p5253
asS'1047'
p5254
(lp5255
Vthe
p5256
asS'1046'
p5257
(lp5258
Vdelicious
p5259
asS'1045'
p5260
(lp5261
Vroll
p5262
asS'1044'
p5263
(lp5264
Vwas
p5265
asS'1049'
p5266
(lp5267
Vrolls
p5268
asS'1681'
p5269
(lp5270
Vattractive
p5271
asS'1680'
p5272
(lp5273
Vbefore
p5274
asS'1683'
p5275
(lp5276
Vis
p5277
asS'1684'
p5278
(lp5279
Vmy
p5280
asS'1687'
p5281
(lp5282
g9
asS'1686'
p5283
(lp5284
Vspecial
p5285
asS'1689'
p5286
(lp5287
Vthe
p5288
asS'1688'
p5289
(lp5290
Vamazed
p5291
asS'1269'
p5292
(lp5293
VCARE
p5294
asS'2980'
p5295
(lp5296
Vwas
p5297
asS'669'
p5298
(lp5299
VBut
p5300
asS'668'
p5301
(lp5302
Vrestaurants
p5303
asS'667'
p5304
(lp5305
g9
asS'666'
p5306
(lp5307
g957
asS'665'
p5308
(lp5309
Vfirst
p5310
asS'664'
p5311
(lp5312
Vstaff
p5313
asS'663'
p5314
(lp5315
Vreally
p5316
asS'662'
p5317
(lp5318
Vthe
p5319
asS'661'
p5320
(lp5321
Vwait
p5322
asS'3022'
p5323
(lp5324
Vside
p5325
asS'3021'
p5326
(lp5327
Vstaff
p5328
asS'3095'
p5329
(lp5330
Vmalai
p5331
asS'2984'
p5332
(lp5333
Vdinner
p5334
asS'1913'
p5335
(lp5336
Vspecial
p5337
asS'3128'
p5338
(lp5339
Vmore
p5340
asS'3129'
p5341
(lp5342
Vthe
p5343
asS'3122'
p5344
(lp5345
Vout
p5346
asS'3123'
p5347
(lp5348
Vbasically
p5349
asS'3120'
p5350
(lp5351
Vca
p5352
asS'3121'
p5353
(lp5354
Vstaff
p5355
asS'3126'
p5356
(lp5357
Vtrouble
p5358
asS'3127'
p5359
(lp5360
Vincredibly
p5361
asS'1469'
p5362
(lp5363
Vpizza
p5364
asS'1468'
p5365
(lp5366
Vgo
p5367
asS'1465'
p5368
(lp5369
Vclientele
p5370
asS'1018'
p5371
(lp5372
Vbad
p5373
asS'1467'
p5374
(lp5375
Vtimes
p5376
asS'1916'
p5377
(lp5378
Vromantic
p5379
asS'1461'
p5380
(lp5381
Vrestaurants
p5382
asS'1460'
p5383
(lp5384
Vmore
p5385
asS'1462'
p5386
(lp5387
Varound
p5388
asS'1317'
p5389
(lp5390
Vare
p5391
asS'1316'
p5392
(lp5393
Vthan
p5394
asS'1315'
p5395
(lp5396
g9
asS'1314'
p5397
(lp5398
g9
asS'1313'
p5399
(lp5400
Vtoo
p5401
asS'1312'
p5402
(lp5403
Vleft
p5404
asS'1311'
p5405
(lp5406
g9
asS'1310'
p5407
(lp5408
g9
asS'1319'
p5409
(lp5410
Vfact
p5411
asS'1318'
p5412
(lp5413
Vthe
p5414
asS'767'
p5415
(lp5416
VIf
p5417
asS'1010'
p5418
(lp5419
Vwas
p5420
asS'464'
p5421
(lp5422
Vthe
p5423
asS'1011'
p5424
(lp5425
Vleft
p5426
asS'318'
p5427
(lp5428
Vif
p5429
asS'313'
p5430
(lp5431
Vvalue
p5432
asS'3441'
p5433
(lp5434
Vprice
p5435
asS'317'
p5436
(lp5437
VManhattan
p5438
asS'316'
p5439
(lp5440
g2603
asS'315'
p5441
(lp5442
Vtake
p5443
asS'864'
p5444
(lp5445
Vthe
p5446
asS'867'
p5447
(lp5448
Vgo
p5449
asS'1618'
p5450
(lp5451
Vthe
p5452
asS'866'
p5453
(lp5454
Vstaff
p5455
asS'2025'
p5456
(lp5457
g9
asS'2754'
p5458
(lp5459
Vfish
p5460
asS'1335'
p5461
(lp5462
Vthe
p5463
asS'1030'
p5464
(lp5465
Vfriendly
p5466
asS'1334'
p5467
(lp5468
VBy
p5469
asS'2752'
p5470
(lp5471
Vrestaurants
p5472
asS'1331'
p5473
(lp5474
Vif
p5475
asS'2698'
p5476
(lp5477
Vwas
p5478
asS'446'
p5479
(lp5480
Vguests
p5481
asS'2320'
p5482
(lp5483
Vfriendly
p5484
asS'2692'
p5485
(lp5486
Vstaff
p5487
asS'2461'
p5488
(lp5489
g9
asS'3610'
p5490
(lp5491
Vplace
p5492
asS'3611'
p5493
(lp5494
Vwith
p5495
asS'2299'
p5496
(lp5497
Vout
p5498
asS'3613'
p5499
(lp5500
Vby
p5501
asS'3617'
p5502
(lp5503
Vthe
p5504
asS'2293'
p5505
(lp5506
Varound
p5507
asS'3619'
p5508
(lp5509
Vmore
p5510
asS'2290'
p5511
(lp5512
VBest
p5513
asS'2297'
p5514
(lp5515
Vpizza
p5516
asS'2296'
p5517
(lp5518
g957
asS'2295'
p5519
(lp5520
Vpizza
p5521
asS'2294'
p5522
(lp5523
Vremember
p5524
asS'2569'
p5525
(lp5526
Vreading
p5527
asS'2568'
p5528
(lp5529
g9
asS'2560'
p5530
(lp5531
Vthe
p5532
asS'2563'
p5533
(lp5534
Vquick-cooked
p5535
asS'1615'
p5536
(lp5537
Vlike
p5538
asS'2567'
p5539
(lp5540
Vquality
p5541
asS'403'
p5542
(lp5543
V9.3
p5544
asS'908'
p5545
(lp5546
VNYC
p5547
asS'2369'
p5548
(lp5549
g9
asS'2367'
p5550
(lp5551
g9
asS'2366'
p5552
(lp5553
g9
asS'2365'
p5554
(lp5555
Vleft
p5556
asS'2364'
p5557
(lp5558
Vnice
p5559
asS'2363'
p5560
(lp5561
g9
asS'2361'
p5562
(lp5563
Vcelebrate
p5564
asS'2360'
p5565
(lp5566
Vroving
p5567
asS'2587'
p5568
(lp5569
Vreview
p5570
asS'2586'
p5571
(lp5572
Vlocals
p5573
asS'2585'
p5574
(lp5575
Vtoo
p5576
asS'2584'
p5577
(lp5578
Vfirst
p5579
asS'2582'
p5580
(lp5581
Vmore
p5582
asS'2581'
p5583
(lp5584
Vneed
p5585
asS'2580'
p5586
(lp5587
Vmust
p5588
asS'1612'
p5589
(lp5590
g9
asS'402'
p5591
(lp5592
VSpecial
p5593
asS'2589'
p5594
(lp5595
Vthe
p5596
asS'2588'
p5597
(lp5598
Vwaitress
p5599
asS'1861'
p5600
(lp5601
Vhusband
p5602
asS'1860'
p5603
(lp5604
Vprelude
p5605
asS'1865'
p5606
(lp5607
Vwine
p5608
asS'1867'
p5609
(lp5610
Vfirst
p5611
asS'1866'
p5612
(lp5613
Vwine
p5614
asS'1869'
p5615
(lp5616
Vthe
p5617
asS'1868'
p5618
(lp5619
Vhe
p5620
asS'964'
p5621
(lp5622
Vif
p5623
asS'965'
p5624
(lp5625
VOnce
p5626
asS'966'
p5627
(lp5628
Vquantity
p5629
asS'967'
p5630
(lp5631
Vallowed
p5632
asS'960'
p5633
(lp5634
Vsomething
p5635
asS'961'
p5636
(lp5637
Vof
p5638
asS'962'
p5639
(lp5640
Vreturned
p5641
asS'1613'
p5642
(lp5643
g9
asS'968'
p5644
(lp5645
Vmore
p5646
asS'969'
p5647
(lp5648
Vrolls
p5649
asS'2109'
p5650
(lp5651
Vloud
p5652
asS'2108'
p5653
(lp5654
Vmy
p5655
asS'2103'
p5656
(lp5657
Vyour
p5658
asS'2102'
p5659
(lp5660
Vis
p5661
asS'2101'
p5662
(lp5663
Vsmall
p5664
asS'2100'
p5665
(lp5666
Vmatter
p5667
asS'2107'
p5668
(lp5669
Vonce
p5670
asS'2105'
p5671
(lp5672
Vthe
p5673
asS'2104'
p5674
(lp5675
Vtypical
p5676
asS'2639'
p5677
(lp5678
VBass
p5679
asS'2638'
p5680
(lp5681
Vmeal
p5682
asS'635'
p5683
(lp5684
Vdine
p5685
asS'2635'
p5686
(lp5687
Vif
p5688
asS'2634'
p5689
(lp5690
Vbank
p5691
asS'2637'
p5692
(lp5693
Vmeal
p5694
asS'2636'
p5695
(lp5696
Vgirlfiends
p5697
asS'2631'
p5698
(lp5699
Vhusband
p5700
asS'2630'
p5701
(lp5702
Vloving
p5703
asS'3438'
p5704
(lp5705
Vouting
p5706
asS'3439'
p5707
(lp5708
Vfallback
p5709
asS'878'
p5710
(lp5711
Vat
p5712
asS'3093'
p5713
(lp5714
VWonderful
p5715
asS'876'
p5716
(lp5717
Vnoisy
p5718
asS'3431'
p5719
(lp5720
Vexpensive
p5721
asS'874'
p5722
(lp5723
Vsteak
p5724
asS'3433'
p5725
(lp5726
Vif
p5727
asS'3434'
p5728
(lp5729
Vwas
p5730
asS'3435'
p5731
(lp5732
Vreally
p5733
asS'870'
p5734
(lp5735
Vthe
p5736
asS'3437'
p5737
(lp5738
Vthe
p5739
asS'2741'
p5740
(lp5741
Vwas
p5742
asS'2036'
p5743
(lp5744
Vorder
p5745
asS'2035'
p5746
(lp5747
Vdrinks
p5748
asS'2742'
p5749
(lp5750
Vmartini
p5751
asS'2033'
p5752
(lp5753
VIf
p5754
asS'2747'
p5755
(lp5756
g9
asS'2030'
p5757
(lp5758
Vpairings
p5759
asS'9'
p5760
(lp5761
Vmore
p5762
asS'2748'
p5763
(lp5764
Vthe
p5765
asS'2039'
p5766
(lp5767
Vrice
p5768
asS'2038'
p5769
(lp5770
Vexpensive
p5771
asS'891'
p5772
(lp5773
Vthe
p5774
asS'892'
p5775
(lp5776
Vmeal
p5777
asS'894'
p5778
(lp5779
Vworth
p5780
asS'895'
p5781
(lp5782
Vnice
p5783
asS'896'
p5784
(lp5785
Vcold
p5786
asS'897'
p5787
(lp5788
VOrsay
p5789
asS'909'
p5790
(lp5791
g2603
asS'899'
p5792
(lp5793
Vwas
p5794
asS'1530'
p5795
(lp5796
Vthe
p5797
asS'3651'
p5798
(lp5799
g9
asS'783'
p5800
(lp5801
g9
asS'1968'
p5802
(lp5803
VDay
p5804
asS'1969'
p5805
(lp5806
Vwine
p5807
asS'3544'
p5808
(lp5809
VThe
p5810
asS'3545'
p5811
(lp5812
Vnearby
p5813
asS'3546'
p5814
(lp5815
Vrow
p5816
asS'3547'
p5817
(lp5818
VTaj
p5819
asS'3541'
p5820
(lp5821
Vspecial
p5822
asS'3542'
p5823
(lp5824
Vmistake
p5825
asS'3543'
p5826
(lp5827
Vtastes
p5828
asS'3235'
p5829
(lp5830
Vstaff
p5831
asS'1964'
p5832
(lp5833
Vdrinks
p5834
asS'422'
p5835
(lp5836
Vrecommend
p5837
asS'1965'
p5838
(lp5839
Vthe
p5840
asS'1966'
p5841
(lp5842
VIf
p5843
asS'3069'
p5844
(lp5845
Vfor
p5846
asS'2965'
p5847
(lp5848
Vout
p5849
asS'2964'
p5850
(lp5851
Vfeat
p5852
asS'2967'
p5853
(lp5854
Vrestaurants
p5855
asS'769'
p5856
(lp5857
Vweek
p5858
asS'2961'
p5859
(lp5860
Vauthentic
p5861
asS'2960'
p5862
(lp5863
Vis
p5864
asS'2963'
p5865
(lp5866
Vwine
p5867
asS'2962'
p5868
(lp5869
Vsteak
p5870
asS'1780'
p5871
(lp5872
VDespite
p5873
asS'1781'
p5874
(lp5875
Vmust
p5876
asS'760'
p5877
(lp5878
Vasian
p5879
asS'1783'
p5880
(lp5881
VYuka
p5882
asS'2969'
p5883
(lp5884
Vworth
p5885
asS'2968'
p5886
(lp5887
VNice
p5888
asS'764'
p5889
(lp5890
VChicken
p5891
asS'765'
p5892
(lp5893
Vwas
p5894
asS'3049'
p5895
(lp5896
VThe
p5897
asS'3048'
p5898
(lp5899
Vthrew
p5900
asS'3041'
p5901
(lp5902
Vtimes
p5903
asS'3040'
p5904
(lp5905
Vyou
p5906
asS'3043'
p5907
(lp5908
g9
asS'3042'
p5909
(lp5910
Vmeal
p5911
asS'3045'
p5912
(lp5913
g9
asS'3044'
p5914
(lp5915
Vchicken
p5916
asS'3047'
p5917
(lp5918
Vthe
p5919
asS'3046'
p5920
(lp5921
Vprevious
p5922
asS'1078'
p5923
(lp5924
Vthe
p5925
asS'1077'
p5926
(lp5927
Veat
p5928
asS'1074'
p5929
(lp5930
Vbuds
p5931
asS'1070'
p5932
(lp5933
Vreally
p5934
asS'1071'
p5935
(lp5936
Vreally
p5937
asS'1678'
p5938
(lp5939
VIf
p5940
asS'1679'
p5941
(lp5942
Vwith
p5943
asS'3030'
p5944
(lp5945
V2nd
p5946
asS'1674'
p5947
(lp5948
Vwas
p5949
asS'1675'
p5950
(lp5951
Vexpensive
p5952
asS'1676'
p5953
(lp5954
Vare
p5955
asS'1677'
p5956
(lp5957
Vstaff
p5958
asS'1670'
p5959
(lp5960
Vif
p5961
asS'1671'
p5962
(lp5963
Vwait
p5964
asS'1672'
p5965
(lp5966
Vawesome
p5967
asS'1673'
p5968
(lp5969
g9
asS'1094'
p5970
(lp5971
Vamazing
p5972
asS'1095'
p5973
(lp5974
V10
p5975
asS'1096'
p5976
(lp5977
Vmore
p5978
asS'1097'
p5979
(lp5980
Vfine
p5981
asS'678'
p5982
(lp5983
Vmeal
p5984
asS'679'
p5985
(lp5986
Vmore
p5987
asS'1092'
p5988
(lp5989
Vout
p5990
asS'1093'
p5991
(lp5992
Vrestaurants
p5993
asS'674'
p5994
(lp5995
Vwith
p5996
asS'675'
p5997
(lp5998
Vseafoods
p5999
asS'676'
p6000
(lp6001
Vflashy
p6002
asS'677'
p6003
(lp6004
g9
asS'1098'
p6005
(lp6006
Vtwice
p6007
asS'1099'
p6008
(lp6009
VOnce
p6010
asS'672'
p6011
(lp6012
Veat
p6013
asS'673'
p6014
(lp6015
Vout
p6016
asS'3135'
p6017
(lp6018
Vspecial
p6019
asS'3134'
p6020
(lp6021
Vthe
p6022
asS'3137'
p6023
(lp6024
Vif
p6025
asS'3136'
p6026
(lp6027
Vstaff
p6028
asS'3131'
p6029
(lp6030
Vthe
p6031
asS'3130'
p6032
(lp6033
Voily
p6034
asS'3133'
p6035
(lp6036
Vloud
p6037
asS'3139'
p6038
(lp6039
Vat
p6040
asS'3138'
p6041
(lp6042
Ventered
p6043
asS'1533'
p6044
(lp6045
g957
asS'1418'
p6046
(lp6047
Vnoted
p6048
asS'1419'
p6049
(lp6050
VThali
p6051
asS'1410'
p6052
(lp6053
g9
asS'1411'
p6054
(lp6055
Vrefilled
p6056
asS'1412'
p6057
(lp6058
g9
asS'1413'
p6059
(lp6060
Vor
p6061
asS'1414'
p6062
(lp6063
g9
asS'1415'
p6064
(lp6065
Vlousy
p6066
asS'1416'
p6067
(lp6068
Vreally
p6069
asS'1417'
p6070
(lp6071
Vasked
p6072
asS'1322'
p6073
(lp6074
Vbest
p6075
asS'1323'
p6076
(lp6077
Vrestaurants
p6078
asS'1320'
p6079
(lp6080
Vare
p6081
asS'1321'
p6082
(lp6083
Vbest
p6084
asS'1326'
p6085
(lp6086
Vwas
p6087
asS'1327'
p6088
(lp6089
Vseemed
p6090
asS'1324'
p6091
(lp6092
Vmust
p6093
asS'1325'
p6094
(lp6095
Vreally
p6096
asS'1328'
p6097
(lp6098
Vcalled
p6099
asS'1329'
p6100
(lp6101
Vat
p6102
asS'5'
p6103
(lp6104
Vout-of-towners
p6105
asS'1531'
p6106
(lp6107
Vhave
p6108
asS'1917'
p6109
(lp6110
Vthe
p6111
asS'3618'
p6112
(lp6113
Vgenuinely
p6114
asS'1254'
p6115
(lp6116
VThai
p6117
asS'1527'
p6118
(lp6119
V50
p6120
asS'1250'
p6121
(lp6122
Vfriend
p6123
asS'1528'
p6124
(lp6125
Vhappy
p6126
asS'308'
p6127
(lp6128
Vprevious
p6129
asS'309'
p6130
(lp6131
Vstaff
p6132
asS'300'
p6133
(lp6134
Vhad
p6135
asS'301'
p6136
(lp6137
Vthe
p6138
asS'302'
p6139
(lp6140
Vsuch
p6141
asS'303'
p6142
(lp6143
Vonce
p6144
asS'304'
p6145
(lp6146
Vis
p6147
asS'305'
p6148
(lp6149
VThe
p6150
asS'306'
p6151
(lp6152
VThe
p6153
asS'307'
p6154
(lp6155
Vreasonably
p6156
asS'1626'
p6157
(lp6158
g9
asS'75'
p6159
(lp6160
VHIGHLY
p6161
asS'2399'
p6162
(lp6163
Vwith
p6164
asS'71'
p6165
(lp6166
VPizza
p6167
asS'70'
p6168
(lp6169
Vother
p6170
asS'3415'
p6171
(lp6172
Vout
p6173
asS'3056'
p6174
(lp6175
Vacross
p6176
asS'989'
p6177
(lp6178
Vview
p6179
asS'2973'
p6180
(lp6181
Vor
p6182
asS'1447'
p6183
(lp6184
VHe
p6185
asS'3052'
p6186
(lp6187
VOnce
p6188
asS'3053'
p6189
(lp6190
Vflair
p6191
asS'2974'
p6192
(lp6193
Vbet
p6194
asS'3051'
p6195
(lp6196
Vplace
p6197
asS'3603'
p6198
(lp6199
Vpizza
p6200
asS'3602'
p6201
(lp6202
g9
asS'3601'
p6203
(lp6204
Vpizza
p6205
asS'3600'
p6206
(lp6207
Vstill
p6208
asS'3607'
p6209
(lp6210
Vcheesy
p6211
asS'3606'
p6212
(lp6213
Vreally
p6214
asS'3605'
p6215
(lp6216
Vfine
p6217
asS'3604'
p6218
(lp6219
Vbest
p6220
asS'3609'
p6221
(lp6222
g9
asS'3608'
p6223
(lp6224
Vreally
p6225
asS'3413'
p6226
(lp6227
Vstaff
p6228
asS'2479'
p6229
(lp6230
VBread
p6231
asS'2478'
p6232
(lp6233
Vwith
p6234
asS'470'
p6235
(lp6236
Vdisapointed
p6237
asS'2990'
p6238
(lp6239
Vwas
p6240
asS'2359'
p6241
(lp6242
VThe
p6243
asS'2350'
p6244
(lp6245
Vboyfriend
p6246
asS'2356'
p6247
(lp6248
V'em
p6249
asS'2355'
p6250
(lp6251
VThe
p6252
asS'2991'
p6253
(lp6254
Vthe
p6255
asS'1899'
p6256
(lp6257
Vthose
p6258
asS'1894'
p6259
(lp6260
Vefficiently
p6261
asS'1890'
p6262
(lp6263
Vwas
p6264
asS'1891'
p6265
(lp6266
Vreally
p6267
asS'1893'
p6268
(lp6269
g9
asS'2136'
p6270
(lp6271
Vwas
p6272
asS'2137'
p6273
(lp6274
Vpot
p6275
asS'2134'
p6276
(lp6277
Vthe
p6278
asS'2135'
p6279
(lp6280
Vthe
p6281
asS'2132'
p6282
(lp6283
Vdrinks
p6284
asS'2133'
p6285
(lp6286
Vdrinks
p6287
asS'2130'
p6288
(lp6289
Vor
p6290
asS'2131'
p6291
(lp6292
Vin
p6293
asS'951'
p6294
(lp6295
Vthink
p6296
asS'950'
p6297
(lp6298
Vshooed
p6299
asS'953'
p6300
(lp6301
Vrestaurants
p6302
asS'952'
p6303
(lp6304
Vleft
p6305
asS'955'
p6306
(lp6307
g9
asS'954'
p6308
(lp6309
Vby
p6310
asS'2138'
p6311
(lp6312
Vfind
p6313
asS'2139'
p6314
(lp6315
Vmid-town
p6316
asS'2648'
p6317
(lp6318
VThe
p6319
asS'2649'
p6320
(lp6321
Vplace
p6322
asS'2640'
p6323
(lp6324
Vabout
p6325
asS'2641'
p6326
(lp6327
Vtrip
p6328
asS'2642'
p6329
(lp6330
Vor
p6331
asS'2643'
p6332
(lp6333
Vrestaurants
p6334
asS'2644'
p6335
(lp6336
Velegantly
p6337
asS'2645'
p6338
(lp6339
Vcurry
p6340
asS'2646'
p6341
(lp6342
Vwine
p6343
asS'2647'
p6344
(lp6345
Vstaff
p6346
asS'3429'
p6347
(lp6348
VWent
p6349
asS'3428'
p6350
(lp6351
g9
asS'3423'
p6352
(lp6353
VFANTASTIC
p6354
asS'3422'
p6355
(lp6356
VHall
p6357
asS'3421'
p6358
(lp6359
g9
asS'3420'
p6360
(lp6361
Vgenuinely
p6362
asS'3426'
p6363
(lp6364
Vsaw
p6365
asS'3425'
p6366
(lp6367
Vwas
p6368
asS'3424'
p6369
(lp6370
Vhusband
p6371
asS'2002'
p6372
(lp6373
Vat
p6374
asS'2003'
p6375
(lp6376
Vany
p6377
asS'2000'
p6378
(lp6379
Vonce
p6380
asS'2001'
p6381
(lp6382
Vdrinks
p6383
asS'2006'
p6384
(lp6385
Vyet
p6386
asS'2007'
p6387
(lp6388
VThe
p6389
asS'2004'
p6390
(lp6391
Vdefinitely
p6392
asS'2005'
p6393
(lp6394
Vspecial
p6395
asS'2008'
p6396
(lp6397
Vmeal
p6398
asS'2009'
p6399
(lp6400
Vmy
p6401
asS'2034'
p6402
(lp6403
Vcalled
p6404
asS'1544'
p6405
(lp6406
Vcould
p6407
asS'1268'
p6408
(lp6409
Vcurry
p6410
asS'3026'
p6411
(lp6412
Vthe
p6413
asS'3557'
p6414
(lp6415
Vunderdeserving
p6416
asS'3556'
p6417
(lp6418
g9
asS'3555'
p6419
(lp6420
Vwith
p6421
asS'3554'
p6422
(lp6423
Vif
p6424
asS'3553'
p6425
(lp6426
g9
asS'3551'
p6427
(lp6428
Vspice
p6429
asS'3558'
p6430
(lp6431
Vcan
p6432
asS'919'
p6433
(lp6434
Vmy
p6435
asS'2997'
p6436
(lp6437
g9
asS'918'
p6438
(lp6439
g9
asS'2910'
p6440
(lp6441
g9
asS'2911'
p6442
(lp6443
Vsize
p6444
asS'2912'
p6445
(lp6446
Vfreshest
p6447
asS'1798'
p6448
(lp6449
Vkitchen
p6450
asS'2914'
p6451
(lp6452
g133
asS'2915'
p6453
(lp6454
Vagree
p6455
asS'719'
p6456
(lp6457
Vdrinks
p6458
asS'718'
p6459
(lp6460
Vout
p6461
asS'1793'
p6462
(lp6463
Vtalk
p6464
asS'1792'
p6465
(lp6466
Vstaff
p6467
asS'1791'
p6468
(lp6469
g9
asS'714'
p6470
(lp6471
Vambient
p6472
asS'1797'
p6473
(lp6474
Vnice
p6475
asS'712'
p6476
(lp6477
Vof
p6478
asS'711'
p6479
(lp6480
Vhaving
p6481
asS'710'
p6482
(lp6483
Vthai
p6484
asS'716'
p6485
(lp6486
g9
asS'660'
p6487
(lp6488
Vmore
p6489
asS'917'
p6490
(lp6491
Vwas
p6492
asS'1069'
p6493
(lp6494
Vcream
p6495
asS'1068'
p6496
(lp6497
Vout
p6498
asS'2179'
p6499
(lp6500
VMy
p6501
asS'1061'
p6502
(lp6503
Vfriendly
p6504
asS'1060'
p6505
(lp6506
Vbit
p6507
asS'1063'
p6508
(lp6509
g9
asS'1062'
p6510
(lp6511
Vmake
p6512
asS'1065'
p6513
(lp6514
Vreally
p6515
asS'1064'
p6516
(lp6517
Vquick
p6518
asS'1067'
p6519
(lp6520
VTal
p6521
asS'1066'
p6522
(lp6523
VOther
p6524
asS'1669'
p6525
(lp6526
Vor
p6527
asS'1668'
p6528
(lp6529
Vby
p6530
asS'1667'
p6531
(lp6532
Vor
p6533
asS'1666'
p6534
(lp6535
Vwait
p6536
asS'1665'
p6537
(lp6538
g9
asS'1664'
p6539
(lp6540
Vwait
p6541
asS'1663'
p6542
(lp6543
Vmy
p6544
asS'1662'
p6545
(lp6546
Veat
p6547
asS'1661'
p6548
(lp6549
VYou
p6550
asS'1660'
p6551
(lp6552
Vwith
p6553
asS'1087'
p6554
(lp6555
Vgreasy
p6556
asS'1086'
p6557
(lp6558
Vstock
p6559
asS'593'
p6560
(lp6561
g9
asS'592'
p6562
(lp6563
Vwait
p6564
asS'595'
p6565
(lp6566
VIf
p6567
asS'594'
p6568
(lp6569
Vthe
p6570
asS'597'
p6571
(lp6572
Vkicks
p6573
asS'596'
p6574
(lp6575
Vspecial
p6576
asS'599'
p6577
(lp6578
VItalian
p6579
asS'598'
p6580
(lp6581
Vunheralded
p6582
asS'1089'
p6583
(lp6584
Vare
p6585
asS'1088'
p6586
(lp6587
Vpopcorn
p6588
asS'3140'
p6589
(lp6590
Vis
p6591
asS'3141'
p6592
(lp6593
Vthe
p6594
asS'3142'
p6595
(lp6596
Vthought
p6597
asS'3144'
p6598
(lp6599
Vthe
p6600
asS'3145'
p6601
(lp6602
Vwas
p6603
asS'3146'
p6604
(lp6605
Vrevisiting
p6606
asS'3147'
p6607
(lp6608
Vdisappointed
p6609
asS'3148'
p6610
(lp6611
Vshe
p6612
asS'2825'
p6613
(lp6614
g133
asS'2826'
p6615
(lp6616
Vmore
p6617
asS'2827'
p6618
(lp6619
Vthe
p6620
asS'2822'
p6621
(lp6622
Vguests
p6623
asS'2823'
p6624
(lp6625
Vservice
p6626
asS'3384'
p6627
(lp6628
g9
asS'3382'
p6629
(lp6630
VThe
p6631
asS'3383'
p6632
(lp6633
Vwine
p6634
asS'3380'
p6635
(lp6636
Vspecial
p6637
asS'3381'
p6638
(lp6639
Vreally
p6640
asS'3388'
p6641
(lp6642
Vthe
p6643
asS'713'
p6644
(lp6645
Vyou
p6646
asS'1409'
p6647
(lp6648
Vhad
p6649
asS'1408'
p6650
(lp6651
g9
asS'1403'
p6652
(lp6653
Vmy
p6654
asS'1402'
p6655
(lp6656
g9
asS'1401'
p6657
(lp6658
Vthumbs
p6659
asS'1400'
p6660
(lp6661
Vplace
p6662
asS'1407'
p6663
(lp6664
Vif
p6665
asS'1404'
p6666
(lp6667
Vauthentic
p6668
asS'1546'
p6669
(lp6670
Vdeli
p6671
asS'449'
p6672
(lp6673
Vpizza
p6674
asS'448'
p6675
(lp6676
Vthin
p6677
asS'1339'
p6678
(lp6679
VWent
p6680
asS'1338'
p6681
(lp6682
Vthe
p6683
asS'1491'
p6684
(lp6685
VThe
p6686
asS'693'
p6687
(lp6688
Vcool
p6689
asS'443'
p6690
(lp6691
Vbaked
p6692
asS'442'
p6693
(lp6694
VIf
p6695
asS'441'
p6696
(lp6697
g9
asS'440'
p6698
(lp6699
Vrestaurants
p6700
asS'447'
p6701
(lp6702
Vmore
p6703
asS'1330'
p6704
(lp6705
Vtook
p6706
asS'445'
p6707
(lp6708
Vmore
p6709
asS'444'
p6710
(lp6711
Vthan
p6712
asS'1545'
p6713
(lp6714
Vsaying
p6715
asS'696'
p6716
(lp6717
Vat
p6718
asS'1631'
p6719
(lp6720
Votherwise
p6721
asS'697'
p6722
(lp6723
VSaul
p6724
asS'1933'
p6725
(lp6726
VThrew
p6727
asS'39'
p6728
(lp6729
Vcame
p6730
asS'38'
p6731
(lp6732
Vmean
p6733
asS'1540'
p6734
(lp6735
Vtuna
p6736
asS'1932'
p6737
(lp6738
g9
asS'30'
p6739
(lp6740
Vrecent
p6741
asS'37'
p6742
(lp6743
Vstaff
p6744
asS'36'
p6745
(lp6746
Vever
p6747
asS'35'
p6748
(lp6749
g9
asS'34'
p6750
(lp6751
Vthe
p6752
asS'1537'
p6753
(lp6754
Vat
p6755
asS'1240'
p6756
(lp6757
VApparently
p6758
asS'1535'
p6759
(lp6760
Vyour
p6761
asS'1242'
p6762
(lp6763
Vwas
p6764
asS'645'
p6765
(lp6766
Vtreated
p6767
asS'1244'
p6768
(lp6769
Vhappened
p6770
asS'647'
p6771
(lp6772
Vthe
p6773
asS'646'
p6774
(lp6775
Vmore
p6776
asS'649'
p6777
(lp6778
VIf
p6779
asS'648'
p6780
(lp6781
Vwonder
p6782
asS'3098'
p6783
(lp6784
Vdrinks
p6785
asS'1539'
p6786
(lp6787
Vwhole
p6788
asS'1538'
p6789
(lp6790
Vout
p6791
asS'339'
p6792
(lp6793
Vwas
p6794
asS'338'
p6795
(lp6796
Vthe
p6797
asS'335'
p6798
(lp6799
Vthe
p6800
asS'334'
p6801
(lp6802
Vthe
p6803
asS'337'
p6804
(lp6805
Vever
p6806
asS'336'
p6807
(lp6808
Vrecommend
p6809
asS'331'
p6810
(lp6811
Vrestaurant
p6812
asS'330'
p6813
(lp6814
VYou
p6815
asS'333'
p6816
(lp6817
Vwas
p6818
asS'332'
p6819
(lp6820
Vfirst
p6821
asS'1633'
p6822
(lp6823
Vif
p6824
asS'543'
p6825
(lp6826
Vonce
p6827
asS'1901'
p6828
(lp6829
Vlots
p6830
asS'3467'
p6831
(lp6832
Vthe
p6833
asS'3464'
p6834
(lp6835
Vare
p6836
asS'1085'
p6837
(lp6838
Vdevoured
p6839
asS'8'
p6840
(lp6841
Vthe
p6842
asS'3463'
p6843
(lp6844
Vsomewhere
p6845
asS'1496'
p6846
(lp6847
Vsat
p6848
asS'842'
p6849
(lp6850
Vwith
p6851
asS'1466'
p6852
(lp6853
Vside
p6854
asS'841'
p6855
(lp6856
Vout
p6857
asS'840'
p6858
(lp6859
Vwas
p6860
asS'3375'
p6861
(lp6862
Vor
p6863
asS'2854'
p6864
(lp6865
Vwhy
p6866
asS'3638'
p6867
(lp6868
Vthe
p6869
asS'3639'
p6870
(lp6871
Vwas
p6872
asS'3636'
p6873
(lp6874
Vgrab
p6875
asS'3637'
p6876
(lp6877
Vnice
p6878
asS'3634'
p6879
(lp6880
Vdinner
p6881
asS'3635'
p6882
(lp6883
Vthank
p6884
asS'3632'
p6885
(lp6886
Vkitchen
p6887
asS'3633'
p6888
(lp6889
Vyou
p6890
asS'3630'
p6891
(lp6892
Vsorry
p6893
asS'3631'
p6894
(lp6895
Vpizza
p6896
asS'849'
p6897
(lp6898
Vwith
p6899
asS'848'
p6900
(lp6901
g9
asS'2347'
p6902
(lp6903
Vby
p6904
asS'2341'
p6905
(lp6906
Vpromptly.The
p6907
asS'2349'
p6908
(lp6909
Vtomatoes
p6910
asS'2348'
p6911
(lp6912
Vmy
p6913
asS'2469'
p6914
(lp6915
Vhappy
p6916
asS'2987'
p6917
(lp6918
Vas
p6919
asS'2067'
p6920
(lp6921
Vnice
p6922
asS'3708'
p6923
(lp6924
g9
asS'3709'
p6925
(lp6926
Vloved
p6927
asS'1889'
p6928
(lp6929
g9
asS'1888'
p6930
(lp6931
Vboyfriend
p6932
asS'1887'
p6933
(lp6934
Vthe
p6935
asS'3703'
p6936
(lp6937
VThey
p6938
asS'3700'
p6939
(lp6940
Vlocals
p6941
asS'1884'
p6942
(lp6943
Vto
p6944
asS'3706'
p6945
(lp6946
g9
asS'3707'
p6947
(lp6948
VBest
p6949
asS'3704'
p6950
(lp6951
Vnot
p6952
asS'3705'
p6953
(lp6954
g9
asS'2121'
p6955
(lp6956
Vwas
p6957
asS'2120'
p6958
(lp6959
Vmy
p6960
asS'2123'
p6961
(lp6962
Vsatisfied
p6963
asS'2122'
p6964
(lp6965
Vthe
p6966
asS'2125'
p6967
(lp6968
Vfreshest
p6969
asS'2124'
p6970
(lp6971
g9
asS'948'
p6972
(lp6973
Vtold
p6974
asS'949'
p6975
(lp6976
Vwine
p6977
asS'946'
p6978
(lp6979
Vdrinks
p6980
asS'2128'
p6981
(lp6982
g9
asS'944'
p6983
(lp6984
Vfriend
p6985
asS'1457'
p6986
(lp6987
Vorder
p6988
asS'942'
p6989
(lp6990
Vare
p6991
asS'943'
p6992
(lp6993
Vchoices
p6994
asS'940'
p6995
(lp6996
Vin
p6997
asS'941'
p6998
(lp6999
Vfriendly
p7000
asS'3038'
p7001
(lp7002
Vare
p7003
asS'1594'
p7004
(lp7005
Vwas
p7006
asS'642'
p7007
(lp7008
V!!!
p7009
asS'2653'
p7010
(lp7011
Vsize
p7012
asS'2652'
p7013
(lp7014
Vthe
p7015
asS'2651'
p7016
(lp7017
Vthe
p7018
asS'2650'
p7019
(lp7020
Vor
p7021
asS'2657'
p7022
(lp7023
Vwere
p7024
asS'2656'
p7025
(lp7026
Vleft
p7027
asS'2655'
p7028
(lp7029
Vmake
p7030
asS'2654'
p7031
(lp7032
Vlime
p7033
asS'133'
p7034
(lp7035
Vare
p7036
asS'132'
p7037
(lp7038
g957
asS'3414'
p7039
(lp7040
Vthe
p7041
asS'130'
p7042
(lp7043
Vis
p7044
asS'3412'
p7045
(lp7046
Vthe
p7047
asS'136'
p7048
(lp7049
Vquality
p7050
asS'3410'
p7051
(lp7052
Vmust
p7053
asS'134'
p7054
(lp7055
Vefficiently
p7056
asS'1931'
p7057
(lp7058
Vattentive
p7059
asS'139'
p7060
(lp7061
Vthe
p7062
asS'138'
p7063
(lp7064
Vmean
p7065
asS'3418'
p7066
(lp7067
Vadorn
p7068
asS'3419'
p7069
(lp7070
Vstill
p7071
asS'2019'
p7072
(lp7073
Vmy
p7074
asS'2018'
p7075
(lp7076
Vafter
p7077
asS'2015'
p7078
(lp7079
Vboyfriend
p7080
asS'2017'
p7081
(lp7082
Vcareful
p7083
asS'2016'
p7084
(lp7085
Vdip
p7086
asS'2011'
p7087
(lp7088
Vrestaurants
p7089
asS'2010'
p7090
(lp7091
Vnight
p7092
asS'2012'
p7093
(lp7094
Vacross
p7095
asS'2926'
p7096
(lp7097
Vdifficult
p7098
asS'183'
p7099
(lp7100
Vnice
p7101
asS'3562'
p7102
(lp7103
Vfirst
p7104
asS'3563'
p7105
(lp7106
Vrestaurants
p7107
asS'3561'
p7108
(lp7109
Vrestaurants
p7110
asS'3566'
p7111
(lp7112
Vthe
p7113
asS'3567'
p7114
(lp7115
Vfritter
p7116
asS'3564'
p7117
(lp7118
Vwait
p7119
asS'3565'
p7120
(lp7121
VTaj
p7122
asS'1590'
p7123
(lp7124
Vtime
p7125
asS'2903'
p7126
(lp7127
Vtimes
p7128
asS'2902'
p7129
(lp7130
Vonce
p7131
asS'2901'
p7132
(lp7133
Vthe
p7134
asS'2900'
p7135
(lp7136
Vthe
p7137
asS'2907'
p7138
(lp7139
Vfriendly
p7140
asS'709'
p7141
(lp7142
Vreally
p7143
asS'2905'
p7144
(lp7145
Vwine
p7146
asS'3035'
p7147
(lp7148
g9
asS'704'
p7149
(lp7150
VThai
p7151
asS'705'
p7152
(lp7153
Vmean
p7154
asS'2909'
p7155
(lp7156
g9
asS'2908'
p7157
(lp7158
Vrecommend
p7159
asS'700'
p7160
(lp7161
VManhattan
p7162
asS'701'
p7163
(lp7164
Vis
p7165
asS'702'
p7166
(lp7167
Vdrinks
p7168
asS'703'
p7169
(lp7170
Vthe
p7171
asS'89'
p7172
(lp7173
Vrestaurants
p7174
asS'1593'
p7175
(lp7176
Vwhole
p7177
asS'82'
p7178
(lp7179
Vwine
p7180
asS'83'
p7181
(lp7182
g9
asS'80'
p7183
(lp7184
VPLACE
p7185
asS'81'
p7186
(lp7187
Vguys
p7188
asS'87'
p7189
(lp7190
Vreviews
p7191
asS'84'
p7192
(lp7193
Vfirst
p7194
asS'85'
p7195
(lp7196
Vwith
p7197
asS'1743'
p7198
(lp7199
Vthe
p7200
asS'1659'
p7201
(lp7202
Vrelatively
p7203
asS'1652'
p7204
(lp7205
Vnice
p7206
asS'1653'
p7207
(lp7208
Vback
p7209
asS'1650'
p7210
(lp7211
Vyou
p7212
asS'1651'
p7213
(lp7214
Vcharged
p7215
asS'1656'
p7216
(lp7217
Vbest
p7218
asS'1654'
p7219
(lp7220
VJersey
p7221
asS'1655'
p7222
(lp7223
Vcan
p7224
asS'586'
p7225
(lp7226
Vwas
p7227
asS'3214'
p7228
(lp7229
Vthe
p7230
asS'584'
p7231
(lp7232
Vbest
p7233
asS'585'
p7234
(lp7235
Vluck
p7236
asS'582'
p7237
(lp7238
g9
asS'583'
p7239
(lp7240
Vonce
p7241
asS'580'
p7242
(lp7243
Vwith
p7244
asS'581'
p7245
(lp7246
Vback
p7247
asS'3216'
p7248
(lp7249
VThe
p7250
asS'588'
p7251
(lp7252
Vcool
p7253
asS'589'
p7254
(lp7255
VGoodfellas
p7256
asS'3150'
p7257
(lp7258
Vwas
p7259
asS'3157'
p7260
(lp7261
Vcream
p7262
asS'3156'
p7263
(lp7264
Vare
p7265
asS'3155'
p7266
(lp7267
Vaccurate
p7268
asS'3154'
p7269
(lp7270
Vmy
p7271
asS'1982'
p7272
(lp7273
Vthe
p7274
asS'2835'
p7275
(lp7276
Vby
p7277
asS'2834'
p7278
(lp7279
VAhhh
p7280
asS'2833'
p7281
(lp7282
Vwait
p7283
asS'2832'
p7284
(lp7285
Vfriendly
p7286
asS'2831'
p7287
(lp7288
V're
p7289
asS'2830'
p7290
(lp7291
VBart
p7292
asS'1436'
p7293
(lp7294
Vspecial
p7295
asS'1437'
p7296
(lp7297
Vmean
p7298
asS'3393'
p7299
(lp7300
Varent
p7301
asS'1435'
p7302
(lp7303
Vis
p7304
asS'1432'
p7305
(lp7306
Vbest
p7307
asS'1433'
p7308
(lp7309
Vby
p7310
asS'1430'
p7311
(lp7312
Vrestaurants
p7313
asS'3396'
p7314
(lp7315
Vonce
p7316
asS'418'
p7317
(lp7318
VThe
p7319
asS'3213'
p7320
(lp7321
Vout
p7322
asS'1438'
p7323
(lp7324
Vusual
p7325
asS'1439'
p7326
(lp7327
Vcalled
p7328
asS'1349'
p7329
(lp7330
Vor
p7331
asS'458'
p7332
(lp7333
VNice
p7334
asS'459'
p7335
(lp7336
Vorder
p7337
asS'1340'
p7338
(lp7339
Vor
p7340
asS'451'
p7341
(lp7342
Vmeal
p7343
asS'452'
p7344
(lp7345
VWaiters
p7346
asS'1343'
p7347
(lp7348
Vsweetness
p7349
asS'454'
p7350
(lp7351
g9
asS'1345'
p7352
(lp7353
VBarbecued
p7354
asS'1346'
p7355
(lp7356
Vat
p7357
asS'457'
p7358
(lp7359
Vitalian
p7360
asS'3702'
p7361
(lp7362
Vout
p7363
asS'1082'
p7364
(lp7365
Vthe
p7366
asS'1885'
p7367
(lp7368
Vwas
p7369
asS'766'
p7370
(lp7371
Vwas
p7372
asS'517'
p7373
(lp7374
Vwine
p7375
asS'3701'
p7376
(lp7377
Vare
p7378
asS'3368'
p7379
(lp7380
VIf
p7381
asS'1883'
p7382
(lp7383
g9
asS'832'
p7384
(lp7385
Veat
p7386
asS'1882'
p7387
(lp7388
Vsmall
p7389
asS'656'
p7390
(lp7391
Vmust
p7392
asS'657'
p7393
(lp7394
Vwait
p7395
asS'654'
p7396
(lp7397
VBEST
p7398
asS'655'
p7399
(lp7400
Vlike
p7401
asS'652'
p7402
(lp7403
Vexpensive
p7404
asS'1507'
p7405
(lp7406
g9
asS'650'
p7407
(lp7408
VOut
p7409
asS'651'
p7410
(lp7411
Vscampi
p7412
asS'3085'
p7413
(lp7414
VThe
p7415
asS'3084'
p7416
(lp7417
Vother
p7418
asS'3087'
p7419
(lp7420
Vfeeling
p7421
asS'3086'
p7422
(lp7423
Vpack
p7424
asS'3081'
p7425
(lp7426
Vwith
p7427
asS'3080'
p7428
(lp7429
Vstill
p7430
asS'3083'
p7431
(lp7432
Vwait
p7433
asS'3082'
p7434
(lp7435
Vrestaurant
p7436
asS'1886'
p7437
(lp7438
g9
asS'314'
p7439
(lp7440
Voysters
p7441
asS'1992'
p7442
(lp7443
Vthe
p7444
asS'2127'
p7445
(lp7446
Vspecial
p7447
asS'2126'
p7448
(lp7449
Vprices
p7450
asS'2129'
p7451
(lp7452
VKiller
p7453
asS'947'
p7454
(lp7455
Vnice
p7456
asS'945'
p7457
(lp7458
Vreally
p7459
asS'54'
p7460
(lp7461
Vis
p7462
asS'188'
p7463
(lp7464
Vthe
p7465
asS'1081'
p7466
(lp7467
Vmeal
p7468
asS'322'
p7469
(lp7470
Vexcited
p7471
asS'323'
p7472
(lp7473
Vthe
p7474
asS'321'
p7475
(lp7476
VCame
p7477
asS'327'
p7478
(lp7479
Vthink
p7480
asS'324'
p7481
(lp7482
Vmore
p7483
asS'328'
p7484
(lp7485
Vthe
p7486
asS'329'
p7487
(lp7488
Vsensual
p7489
asS'3629'
p7490
(lp7491
Vpizza
p7492
asS'3628'
p7493
(lp7494
Vspecial
p7495
asS'3621'
p7496
(lp7497
Vperfect
p7498
asS'564'
p7499
(lp7500
Vtold
p7501
asS'3623'
p7502
(lp7503
Veat
p7504
asS'3622'
p7505
(lp7506
g9
asS'3625'
p7507
(lp7508
Vnice
p7509
asS'3624'
p7510
(lp7511
g9
asS'3627'
p7512
(lp7513
Vif
p7514
asS'3626'
p7515
(lp7516
VIf
p7517
asS'1881'
p7518
(lp7519
g1141
asS'2330'
p7520
(lp7521
Vhe
p7522
asS'3070'
p7523
(lp7524
g9
asS'2332'
p7525
(lp7526
Vthe
p7527
asS'2333'
p7528
(lp7529
Vside
p7530
asS'2334'
p7531
(lp7532
Vare
p7533
asS'2335'
p7534
(lp7535
Vhigher
p7536
asS'2336'
p7537
(lp7538
Vtries
p7539
asS'2337'
p7540
(lp7541
Vfixe
p7542
asS'2338'
p7543
(lp7544
Vthe
p7545
asS'1341'
p7546
(lp7547
g9
asS'3072'
p7548
(lp7549
Vwas
p7550
asS'2537'
p7551
(lp7552
Vidle
p7553
asS'3073'
p7554
(lp7555
Vout
p7556
asS'1880'
p7557
(lp7558
Vthe
p7559
asS'1591'
p7560
(lp7561
Vshows
p7562
asS'2959'
p7563
(lp7564
Vthe
p7565
asS'3710'
p7566
(lp7567
Vmore
p7568
asS'3077'
p7569
(lp7570
g9
asS'3078'
p7571
(lp7572
Vto
p7573
asS'3079'
p7574
(lp7575
Vrestaurants
p7576
asS'2488'
p7577
(lp7578
VBread
p7579
asS'2486'
p7580
(lp7581
Vwas
p7582
asS'2487'
p7583
(lp7584
Vnearby
p7585
asS'2484'
p7586
(lp7587
Vbefore
p7588
asS'2485'
p7589
(lp7590
Vlacked
p7591
asS'2482'
p7592
(lp7593
Vthe
p7594
asS'2483'
p7595
(lp7596
Vmeal
p7597
asS'2248'
p7598
(lp7599
Vglad
p7600
asS'2249'
p7601
(lp7602
Vslightly
p7603
asS'2244'
p7604
(lp7605
VMUST
p7606
asS'2245'
p7607
(lp7608
Voverpriced
p7609
asS'2246'
p7610
(lp7611
Vgo
p7612
asS'2247'
p7613
(lp7614
V-LRB-
p7615
asS'2240'
p7616
(lp7617
Vbest
p7618
asS'2241'
p7619
(lp7620
Vif
p7621
asS'2242'
p7622
(lp7623
Vtoo
p7624
asS'2243'
p7625
(lp7626
Vfact
p7627
asS'2464'
p7628
(lp7629
VSPECIAL
p7630
asS'994'
p7631
(lp7632
g9
asS'2466'
p7633
(lp7634
Veons
p7635
asS'2467'
p7636
(lp7637
Vwine
p7638
asS'2460'
p7639
(lp7640
VMUST
p7641
asS'990'
p7642
(lp7643
Vif
p7644
asS'993'
p7645
(lp7646
Vcasual
p7647
asS'2463'
p7648
(lp7649
VYET
p7650
asS'999'
p7651
(lp7652
g957
asS'998'
p7653
(lp7654
Vout
p7655
asS'120'
p7656
(lp7657
VNew
p7658
asS'121'
p7659
(lp7660
Vopen
p7661
asS'122'
p7662
(lp7663
g9
asS'123'
p7664
(lp7665
VBella
p7666
asS'3405'
p7667
(lp7668
Vcheff
p7669
asS'3404'
p7670
(lp7671
Vhave
p7672
asS'126'
p7673
(lp7674
V's
p7675
asS'127'
p7676
(lp7677
VThe
p7678
asS'3409'
p7679
(lp7680
VSpice
p7681
asS'3408'
p7682
(lp7683
Vrestaurants
p7684
asS'1020'
p7685
(lp7686
Vluck
p7687
asS'3379'
p7688
(lp7689
VIf
p7690
asS'3417'
p7691
(lp7692
Vthe
p7693
asS'1921'
p7694
(lp7695
Vstaff
p7696
asS'3378'
p7697
(lp7698
Vsent
p7699
asS'131'
p7700
(lp7701
VUps
p7702
asS'2068'
p7703
(lp7704
Vpacked
p7705
asS'2069'
p7706
(lp7707
Vnearby
p7708
asS'2798'
p7709
(lp7710
Vhelps
p7711
asS'2799'
p7712
(lp7713
Vthe
p7714
asS'1187'
p7715
(lp7716
Vreally
p7717
asS'2792'
p7718
(lp7719
g9
asS'2061'
p7720
(lp7721
Vbut
p7722
asS'2062'
p7723
(lp7724
Vwas
p7725
asS'2791'
p7726
(lp7727
Vspecial
p7728
asS'2064'
p7729
(lp7730
Vsamosa
p7731
asS'2797'
p7732
(lp7733
Vyou
p7734
asS'2066'
p7735
(lp7736
Vpar
p7737
asS'2795'
p7738
(lp7739
g9
asS'1185'
p7740
(lp7741
Vor
p7742
asS'135'
p7743
(lp7744
Vare
p7745
asS'1182'
p7746
(lp7747
VI
p7748
asS'3411'
p7749
(lp7750
Vfriend
p7751
asS'1183'
p7752
(lp7753
VThe
p7754
asS'3371'
p7755
(lp7756
Vrestaurants
p7757
asS'1181'
p7758
(lp7759
Vmy
p7760
asS'3579'
p7761
(lp7762
Vpastries
p7763
asS'3578'
p7764
(lp7765
VAVOID
p7766
asS'3575'
p7767
(lp7768
Vby
p7769
asS'3574'
p7770
(lp7771
Vmore
p7772
asS'3577'
p7773
(lp7774
Vout
p7775
asS'3576'
p7776
(lp7777
Vyet
p7778
asS'3571'
p7779
(lp7780
Vmediocre
p7781
asS'3570'
p7782
(lp7783
Vthan
p7784
asS'3573'
p7785
(lp7786
Vare
p7787
asS'3572'
p7788
(lp7789
Vare
p7790
asS'2666'
p7791
(lp7792
Vdisappointing
p7793
asS'2667'
p7794
(lp7795
Vyour
p7796
asS'2664'
p7797
(lp7798
Vsurprised
p7799
asS'2665'
p7800
(lp7801
Vavoided
p7802
asS'2662'
p7803
(lp7804
g9
asS'2663'
p7805
(lp7806
VNYC
p7807
asS'722'
p7808
(lp7809
Voriginal
p7810
asS'2668'
p7811
(lp7812
Vmy
p7813
asS'2669'
p7814
(lp7815
Vbefore
p7816
asS'3668'
p7817
(lp7818
Vtell
p7819
asS'2938'
p7820
(lp7821
Vthe
p7822
asS'2939'
p7823
(lp7824
Vrestaurants
p7825
asS'2936'
p7826
(lp7827
Vbuds
p7828
asS'2937'
p7829
(lp7830
Vcalled
p7831
asS'2934'
p7832
(lp7833
Vwanted
p7834
asS'2935'
p7835
(lp7836
Vside
p7837
asS'2932'
p7838
(lp7839
Vthe
p7840
asS'2933'
p7841
(lp7842
Vthe
p7843
asS'2930'
p7844
(lp7845
Vspecial
p7846
asS'2931'
p7847
(lp7848
Vleft
p7849
asS'3595'
p7850
(lp7851
Vrefused
p7852
asS'1645'
p7853
(lp7854
Vthe
p7855
asS'1644'
p7856
(lp7857
VThe
p7858
asS'1647'
p7859
(lp7860
Vonce
p7861
asS'1646'
p7862
(lp7863
VFried
p7864
asS'1641'
p7865
(lp7866
Vthe
p7867
asS'1640'
p7868
(lp7869
Vyou
p7870
asS'1643'
p7871
(lp7872
Vthe
p7873
asS'1642'
p7874
(lp7875
Vstaff
p7876
asS'1649'
p7877
(lp7878
Vnice
p7879
asS'1648'
p7880
(lp7881
Vnice
p7882
asS'1742'
p7883
(lp7884
Vblock
p7885
asS'729'
p7886
(lp7887
VThe
p7888
asS'579'
p7889
(lp7890
g9
asS'604'
p7891
(lp7892
Vthe
p7893
asS'573'
p7894
(lp7895
Vwine
p7896
asS'572'
p7897
(lp7898
Vbest
p7899
asS'571'
p7900
(lp7901
Vmy
p7902
asS'570'
p7903
(lp7904
Vsat
p7905
asS'576'
p7906
(lp7907
Vfriend
p7908
asS'575'
p7909
(lp7910
Vthink
p7911
asS'574'
p7912
(lp7913
g9
asS'2808'
p7914
(lp7915
VThe
p7916
asS'2809'
p7917
(lp7918
Vone-hour
p7919
asS'3168'
p7920
(lp7921
Vout
p7922
asS'3169'
p7923
(lp7924
Vmore
p7925
asS'2802'
p7926
(lp7927
Vcasual
p7928
asS'2803'
p7929
(lp7930
VYokocho
p7931
asS'2800'
p7932
(lp7933
g9
asS'2801'
p7934
(lp7935
Vsake-friendly
p7936
asS'2806'
p7937
(lp7938
Vamazed
p7939
asS'2807'
p7940
(lp7941
Vever
p7942
asS'2804'
p7943
(lp7944
Vfind
p7945
asS'3161'
p7946
(lp7947
Vyet
p7948
asS'1421'
p7949
(lp7950
Vthe
p7951
asS'2154'
p7952
(lp7953
Vbest
p7954
asS'1997'
p7955
(lp7956
Vreally
p7957
asS'1425'
p7958
(lp7959
Vthe
p7960
asS'3369'
p7961
(lp7962
Vpleasantly
p7963
asS'1426'
p7964
(lp7965
Vwas
p7966
asS'1429'
p7967
(lp7968
Vflavor
p7969
asS'1428'
p7970
(lp7971
Vexpected
p7972
asS'3366'
p7973
(lp7974
Vpizza
p7975
asS'3367'
p7976
(lp7977
VBest
p7978
asS'3360'
p7979
(lp7980
Vyour
p7981
asS'2404'
p7982
(lp7983
g9
asS'3362'
p7984
(lp7985
Vlike
p7986
asS'3363'
p7987
(lp7988
Vonce
p7989
asS'731'
p7990
(lp7991
V!!
p7992
asS'730'
p7993
(lp7994
Vthe
p7995
asS'733'
p7996
(lp7997
Vfind
p7998
asS'2157'
p7999
(lp8000
Vmy
p8001
asS'737'
p8002
(lp8003
Vor
p8004
asS'736'
p8005
(lp8006
Vplace
p8007
asS'739'
p8008
(lp8009
Vwine
p8010
asS'738'
p8011
(lp8012
Vunaccommodating
p8013
asS'2151'
p8014
(lp8015
g133
asS'1358'
p8016
(lp8017
VReally
p8018
asS'469'
p8019
(lp8020
Vhusband
p8021
asS'468'
p8022
(lp8023
Vis
p8024
asS'1353'
p8025
(lp8026
VNolita
p8027
asS'1352'
p8028
(lp8029
Vthe
p8030
asS'467'
p8031
(lp8032
Vthe
p8033
asS'466'
p8034
(lp8035
Vthe
p8036
asS'461'
p8037
(lp8038
Vstaff
p8039
asS'1356'
p8040
(lp8041
Vcareer
p8042
asS'1355'
p8043
(lp8044
VDrinks
p8045
asS'608'
p8046
(lp8047
Vseemed
p8048
asS'1273'
p8049
(lp8050
Vpizza
p8051
asS'937'
p8052
(lp8053
VQUALITY
p8054
asS'936'
p8055
(lp8056
Vglasses
p8057
asS'1519'
p8058
(lp8059
Veuropean
p8060
asS'1518'
p8061
(lp8062
Vhaving
p8063
asS'1514'
p8064
(lp8065
Vare
p8066
asS'1517'
p8067
(lp8068
Vthe
p8069
asS'934'
p8070
(lp8071
Vwas
p8072
asS'1274'
p8073
(lp8074
Vmushroom
p8075
asS'1004'
p8076
(lp8077
Vtrip
p8078
asS'3184'
p8079
(lp8080
VThai
p8081
asS'3185'
p8082
(lp8083
Vnice
p8084
asS'3186'
p8085
(lp8086
Vstaff
p8087
asS'3187'
p8088
(lp8089
g9
asS'3180'
p8090
(lp8091
Vconcern
p8092
asS'3181'
p8093
(lp8094
Vn't
p8095
asS'3182'
p8096
(lp8097
g957
asS'3183'
p8098
(lp8099
Vthe
p8100
asS'3188'
p8101
(lp8102
g9
asS'3189'
p8103
(lp8104
Vthe
p8105
asS'3397'
p8106
(lp8107
Vcar
p8108
asS'355'
p8109
(lp8110
VLa
p8111
asS'353'
p8112
(lp8113
VMargarita
p8114
asS'352'
p8115
(lp8116
Va
p8117
asS'351'
p8118
(lp8119
g9
asS'350'
p8120
(lp8121
g9
asS'359'
p8122
(lp8123
Vpizza
p8124
asS'3107'
p8125
(lp8126
Vwait
p8127
asS'3612'
p8128
(lp8129
Vthe
p8130
asS'2298'
p8131
(lp8132
Vstaff
p8133
asS'2323'
p8134
(lp8135
V6.95
p8136
asS'2322'
p8137
(lp8138
Vwait
p8139
asS'2321'
p8140
(lp8141
Vnice
p8142
asS'2793'
p8143
(lp8144
Vever
p8145
asS'2325'
p8146
(lp8147
Vthe
p8148
asS'2324'
p8149
(lp8150
Vextremely
p8151
asS'2329'
p8152
(lp8153
Vyour
p8154
asS'2328'
p8155
(lp8156
Vthe
p8157
asS'289'
p8158
(lp8159
Vthe
p8160
asS'288'
p8161
(lp8162
VIf
p8163
asS'280'
p8164
(lp8165
Vfriendly
p8166
asS'282'
p8167
(lp8168
Vor
p8169
asS'285'
p8170
(lp8171
Vthe
p8172
asS'284'
p8173
(lp8174
VBeen
p8175
asS'287'
p8176
(lp8177
VBest
p8178
asS'1441'
p8179
(lp8180
Vshrimp
p8181
asS'1440'
p8182
(lp8183
Vunbearably
p8184
asS'263'
p8185
(lp8186
Vcozy
p8187
asS'262'
p8188
(lp8189
Vsmall
p8190
asS'261'
p8191
(lp8192
Vmy
p8193
asS'260'
p8194
(lp8195
Vwas
p8196
asS'267'
p8197
(lp8198
Vwith
p8199
asS'266'
p8200
(lp8201
Vstaff
p8202
asS'265'
p8203
(lp8204
Vextremely
p8205
asS'264'
p8206
(lp8207
VThe
p8208
asS'269'
p8209
(lp8210
Vgem
p8211
asS'268'
p8212
(lp8213
Vrestaurants
p8214
asS'1562'
p8215
(lp8216
Vplace
p8217
asS'2499'
p8218
(lp8219
Vdisappointed
p8220
asS'2498'
p8221
(lp8222
Vmeal
p8223
asS'2491'
p8224
(lp8225
Vdrinks
p8226
asS'1296'
p8227
(lp8228
Vthe
p8229
asS'2493'
p8230
(lp8231
g9
asS'2492'
p8232
(lp8233
VThe
p8234
asS'2495'
p8235
(lp8236
Vthe
p8237
asS'2494'
p8238
(lp8239
Vfirst
p8240
asS'2497'
p8241
(lp8242
VThai
p8243
asS'2496'
p8244
(lp8245
Vthe
p8246
asS'2193'
p8247
(lp8248
Vthai
p8249
asS'1566'
p8250
(lp8251
g9
asS'2259'
p8252
(lp8253
Voverflowing
p8254
asS'2258'
p8255
(lp8256
VKudos
p8257
asS'2257'
p8258
(lp8259
Vthey
p8260
asS'2256'
p8261
(lp8262
Vside
p8263
asS'2254'
p8264
(lp8265
Vwith
p8266
asS'2253'
p8267
(lp8268
Vgreen
p8269
asS'2252'
p8270
(lp8271
Vlet
p8272
asS'2251'
p8273
(lp8274
Vauthentically
p8275
asS'2250'
p8276
(lp8277
Vhas
p8278
asS'2477'
p8279
(lp8280
Vreally
p8281
asS'988'
p8282
(lp8283
g9
asS'3224'
p8284
(lp8285
g9
asS'2473'
p8286
(lp8287
VThey
p8288
asS'2472'
p8289
(lp8290
VIf
p8291
asS'2471'
p8292
(lp8293
Vwaitress
p8294
asS'982'
p8295
(lp8296
Vchicken
p8297
asS'983'
p8298
(lp8299
g2603
asS'980'
p8300
(lp8301
VCheck
p8302
asS'981'
p8303
(lp8304
Vrestaurants
p8305
asS'987'
p8306
(lp8307
Vin
p8308
asS'984'
p8309
(lp8310
Vtimes
p8311
asS'985'
p8312
(lp8313
Vpiped
p8314
asS'115'
p8315
(lp8316
VBravissimo
p8317
asS'1790'
p8318
(lp8319
Vwhere
p8320
asS'116'
p8321
(lp8322
Vwine
p8323
asS'110'
p8324
(lp8325
Vwine
p8326
asS'119'
p8327
(lp8328
Vout
p8329
asS'3432'
p8330
(lp8331
V~
p8332
asS'2785'
p8333
(lp8334
Vstaff
p8335
asS'2784'
p8336
(lp8337
Vhad
p8338
asS'2787'
p8339
(lp8340
g9
asS'2786'
p8341
(lp8342
Vor
p8343
asS'2781'
p8344
(lp8345
Vpasta
p8346
asS'2780'
p8347
(lp8348
Vcomplain
p8349
asS'2783'
p8350
(lp8351
Vor
p8352
asS'2782'
p8353
(lp8354
Vor
p8355
asS'2789'
p8356
(lp8357
Vitalian
p8358
asS'2788'
p8359
(lp8360
g1141
asS'2079'
p8361
(lp8362
Vstaff
p8363
asS'2078'
p8364
(lp8365
Vwith
p8366
asS'2072'
p8367
(lp8368
g9
asS'2071'
p8369
(lp8370
g9
asS'2070'
p8371
(lp8372
Vexcellent
p8373
asS'2077'
p8374
(lp8375
Vbreads
p8376
asS'2076'
p8377
(lp8378
Vthe
p8379
asS'2075'
p8380
(lp8381
Vor
p8382
asS'1388'
p8383
(lp8384
VQueens
p8385
asS'1796'
p8386
(lp8387
Vawesome
p8388
asS'3508'
p8389
(lp8390
Vwine
p8391
asS'3504'
p8392
(lp8393
VEsposito
p8394
asS'3505'
p8395
(lp8396
Vor
p8397
asS'3506'
p8398
(lp8399
Vfirst
p8400
asS'3507'
p8401
(lp8402
Vgracious
p8403
asS'2671'
p8404
(lp8405
Vnice
p8406
asS'2670'
p8407
(lp8408
g9
asS'2060'
p8409
(lp8410
Vjersey
p8411
asS'2672'
p8412
(lp8413
Vleft
p8414
asS'2675'
p8415
(lp8416
Vout
p8417
asS'2674'
p8418
(lp8419
Vthe
p8420
asS'2677'
p8421
(lp8422
Vthe
p8423
asS'2676'
p8424
(lp8425
Vthe
p8426
asS'2929'
p8427
(lp8428
Vto
p8429
asS'2928'
p8430
(lp8431
VProblem
p8432
asS'2921'
p8433
(lp8434
Vwith
p8435
asS'2920'
p8436
(lp8437
Veither
p8438
asS'2923'
p8439
(lp8440
g9
asS'2922'
p8441
(lp8442
Vunappealing
p8443
asS'2925'
p8444
(lp8445
Vor
p8446
asS'2924'
p8447
(lp8448
Vthe
p8449
asS'2927'
p8450
(lp8451
Vthe
p8452
asS'2564'
p8453
(lp8454
g9
asS'708'
p8455
(lp8456
Vthe
p8457
asS'2906'
p8458
(lp8459
Vwith
p8460
asS'1630'
p8461
(lp8462
Vthe
p8463
asS'1987'
p8464
(lp8465
Vquantity
p8466
asS'1632'
p8467
(lp8468
g957
asS'3217'
p8469
(lp8470
Vever
p8471
asS'1634'
p8472
(lp8473
Vor
p8474
asS'3211'
p8475
(lp8476
Vthe
p8477
asS'1980'
p8478
(lp8479
Vworks
p8480
asS'1981'
p8481
(lp8482
Vreally
p8483
asS'1638'
p8484
(lp8485
VThe
p8486
asS'1639'
p8487
(lp8488
Vwine
p8489
asS'2904'
p8490
(lp8491
Vchicken
p8492
asS'3218'
p8493
(lp8494
g9
asS'3219'
p8495
(lp8496
Vout
p8497
asS'1988'
p8498
(lp8499
Vthe
p8500
asS'1989'
p8501
(lp8502
Vare
p8503
asS'706'
p8504
(lp8505
Vwait
p8506
asS'568'
p8507
(lp8508
Vmy
p8509
asS'569'
p8510
(lp8511
g9
asS'2817'
p8512
(lp8513
Vmore
p8514
asS'2811'
p8515
(lp8516
g9
asS'2810'
p8517
(lp8518
g9
asS'2812'
p8519
(lp8520
Vis
p8521
asS'560'
p8522
(lp8523
VThe
p8524
asS'561'
p8525
(lp8526
Vat
p8527
asS'562'
p8528
(lp8529
Vthe
p8530
asS'563'
p8531
(lp8532
Vthe
p8533
asS'2819'
p8534
(lp8535
Vguests
p8536
asS'565'
p8537
(lp8538
Vlime
p8539
asS'566'
p8540
(lp8541
Vlime
p8542
asS'567'
p8543
(lp8544
Vcaramelized
p8545
asS'3178'
p8546
(lp8547
Vthe
p8548
asS'3171'
p8549
(lp8550
VTOASTING
p8551
asS'3170'
p8552
(lp8553
Vreally
p8554
asS'3173'
p8555
(lp8556
Vn't
p8557
asS'3172'
p8558
(lp8559
Vhaving
p8560
asS'3175'
p8561
(lp8562
Vsays
p8563
asS'3174'
p8564
(lp8565
Vis
p8566
asS'3177'
p8567
(lp8568
Vat
p8569
asS'3176'
p8570
(lp8571
Vclose
p8572
asS'659'
p8573
(lp8574
Vexpand
p8575
asS'1188'
p8576
(lp8577
VThe
p8578
asS'1189'
p8579
(lp8580
Vworth
p8581
asS'3377'
p8582
(lp8583
Vwine
p8584
asS'3376'
p8585
(lp8586
VOrder
p8587
asS'1184'
p8588
(lp8589
Vreally
p8590
asS'3374'
p8591
(lp8592
Vout
p8593
asS'3373'
p8594
(lp8595
Vwine
p8596
asS'3372'
p8597
(lp8598
Vdisappointed
p8599
asS'1180'
p8600
(lp8601
Vout
p8602
asS'3370'
p8603
(lp8604
Vpizza
p8605
asS'726'
p8606
(lp8607
Vup
p8608
asS'727'
p8609
(lp8610
Vthe
p8611
asS'1748'
p8612
(lp8613
Vpizza
p8614
asS'1749'
p8615
(lp8616
Vwait
p8617
asS'720'
p8618
(lp8619
Vlove
p8620
asS'721'
p8621
(lp8622
Vthe
p8623
asS'1745'
p8624
(lp8625
Vgets
p8626
asS'1746'
p8627
(lp8628
Vorder
p8629
asS'1747'
p8630
(lp8631
VWait
p8632
asS'1740'
p8633
(lp8634
Vgo
p8635
asS'1741'
p8636
(lp8637
VFantastic
p8638
asS'728'
p8639
(lp8640
Vthe
p8641
asS'1486'
p8642
(lp8643
Varound
p8644
asS'1164'
p8645
(lp8646
Vwait
p8647
asS'1165'
p8648
(lp8649
Vworth
p8650
asS'1166'
p8651
(lp8652
g9
asS'1167'
p8653
(lp8654
Vfirst
p8655
asS'1614'
p8656
(lp8657
VItalian
p8658
asS'1161'
p8659
(lp8660
Vbartenders
p8661
asS'1162'
p8662
(lp8663
Vrelatively
p8664
asS'1163'
p8665
(lp8666
g9
asS'1623'
p8667
(lp8668
Vwine
p8669
asS'1168'
p8670
(lp8671
Vmy
p8672
asS'1169'
p8673
(lp8674
Vmore
p8675
asS'3092'
p8676
(lp8677
Vtandoori
p8678
asS'1489'
p8679
(lp8680
Veat
p8681
asS'1366'
p8682
(lp8683
Vstaff
p8684
asS'2913'
p8685
(lp8686
Vgem
p8687
asS'1488'
p8688
(lp8689
Vpizza
p8690
asS'1367'
p8691
(lp8692
Vlook
p8693
asS'46'
p8694
(lp8695
Vis
p8696
asS'47'
p8697
(lp8698
Vif
p8699
asS'44'
p8700
(lp8701
Vwell-oiled
p8702
asS'45'
p8703
(lp8704
Vbunch
p8705
asS'42'
p8706
(lp8707
VBREWERY
p8708
asS'43'
p8709
(lp8710
VCenter
p8711
asS'40'
p8712
(lp8713
Vfriends
p8714
asS'41'
p8715
(lp8716
g9
asS'1568'
p8717
(lp8718
VMy
p8719
asS'1569'
p8720
(lp8721
Vreally
p8722
asS'1298'
p8723
(lp8724
VPIZZA
p8725
asS'1299'
p8726
(lp8727
Vin
p8728
asS'1587'
p8729
(lp8730
VOR
p8731
asS'1560'
p8732
(lp8733
g9
asS'1293'
p8734
(lp8735
Vvomit-inducing
p8736
asS'1290'
p8737
(lp8738
g9
asS'1563'
p8739
(lp8740
g9
asS'1564'
p8741
(lp8742
g9
asS'1565'
p8743
(lp8744
Vwaste
p8745
asS'1294'
p8746
(lp8747
Vwith
p8748
asS'1567'
p8749
(lp8750
VThe
p8751
asS'1713'
p8752
(lp8753
Vthe
p8754
asS'474'
p8755
(lp8756
Vthe
p8757
asS'796'
p8758
(lp8759
Vwas
p8760
asS'591'
p8761
(lp8762
VIf
p8763
asS'475'
p8764
(lp8765
VNY
p8766
asS'795'
p8767
(lp8768
g9
asS'1789'
p8769
(lp8770
VIn
p8771
asS'1716'
p8772
(lp8773
Vis
p8774
asS'1715'
p8775
(lp8776
Vif
p8777
asS'590'
p8778
(lp8779
VNose
p8780
asS'732'
p8781
(lp8782
Vwas
p8783
asS'1714'
p8784
(lp8785
Vsimilar
p8786
asS'472'
p8787
(lp8788
Vcame
p8789
asS'473'
p8790
(lp8791
Vtreated
p8792
asS'3195'
p8793
(lp8794
VHe
p8795
asS'3194'
p8796
(lp8797
Vcomes
p8798
asS'476'
p8799
(lp8800
Vby
p8801
asS'3192'
p8802
(lp8803
Vout
p8804
asS'3191'
p8805
(lp8806
Vwith
p8807
asS'3190'
p8808
(lp8809
Vvegetarian
p8810
asS'479'
p8811
(lp8812
VThe
p8813
asS'2916'
p8814
(lp8815
Vprice
p8816
asS'3199'
p8817
(lp8818
Vleft
p8819
asS'3198'
p8820
(lp8821
Vspecial
p8822
as.