(dp0
S'643'
p1
(lp2
Vfood
p3
aVambiance
p4
aVservice
p5
asS'344'
p6
(lp7
Vmilitary_service
p8
asS'345'
p9
(lp10
Vservice
p11
asS'346'
p12
(lp13
Vatmosphere
p14
aVmonetary_value
p15
asS'347'
p16
(lp17
Vfood
p18
asS'340'
p19
(lp20
Vfood
p21
aVprice
p22
asS'341'
p23
(lp24
Vfood
p25
asS'342'
p26
(lp27
Vfood
p28
asS'343'
p29
(lp30
Vfood
p31
aVoverhaul
p32
aVservice
p33
asS'348'
p34
(lp35
Vfood
p36
asS'349'
p37
(lp38
Vmonetary_value
p39
asS'2318'
p40
(lp41
Vfood
p42
asS'2316'
p43
(lp44
Vfood
p45
aVambiance
p46
asS'2317'
p47
(lp48
Vfood
p49
aVambiance
p50
asS'2314'
p51
(lp52
Vservice
p53
asS'2315'
p54
(lp55
Vatmosphere
p56
asS'2312'
p57
(lp58
Vfood
p59
aVatmosphere
p60
asS'2311'
p61
(lp62
Vserve
p63
aVservice
p64
asS'2184'
p65
(lp66
Vfood
p67
asS'298'
p68
(lp69
Vfood
p70
aVambiance
p71
aVservice
p72
asS'299'
p73
(lp74
Vfood
p75
aVservice
p76
asS'296'
p77
(lp78
Vfood
p79
aVservice
p80
asS'297'
p81
(lp82
Vfood
p83
aVoverhaul
p84
aVatmosphere
p85
aVserve
p86
aVservice
p87
asS'294'
p88
(lp89
Vservice
p90
asS'295'
p91
(lp92
sS'292'
p93
(lp94
Vfood
p95
aVservice
p96
asS'293'
p97
(lp98
sS'291'
p99
(lp100
sS'587'
p101
(lp102
Vfood
p103
asS'270'
p104
(lp105
Vfood
p106
aVatmosphere
p107
aVambiance
p108
aVservice
p109
asS'271'
p110
(lp111
Vatmosphere
p112
aVservice
p113
asS'272'
p114
(lp115
Vfood
p116
aVprice
p117
aVservice
p118
asS'273'
p119
(lp120
Vmilitary_service
p121
aVservice
p122
asS'274'
p123
(lp124
Vatmosphere
p125
aVserve
p126
aVservice
p127
asS'275'
p128
(lp129
Vatmosphere
p130
aVoverhaul
p131
asS'276'
p132
(lp133
Vfood
p134
aVmilitary_service
p135
aVservice
p136
asS'277'
p137
(lp138
Vfood
p139
aVservice
p140
asS'278'
p141
(lp142
Vfood
p143
aVatmosphere
p144
aVservice
p145
asS'279'
p146
(lp147
Vatmosphere
p148
aVambiance
p149
aVservice
p150
asS'58'
p151
(lp152
Vfood
p153
aVservice
p154
asS'2268'
p155
(lp156
Vatmosphere
p157
aVmilitary_service
p158
asS'2269'
p159
(lp160
Vatmosphere
p161
aVservice
p162
asS'2262'
p163
(lp164
Vfood
p165
asS'2263'
p166
(lp167
Vfood
p168
aVservice
p169
asS'2260'
p170
(lp171
Vprice
p172
asS'2261'
p173
(lp174
Vfood
p175
aVatmosphere
p176
aVprice
p177
aVservice
p178
asS'2267'
p179
(lp180
Vatmosphere
p181
aVservice
p182
asS'2442'
p183
(lp184
Vfood
p185
aVambiance
p186
aVservice
p187
asS'2443'
p188
(lp189
Vfood
p190
aVprice
p191
aVservice
p192
asS'2440'
p193
(lp194
Vservice
p195
asS'2441'
p196
(lp197
Vservice
p198
asS'2446'
p199
(lp200
Vfood
p201
aVambiance
p202
asS'2447'
p203
(lp204
sS'2444'
p205
(lp206
Vfood
p207
aVatmosphere
p208
asS'2445'
p209
(lp210
Vfood
p211
aVservice
p212
asS'2448'
p213
(lp214
Vfood
p215
aVservice
p216
asS'2449'
p217
(lp218
Vfood
p219
aVservice
p220
asS'2189'
p221
(lp222
Vservice
p223
asS'109'
p224
(lp225
Vfood
p226
asS'102'
p227
(lp228
Vfood
p229
aVservice
p230
asS'103'
p231
(lp232
Vatmosphere
p233
aVmilitary_service
p234
aVservice
p235
aVservicing
p236
asS'101'
p237
(lp238
Vatmosphere
p239
aVservice
p240
asS'2042'
p241
(lp242
Vmonetary_value
p243
asS'2040'
p244
(lp245
sS'2041'
p246
(lp247
Vfood
p248
asS'1297'
p249
(lp250
Vservice
p251
asS'2839'
p252
(lp253
Vfood
p254
aVservice
p255
asS'2838'
p256
(lp257
Vfood
p258
aVatmosphere
p259
aVservice
p260
asS'3159'
p261
(lp262
Vfood
p263
asS'3519'
p264
(lp265
Vatmosphere
p266
aVambiance
p267
aVmonetary_value
p268
asS'3518'
p269
(lp270
Vfood
p271
aVserve
p272
aVservice
p273
asS'3513'
p274
(lp275
Vfood
p276
aVmilitary_service
p277
aVservice
p278
asS'3512'
p279
(lp280
Vfood
p281
aVatmosphere
p282
aVservice
p283
asS'3511'
p284
(lp285
Vfood
p286
aVprice
p287
aVatmosphere
p288
aVservice
p289
asS'3510'
p290
(lp291
Vfood
p292
aVservice
p293
asS'3517'
p294
(lp295
Vfood
p296
asS'3516'
p297
(lp298
Vfood
p299
aVmonetary_value
p300
asS'3515'
p301
(lp302
Vmilitary_service
p303
aVservice
p304
asS'3514'
p305
(lp306
sS'2688'
p307
(lp308
Vfood
p309
aVatmosphere
p310
aVmonetary_value
p311
aVservice
p312
asS'2689'
p313
(lp314
Vfood
p315
aVprice
p316
asS'2686'
p317
(lp318
Vfood
p319
aVatmosphere
p320
aVservice
p321
asS'2687'
p322
(lp323
Vfood
p324
aVmilitary_service
p325
aVservice
p326
asS'1785'
p327
(lp328
Vfood
p329
aVatmosphere
p330
asS'2681'
p331
(lp332
Vfood
p333
asS'3391'
p334
(lp335
Vfood
p336
aVservice
p337
asS'1434'
p338
(lp339
Vfood
p340
aVatmosphere
p341
asS'98'
p342
(lp343
Vfood
p344
asS'3392'
p345
(lp346
Vfood
p347
asS'91'
p348
(lp349
sS'90'
p350
(lp351
Vfood
p352
aVprice
p353
asS'93'
p354
(lp355
Vfood
p356
aVatmosphere
p357
aVservice
p358
asS'92'
p359
(lp360
Vatmosphere
p361
asS'95'
p362
(lp363
Vfood
p364
aVambiance
p365
aVservice
p366
asS'94'
p367
(lp368
Vatmosphere
p369
aVservice
p370
asS'97'
p371
(lp372
Vfood
p373
aVprice
p374
asS'96'
p375
(lp376
Vservice
p377
asS'3207'
p378
(lp379
Vfood
p380
aVatmosphere
p381
asS'3206'
p382
(lp383
Vfood
p384
aVambiance
p385
aVservice
p386
asS'1621'
p387
(lp388
Vfood
p389
aVservice
p390
asS'3204'
p391
(lp392
Vfood
p393
aVservice
p394
asS'1627'
p395
(lp396
Vservice
p397
asS'1994'
p398
(lp399
Vfood
p400
aVprice
p401
aVservice
p402
asS'1625'
p403
(lp404
Vfood
p405
aVprice
p406
aVservice
p407
asS'1624'
p408
(lp409
Vfood
p410
aVservice
p411
asS'1998'
p412
(lp413
sS'1431'
p414
(lp415
sS'3209'
p416
(lp417
Vservice
p418
asS'3208'
p419
(lp420
Vfood
p421
aVambiance
p422
asS'2860'
p423
(lp424
Vmilitary_service
p425
asS'2861'
p426
(lp427
Vprice
p428
aVmilitary_service
p429
aVservice
p430
asS'2862'
p431
(lp432
Vfood
p433
aVatmosphere
p434
aVprice
p435
aVservice
p436
asS'2863'
p437
(lp438
Vservice
p439
asS'2864'
p440
(lp441
Vfood
p442
aVambiance
p443
asS'558'
p444
(lp445
Vfood
p446
aVservice
p447
asS'555'
p448
(lp449
Vatmosphere
p450
asS'554'
p451
(lp452
Vfood
p453
aVmilitary_service
p454
asS'557'
p455
(lp456
Vprice
p457
aVserve
p458
aVservice
p459
asS'556'
p460
(lp461
Vfood
p462
aVatmosphere
p463
aVprice
p464
aVmonetary_value
p465
aVservice
p466
asS'551'
p467
(lp468
Vservice
p469
asS'550'
p470
(lp471
Vfood
p472
aVatmosphere
p473
aVservice
p474
asS'553'
p475
(lp476
Vservice
p477
asS'552'
p478
(lp479
Vfood
p480
aVservice
p481
asS'1199'
p482
(lp483
Vfood
p484
asS'1198'
p485
(lp486
Vfood
p487
asS'1191'
p488
(lp489
Vfood
p490
aVservice
p491
asS'3343'
p492
(lp493
Vfood
p494
asS'3340'
p495
(lp496
Vfood
p497
aVservice
p498
asS'3341'
p499
(lp500
Vfood
p501
aVmilitary_service
p502
aVservice
p503
asS'1195'
p504
(lp505
Vfood
p506
aVmonetary_value
p507
asS'1194'
p508
(lp509
Vserve
p510
aVservice
p511
asS'1197'
p512
(lp513
Vfood
p514
aVserve
p515
asS'1196'
p516
(lp517
Vfood
p518
aVatmosphere
p519
aVservice
p520
asS'1759'
p521
(lp522
Vmilitary_service
p523
asS'1756'
p524
(lp525
Vmonetary_value
p526
asS'1755'
p527
(lp528
Vfood
p529
asS'1750'
p530
(lp531
Vfood
p532
aVserve
p533
asS'1177'
p534
(lp535
Vprice
p536
asS'1176'
p537
(lp538
Vfood
p539
aVservice
p540
asS'1175'
p541
(lp542
Vfood
p543
aVmilitary_service
p544
aVservice
p545
asS'1174'
p546
(lp547
Vfood
p548
aVatmosphere
p549
aVambiance
p550
asS'1173'
p551
(lp552
Vfood
p553
asS'1171'
p554
(lp555
Vfood
p556
aVservice
p557
asS'1170'
p558
(lp559
Vfood
p560
aVservice
p561
asS'1179'
p562
(lp563
Vservice
p564
asS'1178'
p565
(lp566
sS'511'
p567
(lp568
Vfood
p569
asS'510'
p570
(lp571
Vprice
p572
aVmonetary_value
p573
asS'1005'
p574
(lp575
Vfood
p576
aVatmosphere
p577
asS'644'
p578
(lp579
Vmilitary_service
p580
aVservice
p581
asS'1285'
p582
(lp583
sS'1287'
p584
(lp585
Vfood
p586
aVatmosphere
p587
aVambiance
p588
aVservice
p589
asS'1286'
p590
(lp591
Vatmosphere
p592
aVservice
p593
asS'1281'
p594
(lp595
Vservice
p596
asS'1280'
p597
(lp598
Vprice
p599
asS'1283'
p600
(lp601
Vfood
p602
aVservicing
p603
asS'1282'
p604
(lp605
Vfood
p606
aVservice
p607
asS'879'
p608
(lp609
sS'1289'
p610
(lp611
Vfood
p612
aVambiance
p613
asS'1288'
p614
(lp615
Vfood
p616
aVservice
p617
asS'514'
p618
(lp619
Vatmosphere
p620
aVserve
p621
aVservice
p622
asS'1579'
p623
(lp624
Vatmosphere
p625
asS'1578'
p626
(lp627
Vfood
p628
asS'689'
p629
(lp630
Vfood
p631
asS'688'
p632
(lp633
Vservice
p634
asS'877'
p635
(lp636
Vprice
p637
aVmilitary_service
p638
aVservice
p639
asS'685'
p640
(lp641
Vfood
p642
aVambiance
p643
aVservice
p644
asS'1572'
p645
(lp646
Vfood
p647
aVatmosphere
p648
aVservice
p649
asS'1571'
p650
(lp651
sS'686'
p652
(lp653
Vfood
p654
aVservice
p655
asS'1577'
p656
(lp657
Vfood
p658
aVservice
p659
asS'680'
p660
(lp661
Vatmosphere
p662
aVservice
p663
asS'1575'
p664
(lp665
Vmilitary_service
p666
aVservice
p667
asS'1574'
p668
(lp669
Vatmosphere
p670
aVservice
p671
asS'1227'
p672
(lp673
Vfood
p674
aVservice
p675
asS'875'
p676
(lp677
Vservice
p678
asS'2818'
p679
(lp680
Vfood
p681
aVatmosphere
p682
aVservice
p683
asS'622'
p684
(lp685
Vprice
p686
aVatmosphere
p687
asS'872'
p688
(lp689
Vfood
p690
aVatmosphere
p691
aVservice
p692
asS'873'
p693
(lp694
Vservice
p695
asS'3436'
p696
(lp697
Vfood
p698
aVservice
p699
asS'1295'
p700
(lp701
Vservice
p702
asS'871'
p703
(lp704
Vfood
p705
aVservice
p706
asS'2037'
p707
(lp708
Vfood
p709
aVprice
p710
aVatmosphere
p711
aVservice
p712
asS'2740'
p713
(lp714
Vfood
p715
asS'1243'
p716
(lp717
Vfood
p718
aVatmosphere
p719
aVservice
p720
asS'2743'
p721
(lp722
Vatmosphere
p723
asS'1371'
p724
(lp725
Vfood
p726
aVservice
p727
asS'1370'
p728
(lp729
Vfood
p730
asS'1373'
p731
(lp732
Vfood
p733
aVservice
p734
asS'404'
p735
(lp736
Vfood
p737
aVatmosphere
p738
asS'1375'
p739
(lp740
sS'1374'
p741
(lp742
Vservice
p743
asS'1377'
p744
(lp745
Vfood
p746
aVservice
p747
asS'400'
p748
(lp749
Vatmosphere
p750
aVambiance
p751
asS'1379'
p752
(lp753
Vambiance
p754
asS'1378'
p755
(lp756
Vprice
p757
aVservice
p758
asS'409'
p759
(lp760
Vfood
p761
aVmonetary_value
p762
aVservice
p763
asS'408'
p764
(lp765
Vfood
p766
asS'453'
p767
(lp768
Vfood
p769
aVambiance
p770
aVmilitary_service
p771
aVservice
p772
asS'1344'
p773
(lp774
Vatmosphere
p775
aVservice
p776
asS'2746'
p777
(lp778
Vfood
p779
aVservice
p780
asS'1245'
p781
(lp782
sS'379'
p783
(lp784
Vmonetary_value
p785
asS'378'
p786
(lp787
Vfood
p788
asS'370'
p789
(lp790
sS'375'
p791
(lp792
Vfood
p793
aVprice
p794
aVmilitary_service
p795
aVservice
p796
asS'377'
p797
(lp798
Vmilitary_service
p799
asS'391'
p800
(lp801
Vfood
p802
aVambiance
p803
aVservice
p804
asS'390'
p805
(lp806
Vfood
p807
aVatmosphere
p808
asS'397'
p809
(lp810
Vfood
p811
asS'396'
p812
(lp813
Vfood
p814
aVambiance
p815
aVservice
p816
asS'395'
p817
(lp818
Vfood
p819
asS'394'
p820
(lp821
Vfood
p822
aVatmosphere
p823
aVmilitary_service
p824
aVservice
p825
asS'2309'
p826
(lp827
Vfood
p828
aVservice
p829
asS'2308'
p830
(lp831
sS'2301'
p832
(lp833
sS'2300'
p834
(lp835
Vatmosphere
p836
asS'2303'
p837
(lp838
Vambiance
p839
aVservice
p840
asS'2302'
p841
(lp842
Vfood
p843
aVservice
p844
asS'2305'
p845
(lp846
Vfood
p847
aVservice
p848
asS'2304'
p849
(lp850
sS'2307'
p851
(lp852
Vfood
p853
aVatmosphere
p854
asS'2306'
p855
(lp856
Vfood
p857
asS'247'
p858
(lp859
Vfood
p860
aVambiance
p861
aVservice
p862
asS'246'
p863
(lp864
Vfood
p865
aVprice
p866
aVambiance
p867
asS'241'
p868
(lp869
Vfood
p870
aVambiance
p871
aVservice
p872
asS'240'
p873
(lp874
Vfood
p875
aVprice
p876
aVambiance
p877
aVatmosphere
p878
aVmilitary_service
p879
asS'249'
p880
(lp881
Vatmosphere
p882
asS'248'
p883
(lp884
Vfood
p885
aVatmosphere
p886
aVservice
p887
asS'2275'
p888
(lp889
Vatmosphere
p890
aVambiance
p891
aVservice
p892
asS'2274'
p893
(lp894
Vfood
p895
aVmonetary_value
p896
aVservice
p897
asS'2277'
p898
(lp899
Vambiance
p900
aVoverhaul
p901
asS'2276'
p902
(lp903
Vfood
p904
aVmilitary_service
p905
aVservice
p906
asS'2271'
p907
(lp908
Vfood
p909
aVatmosphere
p910
aVservicing
p911
aVservice
p912
asS'2273'
p913
(lp914
Vfood
p915
aVservice
p916
asS'2272'
p917
(lp918
Vfood
p919
aVservice
p920
asS'2279'
p921
(lp922
Vatmosphere
p923
aVmonetary_value
p924
asS'2278'
p925
(lp926
Vfood
p927
aVatmosphere
p928
aVservice
p929
asS'2459'
p930
(lp931
Vatmosphere
p932
asS'2458'
p933
(lp934
Vfood
p935
aVprice
p936
aVambiance
p937
aVmilitary_service
p938
aVservice
p939
asS'2455'
p940
(lp941
Vfood
p942
aVoverhaul
p943
aVmilitary_service
p944
aVservice
p945
asS'2454'
p946
(lp947
Vservice
p948
asS'2457'
p949
(lp950
Vmilitary_service
p951
asS'2456'
p952
(lp953
Vfood
p954
aVatmosphere
p955
aVservice
p956
asS'2451'
p957
(lp958
Vmonetary_value
p959
asS'2450'
p960
(lp961
Vfood
p962
aVservice
p963
asS'2453'
p964
(lp965
Vfood
p966
aVatmosphere
p967
aVservice
p968
asS'2452'
p969
(lp970
Vfood
p971
aVambiance
p972
aVmilitary_service
p973
aVservice
p974
asS'179'
p975
(lp976
Vservice
p977
asS'178'
p978
(lp979
Vfood
p980
aVservice
p981
asS'177'
p982
(lp983
Vfood
p984
aVoverhaul
p985
aVmilitary_service
p986
asS'176'
p987
(lp988
Vatmosphere
p989
asS'175'
p990
(lp991
Vfood
p992
aVservicing
p993
aVservice
p994
asS'174'
p995
(lp996
Vfood
p997
aVatmosphere
p998
aVservice
p999
asS'173'
p1000
(lp1001
Vfood
p1002
aVatmosphere
p1003
asS'3698'
p1004
(lp1005
Vfood
p1006
aVambiance
p1007
aVservice
p1008
asS'3699'
p1009
(lp1010
Vfood
p1011
aVprice
p1012
asS'2053'
p1013
(lp1014
sS'2052'
p1015
(lp1016
Vservice
p1017
asS'2054'
p1018
(lp1019
Vfood
p1020
aVservice
p1021
asS'2057'
p1022
(lp1023
Vfood
p1024
asS'2059'
p1025
(lp1026
Vfood
p1027
asS'2058'
p1028
(lp1029
sS'3692'
p1030
(lp1031
Vfood
p1032
aVprice
p1033
aVatmosphere
p1034
aVservice
p1035
asS'3693'
p1036
(lp1037
Vfood
p1038
asS'3694'
p1039
(lp1040
sS'3695'
p1041
(lp1042
Vfood
p1043
aVservice
p1044
asS'3696'
p1045
(lp1046
Vfood
p1047
aVatmosphere
p1048
aVmonetary_value
p1049
asS'3697'
p1050
(lp1051
Vfood
p1052
aVatmosphere
p1053
aVambiance
p1054
aVservice
p1055
asS'1501'
p1056
(lp1057
Vfood
p1058
asS'3089'
p1059
(lp1060
Vatmosphere
p1061
aVprice
p1062
aVservice
p1063
asS'1507'
p1064
(lp1065
sS'3526'
p1066
(lp1067
sS'3527'
p1068
(lp1069
Vfood
p1070
aVservice
p1071
asS'3524'
p1072
(lp1073
Vfood
p1074
aVservice
p1075
asS'3525'
p1076
(lp1077
Vfood
p1078
aVmilitary_service
p1079
asS'3520'
p1080
(lp1081
Vfood
p1082
aVatmosphere
p1083
aVambiance
p1084
aVservice
p1085
asS'3521'
p1086
(lp1087
sS'1508'
p1088
(lp1089
Vfood
p1090
aVprice
p1091
aVservice
p1092
asS'1509'
p1093
(lp1094
Vfood
p1095
asS'1977'
p1096
(lp1097
Vprice
p1098
aVserve
p1099
aVservice
p1100
asS'658'
p1101
(lp1102
Vatmosphere
p1103
asS'2699'
p1104
(lp1105
Vatmosphere
p1106
asS'1976'
p1107
(lp1108
sS'2697'
p1109
(lp1110
Vfood
p1111
aVatmosphere
p1112
asS'2696'
p1113
(lp1114
Vfood
p1115
aVservice
p1116
asS'2695'
p1117
(lp1118
Vserve
p1119
aVservice
p1120
asS'2694'
p1121
(lp1122
Vprice
p1123
aVmilitary_service
p1124
asS'2693'
p1125
(lp1126
Vfood
p1127
aVservice
p1128
asS'1603'
p1129
(lp1130
Vatmosphere
p1131
asS'2691'
p1132
(lp1133
Vfood
p1134
asS'2690'
p1135
(lp1136
Vprice
p1137
aVambiance
p1138
asS'3226'
p1139
(lp1140
Vfood
p1141
aVprice
p1142
aVoverhaul
p1143
aVservice
p1144
asS'1973'
p1145
(lp1146
Vmonetary_value
p1147
aVservice
p1148
asS'3220'
p1149
(lp1150
Vfood
p1151
aVservice
p1152
asS'3223'
p1153
(lp1154
Vfood
p1155
aVatmosphere
p1156
aVservice
p1157
asS'1606'
p1158
(lp1159
Vmonetary_value
p1160
aVservice
p1161
asS'1362'
p1162
(lp1163
Vfood
p1164
asS'3232'
p1165
(lp1166
Vfood
p1167
aVprice
p1168
aVserve
p1169
asS'3233'
p1170
(lp1171
Vservice
p1172
asS'3230'
p1173
(lp1174
Vfood
p1175
aVprice
p1176
aVservice
p1177
asS'3236'
p1178
(lp1179
Vfood
p1180
aVmilitary_service
p1181
aVservice
p1182
asS'3237'
p1183
(lp1184
Vambiance
p1185
aVservice
p1186
asS'3234'
p1187
(lp1188
Vfood
p1189
aVmilitary_service
p1190
aVservice
p1191
asS'1619'
p1192
(lp1193
Vfood
p1194
aVservice
p1195
asS'1616'
p1196
(lp1197
Vfood
p1198
aVservice
p1199
asS'1617'
p1200
(lp1201
Vfood
p1202
aVmilitary_service
p1203
aVservice
p1204
asS'1614'
p1205
(lp1206
Vfood
p1207
aVservice
p1208
asS'3239'
p1209
(lp1210
Vambiance
p1211
aVservicing
p1212
aVservice
p1213
asS'1960'
p1214
(lp1215
Vfood
p1216
aVatmosphere
p1217
aVambiance
p1218
aVprice
p1219
aVservice
p1220
asS'1961'
p1221
(lp1222
Vfood
p1223
aVmilitary_service
p1224
aVservice
p1225
asS'1610'
p1226
(lp1227
Vfood
p1228
asS'1611'
p1229
(lp1230
sS'2063'
p1231
(lp1232
Vfood
p1233
aVmilitary_service
p1234
asS'1363'
p1235
(lp1236
Vfood
p1237
aVatmosphere
p1238
asS'2872'
p1239
(lp1240
Vprice
p1241
aVmilitary_service
p1242
aVservice
p1243
asS'2871'
p1244
(lp1245
Vfood
p1246
aVatmosphere
p1247
aVambiance
p1248
aVservice
p1249
asS'2877'
p1250
(lp1251
Vservice
p1252
asS'2876'
p1253
(lp1254
Vfood
p1255
aVservice
p1256
asS'2875'
p1257
(lp1258
Vfood
p1259
aVmonetary_value
p1260
asS'2879'
p1261
(lp1262
Vfood
p1263
aVmonetary_value
p1264
aVservice
p1265
asS'2878'
p1266
(lp1267
Vatmosphere
p1268
aVambiance
p1269
aVservice
p1270
asS'3355'
p1271
(lp1272
Vfood
p1273
aVservice
p1274
asS'3354'
p1275
(lp1276
sS'3353'
p1277
(lp1278
Vfood
p1279
aVatmosphere
p1280
aVoverhaul
p1281
aVservice
p1282
asS'3352'
p1283
(lp1284
Vfood
p1285
aVservice
p1286
asS'3359'
p1287
(lp1288
Vfood
p1289
asS'3358'
p1290
(lp1291
sS'1768'
p1292
(lp1293
sS'1769'
p1294
(lp1295
Vservicing
p1296
asS'1760'
p1297
(lp1298
Vprice
p1299
aVatmosphere
p1300
asS'1766'
p1301
(lp1302
Vfood
p1303
asS'1767'
p1304
(lp1305
Vfood
p1306
asS'1765'
p1307
(lp1308
Vatmosphere
p1309
asS'1140'
p1310
(lp1311
Vfood
p1312
aVatmosphere
p1313
aVambiance
p1314
asS'1146'
p1315
(lp1316
Vatmosphere
p1317
aVservice
p1318
asS'1147'
p1319
(lp1320
Vfood
p1321
aVambiance
p1322
aVservice
p1323
asS'1144'
p1324
(lp1325
Vfood
p1326
aVambiance
p1327
aVservice
p1328
asS'1145'
p1329
(lp1330
Vservice
p1331
asS'1148'
p1332
(lp1333
Vservice
p1334
asS'1149'
p1335
(lp1336
Vservice
p1337
asS'768'
p1338
(lp1339
Vfood
p1340
aVatmosphere
p1341
asS'2966'
p1342
(lp1343
sS'2402'
p1344
(lp1345
Vfood
p1346
aVatmosphere
p1347
aVmilitary_service
p1348
asS'692'
p1349
(lp1350
Vfood
p1351
aVatmosphere
p1352
aVprice
p1353
aVservice
p1354
aVmilitary_service
p1355
asS'1547'
p1356
(lp1357
Vservice
p1358
asS'690'
p1359
(lp1360
Vatmosphere
p1361
aVmonetary_value
p1362
asS'691'
p1363
(lp1364
Vfood
p1365
aVatmosphere
p1366
asS'1542'
p1367
(lp1368
Vfood
p1369
aVserve
p1370
aVservice
p1371
asS'1543'
p1372
(lp1373
Vmilitary_service
p1374
aVservice
p1375
asS'694'
p1376
(lp1377
Vfood
p1378
aVservice
p1379
asS'1541'
p1380
(lp1381
Vfood
p1382
asS'698'
p1383
(lp1384
Vfood
p1385
asS'699'
p1386
(lp1387
Vfood
p1388
aVprice
p1389
aVmonetary_value
p1390
asS'1548'
p1391
(lp1392
Vfood
p1393
aVmonetary_value
p1394
asS'1549'
p1395
(lp1396
Vfood
p1397
aVatmosphere
p1398
aVambiance
p1399
aVprice
p1400
aVservice
p1401
asS'542'
p1402
(lp1403
Vambiance
p1404
aVservice
p1405
asS'762'
p1406
(lp1407
Vfood
p1408
aVmilitary_service
p1409
aVservice
p1410
asS'540'
p1411
(lp1412
Vservice
p1413
asS'541'
p1414
(lp1415
Vservice
p1416
asS'547'
p1417
(lp1418
Vfood
p1419
aVatmosphere
p1420
aVservice
p1421
asS'544'
p1422
(lp1423
Vservice
p1424
asS'763'
p1425
(lp1426
Vservice
p1427
asS'548'
p1428
(lp1429
Vatmosphere
p1430
asS'549'
p1431
(lp1432
Vservice
p1433
asS'1782'
p1434
(lp1435
sS'761'
p1436
(lp1437
sS'1784'
p1438
(lp1439
Vfood
p1440
asS'2968'
p1441
(lp1442
Vatmosphere
p1443
aVservice
p1444
asS'1941'
p1445
(lp1446
sS'1786'
p1447
(lp1448
Vfood
p1449
aVambiance
p1450
aVmonetary_value
p1451
asS'1787'
p1452
(lp1453
Vservice
p1454
asS'414'
p1455
(lp1456
Vfood
p1457
aVservice
p1458
asS'415'
p1459
(lp1460
Vfood
p1461
asS'416'
p1462
(lp1463
Vfood
p1464
asS'417'
p1465
(lp1466
Vfood
p1467
aVservice
p1468
asS'410'
p1469
(lp1470
Vfood
p1471
aVservice
p1472
asS'411'
p1473
(lp1474
sS'412'
p1475
(lp1476
Vfood
p1477
aVatmosphere
p1478
asS'413'
p1479
(lp1480
Vprice
p1481
aVatmosphere
p1482
asS'1384'
p1483
(lp1484
Vfood
p1485
aVmonetary_value
p1486
aVservice
p1487
asS'1385'
p1488
(lp1489
Vambiance
p1490
aVservice
p1491
asS'1386'
p1492
(lp1493
Vfood
p1494
aVambiance
p1495
aVatmosphere
p1496
aVoverhaul
p1497
aVservice
p1498
asS'1387'
p1499
(lp1500
Vfood
p1501
aVservice
p1502
asS'1380'
p1503
(lp1504
sS'1381'
p1505
(lp1506
Vprice
p1507
aVservice
p1508
asS'1382'
p1509
(lp1510
Vfood
p1511
asS'1383'
p1512
(lp1513
Vatmosphere
p1514
aVservice
p1515
asS'2769'
p1516
(lp1517
Vatmosphere
p1518
aVprice
p1519
asS'3583'
p1520
(lp1521
Vfood
p1522
aVmilitary_service
p1523
aVservice
p1524
asS'368'
p1525
(lp1526
Vfood
p1527
aVservice
p1528
asS'369'
p1529
(lp1530
Vfood
p1531
aVprice
p1532
asS'366'
p1533
(lp1534
Vambiance
p1535
aVservice
p1536
asS'367'
p1537
(lp1538
Vfood
p1539
asS'364'
p1540
(lp1541
Vfood
p1542
aVprice
p1543
aVservice
p1544
asS'365'
p1545
(lp1546
Vfood
p1547
aVservice
p1548
asS'362'
p1549
(lp1550
Vservice
p1551
asS'363'
p1552
(lp1553
Vfood
p1554
aVprice
p1555
aVservice
p1556
asS'380'
p1557
(lp1558
sS'381'
p1559
(lp1560
Vservice
p1561
asS'382'
p1562
(lp1563
Vfood
p1564
asS'385'
p1565
(lp1566
Vatmosphere
p1567
asS'386'
p1568
(lp1569
Vfood
p1570
asS'387'
p1571
(lp1572
sS'388'
p1573
(lp1574
Vatmosphere
p1575
aVambiance
p1576
aVmonetary_value
p1577
aVservice
p1578
asS'3215'
p1579
(lp1580
Vfood
p1581
aVambiance
p1582
asS'2065'
p1583
(lp1584
sS'2792'
p1585
(lp1586
sS'2190'
p1587
(lp1588
Vprice
p1589
aVservice
p1590
asS'2191'
p1591
(lp1592
Vfood
p1593
aVservice
p1594
asS'2192'
p1595
(lp1596
Vfood
p1597
aVambiance
p1598
aVservice
p1599
asS'259'
p1600
(lp1601
Vfood
p1602
aVatmosphere
p1603
aVservice
p1604
asS'2194'
p1605
(lp1606
Vfood
p1607
aVatmosphere
p1608
aVservice
p1609
asS'2195'
p1610
(lp1611
Vservice
p1612
asS'2196'
p1613
(lp1614
Vfood
p1615
aVatmosphere
p1616
aVservice
p1617
asS'2197'
p1618
(lp1619
Vfood
p1620
aVatmosphere
p1621
aVservice
p1622
asS'2198'
p1623
(lp1624
sS'2199'
p1625
(lp1626
Vservice
p1627
asS'250'
p1628
(lp1629
Vfood
p1630
aVatmosphere
p1631
aVmilitary_service
p1632
aVservice
p1633
asS'256'
p1634
(lp1635
Vatmosphere
p1636
aVservice
p1637
asS'257'
p1638
(lp1639
Vfood
p1640
asS'254'
p1641
(lp1642
Vatmosphere
p1643
aVservice
p1644
asS'255'
p1645
(lp1646
Vfood
p1647
aVservice
p1648
asS'2200'
p1649
(lp1650
Vfood
p1651
aVatmosphere
p1652
asS'2201'
p1653
(lp1654
Vfood
p1655
aVservice
p1656
asS'2202'
p1657
(lp1658
sS'2203'
p1659
(lp1660
Vfood
p1661
aVservicing
p1662
asS'2204'
p1663
(lp1664
Vfood
p1665
aVambiance
p1666
aVservice
p1667
asS'2205'
p1668
(lp1669
Vfood
p1670
aVprice
p1671
aVatmosphere
p1672
asS'2206'
p1673
(lp1674
Vfood
p1675
aVprice
p1676
aVmilitary_service
p1677
asS'2207'
p1678
(lp1679
Vfood
p1680
aVambiance
p1681
asS'2208'
p1682
(lp1683
sS'2209'
p1684
(lp1685
Vfood
p1686
aVatmosphere
p1687
aVservice
p1688
asS'2428'
p1689
(lp1690
Vfood
p1691
aVambiance
p1692
aVservice
p1693
asS'2429'
p1694
(lp1695
Vatmosphere
p1696
asS'2400'
p1697
(lp1698
Vfood
p1699
aVservice
p1700
asS'2420'
p1701
(lp1702
Vatmosphere
p1703
aVservice
p1704
asS'2421'
p1705
(lp1706
Vfood
p1707
aVambiance
p1708
aVservice
p1709
asS'2422'
p1710
(lp1711
Vfood
p1712
aVservice
p1713
asS'2423'
p1714
(lp1715
Vambiance
p1716
asS'2424'
p1717
(lp1718
Vatmosphere
p1719
asS'2425'
p1720
(lp1721
Vfood
p1722
asS'2426'
p1723
(lp1724
Vfood
p1725
asS'2427'
p1726
(lp1727
Vfood
p1728
aVprice
p1729
aVmonetary_value
p1730
aVatmosphere
p1731
asS'2432'
p1732
(lp1733
Vfood
p1734
aVatmosphere
p1735
aVprice
p1736
aVservice
p1737
asS'168'
p1738
(lp1739
sS'169'
p1740
(lp1741
Vfood
p1742
aVambiance
p1743
aVservicing
p1744
aVservice
p1745
asS'164'
p1746
(lp1747
Vatmosphere
p1748
aVservice
p1749
asS'165'
p1750
(lp1751
Vfood
p1752
aVprice
p1753
asS'166'
p1754
(lp1755
Vfood
p1756
aVprice
p1757
aVservice
p1758
asS'167'
p1759
(lp1760
Vfood
p1761
asS'160'
p1762
(lp1763
Vfood
p1764
aVservice
p1765
asS'161'
p1766
(lp1767
Vservice
p1768
asS'162'
p1769
(lp1770
Vfood
p1771
aVservice
p1772
asS'163'
p1773
(lp1774
Vprice
p1775
aVatmosphere
p1776
aVservice
p1777
asS'3689'
p1778
(lp1779
Vfood
p1780
asS'3688'
p1781
(lp1782
Vfood
p1783
aVatmosphere
p1784
aVservice
p1785
asS'3683'
p1786
(lp1787
Vfood
p1788
aVservice
p1789
asS'3682'
p1790
(lp1791
Vambiance
p1792
aVmilitary_service
p1793
aVservice
p1794
asS'3681'
p1795
(lp1796
Vfood
p1797
aVatmosphere
p1798
aVservice
p1799
asS'3680'
p1800
(lp1801
Vatmosphere
p1802
aVservice
p1803
asS'3687'
p1804
(lp1805
Vfood
p1806
aVservice
p1807
asS'3686'
p1808
(lp1809
Vfood
p1810
aVatmosphere
p1811
aVservicing
p1812
aVservice
p1813
asS'3685'
p1814
(lp1815
Vprice
p1816
asS'3684'
p1817
(lp1818
Vfood
p1819
aVserve
p1820
asS'2796'
p1821
(lp1822
Vfood
p1823
asS'3257'
p1824
(lp1825
Vatmosphere
p1826
aVambiance
p1827
asS'2514'
p1828
(lp1829
Vserve
p1830
aVatmosphere
p1831
aVambiance
p1832
asS'2515'
p1833
(lp1834
Vfood
p1835
aVatmosphere
p1836
aVmilitary_service
p1837
aVservice
p1838
asS'2516'
p1839
(lp1840
Vfood
p1841
aVatmosphere
p1842
aVserve
p1843
aVservice
p1844
asS'2517'
p1845
(lp1846
Vfood
p1847
aVserve
p1848
aVservice
p1849
asS'2511'
p1850
(lp1851
Vatmosphere
p1852
aVserve
p1853
aVmilitary_service
p1854
asS'2512'
p1855
(lp1856
Vfood
p1857
aVmonetary_value
p1858
aVservice
p1859
asS'2513'
p1860
(lp1861
Vfood
p1862
aVservice
p1863
asS'2734'
p1864
(lp1865
Vfood
p1866
aVatmosphere
p1867
aVambiance
p1868
aVservice
p1869
asS'2735'
p1870
(lp1871
Vatmosphere
p1872
asS'2736'
p1873
(lp1874
Vatmosphere
p1875
aVambiance
p1876
asS'2737'
p1877
(lp1878
Vfood
p1879
aVatmosphere
p1880
aVservice
p1881
asS'2730'
p1882
(lp1883
Vservice
p1884
asS'2733'
p1885
(lp1886
Vfood
p1887
aVatmosphere
p1888
aVservice
p1889
asS'2738'
p1890
(lp1891
Vambiance
p1892
aVservice
p1893
asS'2739'
p1894
(lp1895
Vfood
p1896
asS'3531'
p1897
(lp1898
Vfood
p1899
aVatmosphere
p1900
aVservice
p1901
asS'3530'
p1902
(lp1903
Vfood
p1904
asS'3533'
p1905
(lp1906
Vatmosphere
p1907
aVservice
p1908
asS'3532'
p1909
(lp1910
Vservice
p1911
asS'3535'
p1912
(lp1913
Vfood
p1914
aVmonetary_value
p1915
aVservice
p1916
asS'3534'
p1917
(lp1918
Vprice
p1919
aVoverhaul
p1920
aVservice
p1921
asS'3537'
p1922
(lp1923
Vfood
p1924
aVatmosphere
p1925
aVmonetary_value
p1926
aVservice
p1927
asS'3536'
p1928
(lp1929
Vfood
p1930
asS'3539'
p1931
(lp1932
Vfood
p1933
aVservice
p1934
asS'3538'
p1935
(lp1936
Vservice
p1937
asS'1814'
p1938
(lp1939
sS'1815'
p1940
(lp1941
Vservice
p1942
asS'1816'
p1943
(lp1944
Vservice
p1945
asS'1817'
p1946
(lp1947
sS'1811'
p1948
(lp1949
Vfood
p1950
aVambiance
p1951
aVservice
p1952
asS'1093'
p1953
(lp1954
Vatmosphere
p1955
aVambiance
p1956
aVservice
p1957
asS'1818'
p1958
(lp1959
Vservice
p1960
asS'1819'
p1961
(lp1962
Vatmosphere
p1963
asS'671'
p1964
(lp1965
Vfood
p1966
aVservice
p1967
asS'1609'
p1968
(lp1969
Vservice
p1970
asS'1608'
p1971
(lp1972
Vfood
p1973
aVatmosphere
p1974
asS'3229'
p1975
(lp1976
Vfood
p1977
aVservice
p1978
asS'3228'
p1979
(lp1980
Vfood
p1981
aVatmosphere
p1982
asS'1979'
p1983
(lp1984
Vfood
p1985
aVservicing
p1986
aVservice
p1987
asS'3225'
p1988
(lp1989
Vfood
p1990
aVservice
p1991
asS'1600'
p1992
(lp1993
Vfood
p1994
aVambiance
p1995
aVmilitary_service
p1996
asS'1975'
p1997
(lp1998
Vfood
p1999
aVoverhaul
p2000
aVservice
p2001
asS'1602'
p2002
(lp2003
Vfood
p2004
aVservice
p2005
asS'3221'
p2006
(lp2007
Vambiance
p2008
asS'1972'
p2009
(lp2010
Vfood
p2011
aVservice
p2012
asS'1971'
p2013
(lp2014
Vfood
p2015
asS'3222'
p2016
(lp2017
Vfood
p2018
aVservice
p2019
asS'809'
p2020
(lp2021
Vfood
p2022
aVmonetary_value
p2023
aVservice
p2024
aVmilitary_service
p2025
asS'808'
p2026
(lp2027
sS'803'
p2028
(lp2029
Vfood
p2030
aVatmosphere
p2031
aVservice
p2032
asS'802'
p2033
(lp2034
Vfood
p2035
aVservice
p2036
asS'801'
p2037
(lp2038
Vfood
p2039
asS'800'
p2040
(lp2041
Vfood
p2042
aVservice
p2043
asS'804'
p2044
(lp2045
Vfood
p2046
aVservice
p2047
asS'2848'
p2048
(lp2049
Vfood
p2050
aVservice
p2051
asS'2849'
p2052
(lp2053
Vprice
p2054
asS'2846'
p2055
(lp2056
Vfood
p2057
aVprice
p2058
asS'2847'
p2059
(lp2060
Vfood
p2061
aVprice
p2062
aVmilitary_service
p2063
aVservice
p2064
asS'2844'
p2065
(lp2066
Vservice
p2067
asS'2845'
p2068
(lp2069
Vservice
p2070
asS'2842'
p2071
(lp2072
Vfood
p2073
aVservicing
p2074
asS'2843'
p2075
(lp2076
Vfood
p2077
aVprice
p2078
aVservice
p2079
asS'2840'
p2080
(lp2081
Vservice
p2082
asS'2841'
p2083
(lp2084
Vfood
p2085
aVambiance
p2086
aVmilitary_service
p2087
aVservice
p2088
asS'3320'
p2089
(lp2090
Vfood
p2091
aVprice
p2092
aVmonetary_value
p2093
aVservice
p2094
asS'3321'
p2095
(lp2096
Vatmosphere
p2097
aVservice
p2098
asS'3322'
p2099
(lp2100
Vatmosphere
p2101
aVservice
p2102
asS'3323'
p2103
(lp2104
Vfood
p2105
aVmonetary_value
p2106
asS'3324'
p2107
(lp2108
Vambiance
p2109
aVservice
p2110
asS'3325'
p2111
(lp2112
Vfood
p2113
aVservice
p2114
asS'3326'
p2115
(lp2116
Vservice
p2117
asS'3327'
p2118
(lp2119
Vfood
p2120
aVatmosphere
p2121
aVoverhaul
p2122
aVservice
p2123
asS'3328'
p2124
(lp2125
Vfood
p2126
aVprice
p2127
aVservice
p2128
asS'1777'
p2129
(lp2130
sS'1771'
p2131
(lp2132
Vfood
p2133
asS'1770'
p2134
(lp2135
Vfood
p2136
aVservice
p2137
asS'1779'
p2138
(lp2139
Vatmosphere
p2140
aVmilitary_service
p2141
aVservice
p2142
asS'1778'
p2143
(lp2144
Vfood
p2145
aVatmosphere
p2146
aVambiance
p2147
aVservice
p2148
asS'321'
p2149
(lp2150
Vfood
p2151
aVatmosphere
p2152
aVprice
p2153
asS'2998'
p2154
(lp2155
Vfood
p2156
aVatmosphere
p2157
aVambiance
p2158
asS'1159'
p2159
(lp2160
Vfood
p2161
aVambiance
p2162
aVservice
p2163
asS'1158'
p2164
(lp2165
Vfood
p2166
aVservice
p2167
asS'1550'
p2168
(lp2169
Vfood
p2170
aVprice
p2171
aVservice
p2172
asS'1155'
p2173
(lp2174
Vatmosphere
p2175
asS'1154'
p2176
(lp2177
Vfood
p2178
asS'1157'
p2179
(lp2180
Vambiance
p2181
aVservice
p2182
asS'1156'
p2183
(lp2184
Vfood
p2185
aVambiance
p2186
aVservice
p2187
asS'1151'
p2188
(lp2189
Vatmosphere
p2190
aVambiance
p2191
asS'1150'
p2192
(lp2193
Vservice
p2194
asS'1153'
p2195
(lp2196
sS'1152'
p2197
(lp2198
Vfood
p2199
aVprice
p2200
aVservice
p2201
asS'59'
p2202
(lp2203
Vatmosphere
p2204
aVservice
p2205
asS'1554'
p2206
(lp2207
Vfood
p2208
aVambiance
p2209
aVservice
p2210
asS'1551'
p2211
(lp2212
Vavail
p2213
aVatmosphere
p2214
aVmilitary_service
p2215
aVservice
p2216
asS'2999'
p2217
(lp2218
Vfood
p2219
aVambiance
p2220
asS'1553'
p2221
(lp2222
Vatmosphere
p2223
asS'1552'
p2224
(lp2225
Vatmosphere
p2226
asS'1555'
p2227
(lp2228
Vmilitary_service
p2229
aVservice
p2230
asS'3039'
p2231
(lp2232
Vfood
p2233
aVservice
p2234
asS'1557'
p2235
(lp2236
Vatmosphere
p2237
aVservice
p2238
asS'1556'
p2239
(lp2240
Vfood
p2241
aVservice
p2242
asS'3034'
p2243
(lp2244
Vprice
p2245
aVatmosphere
p2246
asS'1558'
p2247
(lp2248
Vfood
p2249
aVservice
p2250
asS'2992'
p2251
(lp2252
Vatmosphere
p2253
asS'56'
p2254
(lp2255
Vatmosphere
p2256
asS'51'
p2257
(lp2258
Vfood
p2259
aVatmosphere
p2260
aVambiance
p2261
aVservice
p2262
asS'2995'
p2263
(lp2264
Vfood
p2265
asS'53'
p2266
(lp2267
Vfood
p2268
aVservice
p2269
asS'3033'
p2270
(lp2271
Vfood
p2272
aVatmosphere
p2273
aVambiance
p2274
aVservice
p2275
asS'537'
p2276
(lp2277
Vambiance
p2278
aVservice
p2279
asS'55'
p2280
(lp2281
Vfood
p2282
aVambiance
p2283
asS'533'
p2284
(lp2285
Vambiance
p2286
aVservice
p2287
asS'532'
p2288
(lp2289
Vfood
p2290
aVprice
p2291
aVatmosphere
p2292
aVservice
p2293
asS'531'
p2294
(lp2295
Vfood
p2296
aVmilitary_service
p2297
asS'530'
p2298
(lp2299
Vservice
p2300
asS'57'
p2301
(lp2302
Vfood
p2303
aVservice
p2304
asS'539'
p2305
(lp2306
Vfood
p2307
aVservice
p2308
asS'538'
p2309
(lp2310
Vatmosphere
p2311
asS'2993'
p2312
(lp2313
Vfood
p2314
aVatmosphere
p2315
asS'2994'
p2316
(lp2317
Vfood
p2318
aVmilitary_service
p2319
aVservice
p2320
asS'1906'
p2321
(lp2322
Vatmosphere
p2323
aVservice
p2324
asS'3295'
p2325
(lp2326
Vfood
p2327
asS'52'
p2328
(lp2329
Vfood
p2330
aVprice
p2331
aVatmosphere
p2332
aVservice
p2333
asS'3296'
p2334
(lp2335
Vfood
p2336
aVatmosphere
p2337
asS'1905'
p2338
(lp2339
Vservice
p2340
asS'536'
p2341
(lp2342
Vfood
p2343
asS'1902'
p2344
(lp2345
Vfood
p2346
aVservice
p2347
asS'3291'
p2348
(lp2349
Vfood
p2350
asS'429'
p2351
(lp2352
Vfood
p2353
aVservice
p2354
asS'428'
p2355
(lp2356
Vfood
p2357
aVservice
p2358
asS'1900'
p2359
(lp2360
Vfood
p2361
asS'1399'
p2362
(lp2363
Vfood
p2364
aVmilitary_service
p2365
aVservice
p2366
asS'1398'
p2367
(lp2368
Vfood
p2369
aVatmosphere
p2370
aVservice
p2371
asS'423'
p2372
(lp2373
Vatmosphere
p2374
aVambiance
p2375
aVservice
p2376
asS'1394'
p2377
(lp2378
Vatmosphere
p2379
asS'1393'
p2380
(lp2381
Vfood
p2382
aVservice
p2383
asS'1392'
p2384
(lp2385
Vserve
p2386
aVservice
p2387
asS'427'
p2388
(lp2389
Vfood
p2390
asS'426'
p2391
(lp2392
Vprice
p2393
aVambiance
p2394
aVservice
p2395
asS'854'
p2396
(lp2397
sS'3453'
p2398
(lp2399
Vfood
p2400
aVservice
p2401
asS'3074'
p2402
(lp2403
Vfood
p2404
aVprice
p2405
aVservicing
p2406
asS'3450'
p2407
(lp2408
Vfood
p2409
aVservice
p2410
asS'857'
p2411
(lp2412
Vfood
p2413
aVatmosphere
p2414
aVservice
p2415
asS'850'
p2416
(lp2417
Vmilitary_service
p2418
asS'1423'
p2419
(lp2420
Vfood
p2421
aVambiance
p2422
aVoverhaul
p2423
aVservice
p2424
asS'1321'
p2425
(lp2426
Vfood
p2427
aVatmosphere
p2428
aVambiance
p2429
aVmilitary_service
p2430
asS'258'
p2431
(lp2432
Vatmosphere
p2433
aVservice
p2434
asS'1840'
p2435
(lp2436
Vservice
p2437
asS'1970'
p2438
(lp2439
Vfood
p2440
aVatmosphere
p2441
asS'1424'
p2442
(lp2443
Vfood
p2444
aVprice
p2445
aVambiance
p2446
aVmilitary_service
p2447
aVservice
p2448
asS'2331'
p2449
(lp2450
Vservice
p2451
asS'3475'
p2452
(lp2453
Vfood
p2454
asS'2183'
p2455
(lp2456
Vfood
p2457
aVservice
p2458
asS'2187'
p2459
(lp2460
Vfood
p2461
aVservice
p2462
asS'2186'
p2463
(lp2464
Vambiance
p2465
aVservice
p2466
asS'229'
p2467
(lp2468
Vmilitary_service
p2469
asS'228'
p2470
(lp2471
Vfood
p2472
aVambiance
p2473
aVservice
p2474
asS'227'
p2475
(lp2476
Vservice
p2477
asS'226'
p2478
(lp2479
Vservice
p2480
asS'225'
p2481
(lp2482
sS'224'
p2483
(lp2484
Vfood
p2485
aVservice
p2486
asS'223'
p2487
(lp2488
sS'222'
p2489
(lp2490
Vservice
p2491
asS'221'
p2492
(lp2493
Vfood
p2494
aVservice
p2495
asS'220'
p2496
(lp2497
Vfood
p2498
aVatmosphere
p2499
aVservice
p2500
asS'2213'
p2501
(lp2502
Vatmosphere
p2503
asS'2212'
p2504
(lp2505
Vatmosphere
p2506
aVservice
p2507
asS'2211'
p2508
(lp2509
Vfood
p2510
aVservice
p2511
asS'2210'
p2512
(lp2513
Vfood
p2514
aVatmosphere
p2515
aVservice
p2516
asS'2217'
p2517
(lp2518
Vfood
p2519
aVoverhaul
p2520
asS'2216'
p2521
(lp2522
Vprice
p2523
aVatmosphere
p2524
aVmonetary_value
p2525
aVservice
p2526
asS'2215'
p2527
(lp2528
Vfood
p2529
aVatmosphere
p2530
aVmonetary_value
p2531
aVservice
p2532
asS'2214'
p2533
(lp2534
Vambiance
p2535
aVservice
p2536
asS'2219'
p2537
(lp2538
Vprice
p2539
aVambiance
p2540
aVservice
p2541
asS'2218'
p2542
(lp2543
Vfood
p2544
aVmonetary_value
p2545
aVservice
p2546
asS'151'
p2547
(lp2548
Vfood
p2549
aVatmosphere
p2550
aVmonetary_value
p2551
aVservice
p2552
asS'150'
p2553
(lp2554
Vatmosphere
p2555
aVservice
p2556
asS'2439'
p2557
(lp2558
Vprice
p2559
aVmonetary_value
p2560
aVatmosphere
p2561
asS'152'
p2562
(lp2563
Vservice
p2564
asS'154'
p2565
(lp2566
sS'2433'
p2567
(lp2568
Vfood
p2569
aVservice
p2570
asS'158'
p2571
(lp2572
Vfood
p2573
aVservice
p2574
asS'2431'
p2575
(lp2576
Vfood
p2577
aVatmosphere
p2578
asS'2437'
p2579
(lp2580
sS'2436'
p2581
(lp2582
Vfood
p2583
asS'2435'
p2584
(lp2585
Vfood
p2586
asS'2434'
p2587
(lp2588
Vfood
p2589
aVatmosphere
p2590
asS'2508'
p2591
(lp2592
Vfood
p2593
aVprice
p2594
aVserve
p2595
aVservicing
p2596
aVmilitary_service
p2597
asS'2507'
p2598
(lp2599
Vfood
p2600
asS'2506'
p2601
(lp2602
Vambiance
p2603
aVservice
p2604
asS'2503'
p2605
(lp2606
Vfood
p2607
aVatmosphere
p2608
aVmilitary_service
p2609
aVservice
p2610
asS'2502'
p2611
(lp2612
Vfood
p2613
aVserve
p2614
aVambiance
p2615
aVservice
p2616
asS'2501'
p2617
(lp2618
Vservice
p2619
asS'2500'
p2620
(lp2621
Vfood
p2622
asS'2727'
p2623
(lp2624
Vfood
p2625
aVservice
p2626
asS'2726'
p2627
(lp2628
sS'2723'
p2629
(lp2630
Vfood
p2631
aVatmosphere
p2632
aVprice
p2633
aVservice
p2634
asS'2722'
p2635
(lp2636
Vambiance
p2637
aVservice
p2638
asS'2721'
p2639
(lp2640
Vfood
p2641
asS'1712'
p2642
(lp2643
Vprice
p2644
aVatmosphere
p2645
aVservice
p2646
asS'125'
p2647
(lp2648
Vmilitary_service
p2649
asS'1805'
p2650
(lp2651
Vfood
p2652
aVatmosphere
p2653
aVservice
p2654
asS'1804'
p2655
(lp2656
sS'1803'
p2657
(lp2658
Vservice
p2659
asS'1800'
p2660
(lp2661
Vfood
p2662
aVmilitary_service
p2663
aVservice
p2664
asS'1808'
p2665
(lp2666
Vservice
p2667
asS'3258'
p2668
(lp2669
Vambiance
p2670
aVservice
p2671
asS'3259'
p2672
(lp2673
Vfood
p2674
aVservice
p2675
asS'1948'
p2676
(lp2677
Vfood
p2678
aVoverhaul
p2679
aVmilitary_service
p2680
aVservice
p2681
asS'1949'
p2682
(lp2683
Vfood
p2684
aVambiance
p2685
aVservice
p2686
asS'1942'
p2687
(lp2688
Vmilitary_service
p2689
aVservice
p2690
asS'3251'
p2691
(lp2692
Vservice
p2693
asS'1940'
p2694
(lp2695
Vfood
p2696
aVserve
p2697
aVmilitary_service
p2698
aVservice
p2699
asS'3253'
p2700
(lp2701
Vfood
p2702
aVatmosphere
p2703
aVservice
p2704
asS'3254'
p2705
(lp2706
Vfood
p2707
aVservice
p2708
asS'3255'
p2709
(lp2710
Vfood
p2711
aVatmosphere
p2712
aVmilitary_service
p2713
aVservice
p2714
asS'3256'
p2715
(lp2716
Vservice
p2717
asS'1945'
p2718
(lp2719
Vfood
p2720
aVatmosphere
p2721
aVambiance
p2722
aVservice
p2723
asS'818'
p2724
(lp2725
Vatmosphere
p2726
aVambiance
p2727
aVservice
p2728
asS'810'
p2729
(lp2730
Vfood
p2731
aVprice
p2732
aVmilitary_service
p2733
aVservice
p2734
asS'811'
p2735
(lp2736
Vatmosphere
p2737
aVservice
p2738
asS'812'
p2739
(lp2740
Vfood
p2741
aVservice
p2742
asS'813'
p2743
(lp2744
Vfood
p2745
aVoverhaul
p2746
aVservice
p2747
asS'814'
p2748
(lp2749
Vfood
p2750
asS'817'
p2751
(lp2752
Vservice
p2753
asS'2859'
p2754
(lp2755
Vserve
p2756
aVservice
p2757
asS'1991'
p2758
(lp2759
Vfood
p2760
aVmilitary_service
p2761
aVservice
p2762
asS'1522'
p2763
(lp2764
Vservice
p2765
asS'1990'
p2766
(lp2767
Vatmosphere
p2768
asS'2851'
p2769
(lp2770
Vambiance
p2771
aVservice
p2772
asS'2850'
p2773
(lp2774
Vfood
p2775
aVatmosphere
p2776
aVservice
p2777
asS'2853'
p2778
(lp2779
Vatmosphere
p2780
aVservice
p2781
asS'2852'
p2782
(lp2783
Vservice
p2784
asS'2855'
p2785
(lp2786
Vfood
p2787
aVambiance
p2788
aVservice
p2789
asS'3205'
p2790
(lp2791
Vfood
p2792
aVatmosphere
p2793
aVambiance
p2794
aVservice
p2795
asS'2856'
p2796
(lp2797
Vfood
p2798
aVambiance
p2799
asS'1490'
p2800
(lp2801
Vfood
p2802
aVserve
p2803
aVservice
p2804
asS'3332'
p2805
(lp2806
Vfood
p2807
aVprice
p2808
aVservice
p2809
asS'1492'
p2810
(lp2811
Vfood
p2812
aVatmosphere
p2813
aVservice
p2814
asS'1493'
p2815
(lp2816
Vfood
p2817
aVservice
p2818
asS'1494'
p2819
(lp2820
Vfood
p2821
aVambiance
p2822
aVservice
p2823
asS'1495'
p2824
(lp2825
Vprice
p2826
aVservicing
p2827
aVservice
p2828
asS'3335'
p2829
(lp2830
Vfood
p2831
asS'3334'
p2832
(lp2833
Vfood
p2834
aVservice
p2835
asS'3203'
p2836
(lp2837
Vfood
p2838
aVservice
p2839
asS'3339'
p2840
(lp2841
Vfood
p2842
aVambiance
p2843
aVservice
p2844
asS'1395'
p2845
(lp2846
Vfood
p2847
asS'3202'
p2848
(lp2849
Vfood
p2850
aVservice
p2851
asS'1700'
p2852
(lp2853
Vservice
p2854
asS'1701'
p2855
(lp2856
Vmilitary_service
p2857
asS'1702'
p2858
(lp2859
Vfood
p2860
aVmonetary_value
p2861
asS'1703'
p2862
(lp2863
sS'1704'
p2864
(lp2865
Vfood
p2866
aVservice
p2867
asS'3201'
p2868
(lp2869
Vfood
p2870
aVservice
p2871
asS'1706'
p2872
(lp2873
Vatmosphere
p2874
aVmilitary_service
p2875
aVservice
p2876
asS'1707'
p2877
(lp2878
Vfood
p2879
aVatmosphere
p2880
aVservice
p2881
asS'1708'
p2882
(lp2883
Vfood
p2884
aVservice
p2885
asS'1709'
p2886
(lp2887
Vfood
p2888
asS'3200'
p2889
(lp2890
sS'424'
p2891
(lp2892
Vservice
p2893
asS'3658'
p2894
(lp2895
Vservice
p2896
asS'3659'
p2897
(lp2898
Vservice
p2899
asS'1128'
p2900
(lp2901
Vfood
p2902
aVservice
p2903
asS'1129'
p2904
(lp2905
Vfood
p2906
asS'1120'
p2907
(lp2908
Vfood
p2909
aVatmosphere
p2910
aVservice
p2911
asS'1123'
p2912
(lp2913
Vfood
p2914
aVprice
p2915
aVservice
p2916
asS'1124'
p2917
(lp2918
Vservice
p2919
asS'1125'
p2920
(lp2921
Vservice
p2922
asS'1126'
p2923
(lp2924
sS'1127'
p2925
(lp2926
Vfood
p2927
aVservice
p2928
asS'2989'
p2929
(lp2930
Vfood
p2931
aVservice
p2932
asS'2988'
p2933
(lp2934
Vatmosphere
p2935
aVservice
p2936
asS'3029'
p2937
(lp2938
Vfood
p2939
aVmilitary_service
p2940
aVservice
p2941
asS'2983'
p2942
(lp2943
Vatmosphere
p2944
aVambiance
p2945
aVservice
p2946
asS'2099'
p2947
(lp2948
Vprice
p2949
aVservice
p2950
asS'3025'
p2951
(lp2952
Vprice
p2953
aVservice
p2954
asS'3024'
p2955
(lp2956
Vfood
p2957
aVatmosphere
p2958
asS'3023'
p2959
(lp2960
sS'2986'
p2961
(lp2962
Vatmosphere
p2963
aVambiance
p2964
aVmilitary_service
p2965
aVservice
p2966
asS'2985'
p2967
(lp2968
Vfood
p2969
aVservice
p2970
asS'3020'
p2971
(lp2972
Vfood
p2973
aVprice
p2974
aVservice
p2975
asS'524'
p2976
(lp2977
Vatmosphere
p2978
aVambiance
p2979
asS'527'
p2980
(lp2981
Vfood
p2982
aVserve
p2983
aVservice
p2984
asS'520'
p2985
(lp2986
Vfood
p2987
asS'1019'
p2988
(lp2989
sS'523'
p2990
(lp2991
Vfood
p2992
aVprice
p2993
asS'1014'
p2994
(lp2995
Vatmosphere
p2996
asS'1015'
p2997
(lp2998
Vfood
p2999
aVatmosphere
p3000
aVserve
p3001
aVservice
p3002
asS'1017'
p3003
(lp3004
Vfood
p3005
aVservice
p3006
asS'528'
p3007
(lp3008
Vfood
p3009
aVprice
p3010
aVservice
p3011
asS'529'
p3012
(lp3013
Vfood
p3014
aVmonetary_value
p3015
asS'1012'
p3016
(lp3017
Vfood
p3018
aVprice
p3019
asS'1013'
p3020
(lp3021
Vfood
p3022
aVambiance
p3023
aVserve
p3024
aVservice
p3025
asS'1236'
p3026
(lp3027
Vfood
p3028
aVatmosphere
p3029
asS'1237'
p3030
(lp3031
Vservice
p3032
asS'1231'
p3033
(lp3034
Vfood
p3035
aVambiance
p3036
asS'1232'
p3037
(lp3038
Vfood
p3039
asS'1233'
p3040
(lp3041
sS'1238'
p3042
(lp3043
Vservice
p3044
asS'1239'
p3045
(lp3046
Vfood
p3047
asS'438'
p3048
(lp3049
Vfood
p3050
aVambiance
p3051
asS'439'
p3052
(lp3053
Vfood
p3054
aVservice
p3055
asS'433'
p3056
(lp3057
Vfood
p3058
aVambiance
p3059
aVservice
p3060
asS'430'
p3061
(lp3062
Vfood
p3063
aVservice
p3064
asS'1966'
p3065
(lp3066
Vfood
p3067
aVatmosphere
p3068
aVservice
p3069
asS'559'
p3070
(lp3071
Vfood
p3072
aVatmosphere
p3073
asS'1967'
p3074
(lp3075
Vambiance
p3076
aVmilitary_service
p3077
asS'3162'
p3078
(lp3079
Vfood
p3080
aVambiance
p3081
asS'3160'
p3082
(lp3083
Vatmosphere
p3084
aVservice
p3085
asS'2465'
p3086
(lp3087
Vfood
p3088
asS'2948'
p3089
(lp3090
Vatmosphere
p3091
asS'997'
p3092
(lp3093
Vatmosphere
p3094
asS'238'
p3095
(lp3096
Vfood
p3097
aVservice
p3098
asS'239'
p3099
(lp3100
Vfood
p3101
asS'991'
p3102
(lp3103
Vmonetary_value
p3104
aVservice
p3105
asS'236'
p3106
(lp3107
Vfood
p3108
aVprice
p3109
asS'237'
p3110
(lp3111
Vfood
p3112
aVservice
p3113
asS'230'
p3114
(lp3115
Vfood
p3116
aVprice
p3117
aVmilitary_service
p3118
asS'231'
p3119
(lp3120
Vfood
p3121
aVatmosphere
p3122
aVprice
p3123
asS'232'
p3124
(lp3125
Vatmosphere
p3126
asS'233'
p3127
(lp3128
Vfood
p3129
aVservice
p3130
asS'2228'
p3131
(lp3132
Vservice
p3133
asS'2229'
p3134
(lp3135
sS'2226'
p3136
(lp3137
Vfood
p3138
aVmonetary_value
p3139
asS'2227'
p3140
(lp3141
Vfood
p3142
aVprice
p3143
aVmilitary_service
p3144
aVservice
p3145
asS'2224'
p3146
(lp3147
Vfood
p3148
aVservice
p3149
asS'2225'
p3150
(lp3151
Vatmosphere
p3152
aVservice
p3153
asS'2222'
p3154
(lp3155
Vfood
p3156
aVmilitary_service
p3157
aVservice
p3158
asS'2223'
p3159
(lp3160
Vfood
p3161
asS'2220'
p3162
(lp3163
Voverhaul
p3164
aVmilitary_service
p3165
aVservice
p3166
asS'2221'
p3167
(lp3168
sS'147'
p3169
(lp3170
Vfood
p3171
aVprice
p3172
aVambiance
p3173
aVatmosphere
p3174
asS'142'
p3175
(lp3176
Vfood
p3177
aVambiance
p3178
aVprice
p3179
aVoverhaul
p3180
aVservice
p3181
asS'140'
p3182
(lp3183
Vfood
p3184
aVserve
p3185
aVservicing
p3186
asS'141'
p3187
(lp3188
Vservice
p3189
asS'2468'
p3190
(lp3191
Vfood
p3192
aVservice
p3193
asS'148'
p3194
(lp3195
Vfood
p3196
aVoverhaul
p3197
aVservice
p3198
asS'149'
p3199
(lp3200
Vfood
p3201
aVservice
p3202
asS'3401'
p3203
(lp3204
Vfood
p3205
aVservice
p3206
asS'2088'
p3207
(lp3208
Vservice
p3209
asS'2089'
p3210
(lp3211
Vfood
p3212
aVservice
p3213
asS'2082'
p3214
(lp3215
sS'2083'
p3216
(lp3217
Vfood
p3218
asS'2080'
p3219
(lp3220
Vservice
p3221
asS'2081'
p3222
(lp3223
Vmonetary_value
p3224
asS'2086'
p3225
(lp3226
Vfood
p3227
aVservice
p3228
asS'2087'
p3229
(lp3230
Vprice
p3231
aVservice
p3232
asS'2084'
p3233
(lp3234
Vfood
p3235
aVatmosphere
p3236
aVservice
p3237
asS'2085'
p3238
(lp3239
Vfood
p3240
aVprice
p3241
aVservice
p3242
asS'3342'
p3243
(lp3244
sS'2538'
p3245
(lp3246
Vfood
p3247
asS'2539'
p3248
(lp3249
Vfood
p3250
aVservice
p3251
asS'1190'
p3252
(lp3253
Vambiance
p3254
aVservice
p3255
asS'2532'
p3256
(lp3257
Vprice
p3258
asS'2533'
p3259
(lp3260
Vatmosphere
p3261
asS'2536'
p3262
(lp3263
Vservice
p3264
asS'1193'
p3265
(lp3266
sS'2534'
p3267
(lp3268
sS'2535'
p3269
(lp3270
Vservice
p3271
asS'2712'
p3272
(lp3273
Vfood
p3274
aVservice
p3275
asS'2713'
p3276
(lp3277
Vatmosphere
p3278
aVambiance
p3279
asS'2710'
p3280
(lp3281
sS'2711'
p3282
(lp3283
Vfood
p3284
asS'2716'
p3285
(lp3286
Vfood
p3287
aVservice
p3288
asS'2717'
p3289
(lp3290
Vambiance
p3291
aVservice
p3292
asS'2714'
p3293
(lp3294
Vfood
p3295
asS'2715'
p3296
(lp3297
Vfood
p3298
asS'2718'
p3299
(lp3300
Vfood
p3301
aVatmosphere
p3302
aVserve
p3303
aVmilitary_service
p3304
asS'130'
p3305
(lp3306
Vservice
p3307
asS'128'
p3308
(lp3309
Vfood
p3310
asS'3344'
p3311
(lp3312
Vservice
p3313
asS'129'
p3314
(lp3315
Vfood
p3316
asS'3345'
p3317
(lp3318
Vfood
p3319
aVambiance
p3320
asS'1832'
p3321
(lp3322
Vservice
p3323
asS'1830'
p3324
(lp3325
Vfood
p3326
aVprice
p3327
aVambiance
p3328
aVservicing
p3329
aVservice
p3330
asS'1831'
p3331
(lp3332
Vservice
p3333
asS'1836'
p3334
(lp3335
Vservice
p3336
asS'1837'
p3337
(lp3338
Vservice
p3339
asS'1835'
p3340
(lp3341
Vatmosphere
p3342
aVservice
p3343
asS'1838'
p3344
(lp3345
sS'1839'
p3346
(lp3347
Vfood
p3348
asS'2406'
p3349
(lp3350
Vfood
p3351
asS'2155'
p3352
(lp3353
Vfood
p3354
asS'2156'
p3355
(lp3356
Vfood
p3357
asS'2405'
p3358
(lp3359
Vfood
p3360
aVmonetary_value
p3361
asS'2150'
p3362
(lp3363
Vfood
p3364
asS'2403'
p3365
(lp3366
Vfood
p3367
asS'2152'
p3368
(lp3369
Vfood
p3370
asS'2153'
p3371
(lp3372
Vfood
p3373
aVatmosphere
p3374
aVambiance
p3375
aVmilitary_service
p3376
aVservice
p3377
asS'932'
p3378
(lp3379
Vfood
p3380
aVprice
p3381
asS'931'
p3382
(lp3383
Vfood
p3384
aVprice
p3385
aVservice
p3386
asS'930'
p3387
(lp3388
Vfood
p3389
aVambiance
p3390
aVservice
p3391
asS'2158'
p3392
(lp3393
Vfood
p3394
aVambiance
p3395
asS'2159'
p3396
(lp3397
Vfood
p3398
aVatmosphere
p3399
aVambiance
p3400
asS'2408'
p3401
(lp3402
Vfood
p3403
aVprice
p3404
aVmonetary_value
p3405
aVservice
p3406
asS'2409'
p3407
(lp3408
Vfood
p3409
aVprice
p3410
aVservice
p3411
asS'471'
p3412
(lp3413
Vfood
p3414
asS'3091'
p3415
(lp3416
Vfood
p3417
aVatmosphere
p3418
aVambiance
p3419
aVservice
p3420
asS'1955'
p3421
(lp3422
sS'1954'
p3423
(lp3424
sS'1957'
p3425
(lp3426
Vfood
p3427
asS'1956'
p3428
(lp3429
Vfood
p3430
aVmonetary_value
p3431
asS'1951'
p3432
(lp3433
Vfood
p3434
aVatmosphere
p3435
aVambiance
p3436
aVservice
p3437
asS'1950'
p3438
(lp3439
Vfood
p3440
aVservice
p3441
asS'1953'
p3442
(lp3443
Vatmosphere
p3444
asS'1952'
p3445
(lp3446
Vfood
p3447
aVservice
p3448
asS'1959'
p3449
(lp3450
Vservice
p3451
asS'1958'
p3452
(lp3453
Vatmosphere
p3454
aVprice
p3455
aVservice
p3456
asS'3249'
p3457
(lp3458
Vfood
p3459
aVservice
p3460
asS'3248'
p3461
(lp3462
Vfood
p3463
asS'3243'
p3464
(lp3465
Vfood
p3466
aVatmosphere
p3467
aVmilitary_service
p3468
asS'3242'
p3469
(lp3470
Vatmosphere
p3471
asS'3241'
p3472
(lp3473
Vfood
p3474
aVservice
p3475
asS'3247'
p3476
(lp3477
Vfood
p3478
aVprice
p3479
aVambiance
p3480
aVservice
p3481
asS'3246'
p3482
(lp3483
sS'3245'
p3484
(lp3485
Vfood
p3486
aVservice
p3487
asS'3244'
p3488
(lp3489
Vatmosphere
p3490
aVservice
p3491
asS'828'
p3492
(lp3493
Vfood
p3494
aVservice
p3495
asS'825'
p3496
(lp3497
Vservice
p3498
asS'824'
p3499
(lp3500
Voverhaul
p3501
aVservice
p3502
asS'827'
p3503
(lp3504
Vservice
p3505
asS'826'
p3506
(lp3507
Vambiance
p3508
aVservice
p3509
asS'823'
p3510
(lp3511
Vfood
p3512
aVprice
p3513
aVservice
p3514
asS'822'
p3515
(lp3516
Vfood
p3517
aVmilitary_service
p3518
aVservice
p3519
asS'2284'
p3520
(lp3521
Vfood
p3522
aVmonetary_value
p3523
asS'1536'
p3524
(lp3525
Vfood
p3526
asS'1993'
p3527
(lp3528
Vfood
p3529
aVprice
p3530
aVambiance
p3531
aVservice
p3532
asS'3227'
p3533
(lp3534
Vfood
p3535
aVambiance
p3536
aVservice
p3537
asS'1483'
p3538
(lp3539
Vservice
p3540
asS'1482'
p3541
(lp3542
Vatmosphere
p3543
aVserve
p3544
aVservice
p3545
asS'1481'
p3546
(lp3547
Vfood
p3548
aVambiance
p3549
aVserve
p3550
asS'1480'
p3551
(lp3552
Vfood
p3553
aVserve
p3554
aVservice
p3555
asS'1487'
p3556
(lp3557
Vfood
p3558
asS'1823'
p3559
(lp3560
Vfood
p3561
asS'1485'
p3562
(lp3563
Vfood
p3564
asS'1484'
p3565
(lp3566
Vfood
p3567
aVservice
p3568
asS'3306'
p3569
(lp3570
Vservice
p3571
asS'3304'
p3572
(lp3573
Vfood
p3574
aVprice
p3575
aVambiance
p3576
aVservice
p3577
asS'3305'
p3578
(lp3579
Vfood
p3580
asS'3302'
p3581
(lp3582
Vmilitary_service
p3583
aVservice
p3584
asS'3303'
p3585
(lp3586
Vfood
p3587
asS'797'
p3588
(lp3589
Vfood
p3590
aVatmosphere
p3591
asS'928'
p3592
(lp3593
Vfood
p3594
aVatmosphere
p3595
asS'1711'
p3596
(lp3597
Vfood
p3598
aVatmosphere
p3599
aVmonetary_value
p3600
aVservice
p3601
asS'1710'
p3602
(lp3603
Vfood
p3604
aVatmosphere
p3605
aVmonetary_value
p3606
aVservice
p3607
asS'1717'
p3608
(lp3609
Vmilitary_service
p3610
aVservice
p3611
asS'792'
p3612
(lp3613
Vservice
p3614
asS'791'
p3615
(lp3616
Vfood
p3617
aVservice
p3618
asS'2410'
p3619
(lp3620
Vfood
p3621
aVservice
p3622
asS'1719'
p3623
(lp3624
sS'1718'
p3625
(lp3626
Vfood
p3627
aVservice
p3628
asS'2413'
p3629
(lp3630
Vfood
p3631
asS'799'
p3632
(lp3633
Vfood
p3634
asS'798'
p3635
(lp3636
Vprice
p3637
aVmilitary_service
p3638
asS'612'
p3639
(lp3640
Vfood
p3641
aVatmosphere
p3642
asS'2412'
p3643
(lp3644
Vfood
p3645
aVservice
p3646
asS'1271'
p3647
(lp3648
Vfood
p3649
aVservice
p3650
asS'2415'
p3651
(lp3652
Vfood
p3653
aVatmosphere
p3654
aVservice
p3655
asS'610'
p3656
(lp3657
Vfood
p3658
aVambiance
p3659
aVservice
p3660
asS'2414'
p3661
(lp3662
Vfood
p3663
aVatmosphere
p3664
aVservice
p3665
asS'1139'
p3666
(lp3667
Vfood
p3668
aVprice
p3669
aVservice
p3670
asS'1138'
p3671
(lp3672
Vfood
p3673
aVprice
p3674
asS'2417'
p3675
(lp3676
Vfood
p3677
aVservice
p3678
asS'1133'
p3679
(lp3680
Vfood
p3681
aVservice
p3682
asS'1995'
p3683
(lp3684
sS'1131'
p3685
(lp3686
Vprice
p3687
asS'1130'
p3688
(lp3689
Vfood
p3690
aVprice
p3691
aVambiance
p3692
aVatmosphere
p3693
asS'617'
p3694
(lp3695
Vambiance
p3696
aVservice
p3697
asS'2419'
p3698
(lp3699
Vfood
p3700
aVatmosphere
p3701
asS'1276'
p3702
(lp3703
Vprice
p3704
aVatmosphere
p3705
asS'2418'
p3706
(lp3707
Vfood
p3708
aVambiance
p3709
asS'615'
p3710
(lp3711
Vfood
p3712
aVatmosphere
p3713
asS'2790'
p3714
(lp3715
Vfood
p3716
aVprice
p3717
asS'3018'
p3718
(lp3719
Vservice
p3720
asS'3019'
p3721
(lp3722
Vfood
p3723
aVprice
p3724
aVserve
p3725
aVatmosphere
p3726
aVservice
p3727
asS'3012'
p3728
(lp3729
Vfood
p3730
aVmilitary_service
p3731
aVservice
p3732
asS'3013'
p3733
(lp3734
Vfood
p3735
aVmonetary_value
p3736
aVservice
p3737
asS'3011'
p3738
(lp3739
Vfood
p3740
aVambiance
p3741
aVservice
p3742
asS'3016'
p3743
(lp3744
Vatmosphere
p3745
aVprice
p3746
asS'3017'
p3747
(lp3748
Vfood
p3749
aVatmosphere
p3750
aVservice
p3751
asS'3014'
p3752
(lp3753
Vservice
p3754
asS'3015'
p3755
(lp3756
Vfood
p3757
aVatmosphere
p3758
asS'519'
p3759
(lp3760
Vfood
p3761
aVservice
p3762
asS'518'
p3763
(lp3764
Vservice
p3765
asS'926'
p3766
(lp3767
sS'1009'
p3768
(lp3769
Vfood
p3770
aVatmosphere
p3771
aVservice
p3772
asS'1008'
p3773
(lp3774
Vfood
p3775
aVatmosphere
p3776
asS'1007'
p3777
(lp3778
Vfood
p3779
aVprice
p3780
aVservice
p3781
asS'1006'
p3782
(lp3783
Vfood
p3784
aVprice
p3785
aVatmosphere
p3786
aVservice
p3787
asS'513'
p3788
(lp3789
Vfood
p3790
asS'927'
p3791
(lp3792
Vprice
p3793
aVmilitary_service
p3794
aVservice
p3795
asS'1003'
p3796
(lp3797
Vfood
p3798
asS'1002'
p3799
(lp3800
Vfood
p3801
asS'1001'
p3802
(lp3803
Vatmosphere
p3804
aVservice
p3805
asS'1000'
p3806
(lp3807
Vfood
p3808
aVservice
p3809
asS'623'
p3810
(lp3811
Vambiance
p3812
asS'1226'
p3813
(lp3814
Vfood
p3815
aVmilitary_service
p3816
asS'621'
p3817
(lp3818
Vfood
p3819
aVservice
p3820
asS'620'
p3821
(lp3822
Vfood
p3823
aVservice
p3824
asS'627'
p3825
(lp3826
Vfood
p3827
aVservice
p3828
asS'626'
p3829
(lp3830
Vfood
p3831
aVatmosphere
p3832
aVambiance
p3833
asS'625'
p3834
(lp3835
Vfood
p3836
aVatmosphere
p3837
aVservice
p3838
asS'624'
p3839
(lp3840
sS'629'
p3841
(lp3842
Vatmosphere
p3843
aVprice
p3844
aVservice
p3845
asS'628'
p3846
(lp3847
Vfood
p3848
aVprice
p3849
aVservice
p3850
asS'1228'
p3851
(lp3852
Vfood
p3853
aVservice
p3854
asS'2882'
p3855
(lp3856
Vfood
p3857
asS'2883'
p3858
(lp3859
Vfood
p3860
asS'2880'
p3861
(lp3862
Vatmosphere
p3863
asS'2881'
p3864
(lp3865
Vfood
p3866
aVambiance
p3867
aVmilitary_service
p3868
aVservice
p3869
asS'2886'
p3870
(lp3871
Vfood
p3872
aVservice
p3873
asS'2887'
p3874
(lp3875
Vfood
p3876
asS'2884'
p3877
(lp3878
Vfood
p3879
aVatmosphere
p3880
aVservice
p3881
asS'2885'
p3882
(lp3883
Vatmosphere
p3884
asS'2888'
p3885
(lp3886
Vservice
p3887
asS'2889'
p3888
(lp3889
sS'3196'
p3890
(lp3891
sS'1920'
p3892
(lp3893
Vambiance
p3894
aVmilitary_service
p3895
aVservice
p3896
asS'15'
p3897
(lp3898
Vprice
p3899
aVservice
p3900
asS'14'
p3901
(lp3902
Vatmosphere
p3903
aVmilitary_service
p3904
aVservice
p3905
asS'16'
p3906
(lp3907
Vfood
p3908
aVservice
p3909
asS'1922'
p3910
(lp3911
Vambiance
p3912
aVservice
p3913
asS'3275'
p3914
(lp3915
Vservice
p3916
asS'1925'
p3917
(lp3918
Vfood
p3919
aVatmosphere
p3920
aVservice
p3921
asS'3193'
p3922
(lp3923
Vmilitary_service
p3924
aVservice
p3925
asS'929'
p3926
(lp3927
Vfood
p3928
aVambiance
p3929
asS'201'
p3930
(lp3931
Vfood
p3932
aVprice
p3933
aVmonetary_value
p3934
asS'200'
p3935
(lp3936
Vmilitary_service
p3937
asS'202'
p3938
(lp3939
Vfood
p3940
asS'205'
p3941
(lp3942
Vservice
p3943
asS'204'
p3944
(lp3945
Vfood
p3946
aVatmosphere
p3947
aVmilitary_service
p3948
aVservice
p3949
asS'206'
p3950
(lp3951
Vfood
p3952
aVatmosphere
p3953
asS'209'
p3954
(lp3955
Vfood
p3956
aVatmosphere
p3957
aVservice
p3958
asS'208'
p3959
(lp3960
Vfood
p3961
asS'1573'
p3962
(lp3963
Vatmosphere
p3964
asS'831'
p3965
(lp3966
Vfood
p3967
asS'3470'
p3968
(lp3969
Vatmosphere
p3970
asS'687'
p3971
(lp3972
Vservice
p3973
asS'837'
p3974
(lp3975
Vatmosphere
p3976
aVmilitary_service
p3977
asS'2239'
p3978
(lp3979
Vfood
p3980
aVprice
p3981
aVambiance
p3982
aVatmosphere
p3983
asS'2238'
p3984
(lp3985
sS'1570'
p3986
(lp3987
Vfood
p3988
asS'834'
p3989
(lp3990
Vservice
p3991
asS'2230'
p3992
(lp3993
Vfood
p3994
asS'2233'
p3995
(lp3996
Vmonetary_value
p3997
asS'3473'
p3998
(lp3999
Vfood
p4000
aVatmosphere
p4001
asS'2235'
p4002
(lp4003
Vfood
p4004
aVservice
p4005
asS'2234'
p4006
(lp4007
sS'2237'
p4008
(lp4009
Vservice
p4010
asS'2236'
p4011
(lp4012
Vfood
p4013
asS'682'
p4014
(lp4015
sS'3499'
p4016
(lp4017
Vfood
p4018
aVservice
p4019
asS'3496'
p4020
(lp4021
Vfood
p4022
asS'3494'
p4023
(lp4024
Vfood
p4025
aVambiance
p4026
asS'3495'
p4027
(lp4028
sS'3492'
p4029
(lp4030
Vfood
p4031
asS'3493'
p4032
(lp4033
Vatmosphere
p4034
aVservice
p4035
asS'3490'
p4036
(lp4037
Vmilitary_service
p4038
aVservice
p4039
asS'3491'
p4040
(lp4041
Vfood
p4042
asS'2095'
p4043
(lp4044
Vfood
p4045
asS'2094'
p4046
(lp4047
sS'2097'
p4048
(lp4049
Vfood
p4050
aVservice
p4051
asS'2096'
p4052
(lp4053
Vatmosphere
p4054
asS'2091'
p4055
(lp4056
Vservice
p4057
asS'2090'
p4058
(lp4059
Vfood
p4060
aVmilitary_service
p4061
asS'2093'
p4062
(lp4063
Vservice
p4064
asS'2092'
p4065
(lp4066
sS'3654'
p4067
(lp4068
Vfood
p4069
aVservice
p4070
asS'3655'
p4071
(lp4072
Vfood
p4073
aVservice
p4074
asS'3650'
p4075
(lp4076
Vfood
p4077
asS'2098'
p4078
(lp4079
Vservice
p4080
asS'3652'
p4081
(lp4082
Vmonetary_value
p4083
asS'3653'
p4084
(lp4085
Voverhaul
p4086
aVambiance
p4087
aVservice
p4088
asS'2525'
p4089
(lp4090
Vfood
p4091
aVatmosphere
p4092
aVserve
p4093
aVservice
p4094
asS'2524'
p4095
(lp4096
Vatmosphere
p4097
asS'2526'
p4098
(lp4099
Vfood
p4100
aVmonetary_value
p4101
aVservice
p4102
asS'2521'
p4103
(lp4104
Vfood
p4105
aVambiance
p4106
aVservice
p4107
asS'2520'
p4108
(lp4109
Vatmosphere
p4110
asS'2523'
p4111
(lp4112
Vfood
p4113
aVservice
p4114
asS'2522'
p4115
(lp4116
Vfood
p4117
aVambiance
p4118
aVservice
p4119
asS'2529'
p4120
(lp4121
Vfood
p4122
aVservice
p4123
asS'2709'
p4124
(lp4125
Vfood
p4126
aVservice
p4127
asS'2708'
p4128
(lp4129
Vfood
p4130
asS'2705'
p4131
(lp4132
Vambiance
p4133
asS'2704'
p4134
(lp4135
Vatmosphere
p4136
asS'2707'
p4137
(lp4138
sS'2706'
p4139
(lp4140
Vmilitary_service
p4141
asS'2701'
p4142
(lp4143
Vfood
p4144
aVservice
p4145
asS'2700'
p4146
(lp4147
Vfood
p4148
aVservice
p4149
asS'2703'
p4150
(lp4151
sS'2702'
p4152
(lp4153
Vfood
p4154
asS'1829'
p4155
(lp4156
sS'1828'
p4157
(lp4158
Vfood
p4159
asS'1825'
p4160
(lp4161
Vatmosphere
p4162
aVambiance
p4163
aVservice
p4164
asS'1824'
p4165
(lp4166
sS'1827'
p4167
(lp4168
Vfood
p4169
aVatmosphere
p4170
aVservice
p4171
asS'1826'
p4172
(lp4173
Vfood
p4174
aVmilitary_service
p4175
asS'1821'
p4176
(lp4177
Vambiance
p4178
aVservice
p4179
asS'1820'
p4180
(lp4181
Vfood
p4182
aVatmosphere
p4183
aVmilitary_service
p4184
asS'512'
p4185
(lp4186
Vfood
p4187
aVservice
p4188
asS'1822'
p4189
(lp4190
Vfood
p4191
aVmonetary_value
p4192
asS'2147'
p4193
(lp4194
Vfood
p4195
aVatmosphere
p4196
asS'2146'
p4197
(lp4198
Vfood
p4199
aVatmosphere
p4200
aVmilitary_service
p4201
asS'2145'
p4202
(lp4203
sS'2144'
p4204
(lp4205
sS'2143'
p4206
(lp4207
sS'2142'
p4208
(lp4209
Vfood
p4210
asS'2141'
p4211
(lp4212
Vfood
p4213
asS'2140'
p4214
(lp4215
Vprice
p4216
aVservice
p4217
asS'920'
p4218
(lp4219
Vfood
p4220
asS'921'
p4221
(lp4222
Vatmosphere
p4223
asS'922'
p4224
(lp4225
Vservice
p4226
asS'923'
p4227
(lp4228
Vservice
p4229
asS'924'
p4230
(lp4231
Vfood
p4232
aVambiance
p4233
aVmilitary_service
p4234
asS'925'
p4235
(lp4236
Vservice
p4237
asS'2149'
p4238
(lp4239
Vfood
p4240
asS'2148'
p4241
(lp4242
sS'2411'
p4243
(lp4244
Vfood
p4245
aVprice
p4246
aVatmosphere
p4247
asS'3276'
p4248
(lp4249
Vprice
p4250
aVservice
p4251
asS'3277'
p4252
(lp4253
sS'3274'
p4254
(lp4255
Vfood
p4256
aVambiance
p4257
aVmilitary_service
p4258
aVservice
p4259
asS'1923'
p4260
(lp4261
Vatmosphere
p4262
asS'3272'
p4263
(lp4264
Vfood
p4265
aVservice
p4266
asS'3273'
p4267
(lp4268
Vfood
p4269
asS'1926'
p4270
(lp4271
Vfood
p4272
aVambiance
p4273
asS'1927'
p4274
(lp4275
Vprice
p4276
aVservice
p4277
asS'1928'
p4278
(lp4279
sS'1929'
p4280
(lp4281
Vfood
p4282
aVservice
p4283
asS'3278'
p4284
(lp4285
Vfood
p4286
aVprice
p4287
aVservice
p4288
asS'3279'
p4289
(lp4290
Vatmosphere
p4291
aVmonetary_value
p4292
asS'3474'
p4293
(lp4294
Vfood
p4295
aVprice
p4296
asS'833'
p4297
(lp4298
Vservice
p4299
asS'3476'
p4300
(lp4301
Vatmosphere
p4302
asS'3477'
p4303
(lp4304
Vfood
p4305
aVatmosphere
p4306
aVservice
p4307
asS'836'
p4308
(lp4309
Voverhaul
p4310
asS'3471'
p4311
(lp4312
sS'3472'
p4313
(lp4314
Vfood
p4315
aVservice
p4316
asS'835'
p4317
(lp4318
Vfood
p4319
asS'838'
p4320
(lp4321
Vfood
p4322
aVatmosphere
p4323
aVservice
p4324
asS'839'
p4325
(lp4326
Vatmosphere
p4327
aVservice
p4328
asS'3478'
p4329
(lp4330
Vservice
p4331
asS'3479'
p4332
(lp4333
Vfood
p4334
aVambiance
p4335
aVmilitary_service
p4336
aVservice
p4337
asS'3'
p4338
(lp4339
Vatmosphere
p4340
aVmilitary_service
p4341
aVservice
p4342
asS'1986'
p4343
(lp4344
Vfood
p4345
aVservice
p4346
asS'3319'
p4347
(lp4348
Vfood
p4349
aVprice
p4350
aVservice
p4351
asS'3318'
p4352
(lp4353
Vfood
p4354
aVservice
p4355
asS'3313'
p4356
(lp4357
Vservice
p4358
asS'3315'
p4359
(lp4360
Vfood
p4361
aVoverhaul
p4362
aVmonetary_value
p4363
aVservice
p4364
asS'3314'
p4365
(lp4366
Vfood
p4367
aVatmosphere
p4368
aVservice
p4369
asS'3317'
p4370
(lp4371
Vfood
p4372
aVambiance
p4373
aVservice
p4374
asS'3316'
p4375
(lp4376
Vfood
p4377
asS'784'
p4378
(lp4379
Vfood
p4380
aVatmosphere
p4381
aVmilitary_service
p4382
asS'785'
p4383
(lp4384
Vatmosphere
p4385
aVservice
p4386
asS'780'
p4387
(lp4388
Vfood
p4389
asS'781'
p4390
(lp4391
Vatmosphere
p4392
asS'1728'
p4393
(lp4394
Vatmosphere
p4395
asS'1729'
p4396
(lp4397
Vfood
p4398
asS'1727'
p4399
(lp4400
Vfood
p4401
aVservice
p4402
asS'1724'
p4403
(lp4404
Vfood
p4405
aVatmosphere
p4406
aVprice
p4407
aVservice
p4408
asS'788'
p4409
(lp4410
Vfood
p4411
aVatmosphere
p4412
aVservice
p4413
asS'1723'
p4414
(lp4415
Vfood
p4416
aVservice
p4417
asS'1720'
p4418
(lp4419
Vservice
p4420
asS'1721'
p4421
(lp4422
Vatmosphere
p4423
aVservice
p4424
aVfood
p4425
aVprice
p4426
aVambiance
p4427
aVmilitary_service
p4428
asS'153'
p4429
(lp4430
Vfood
p4431
aVatmosphere
p4432
aVambiance
p4433
aVservice
p4434
asS'3005'
p4435
(lp4436
Vfood
p4437
aVservice
p4438
asS'61'
p4439
(lp4440
Vfood
p4441
aVservice
p4442
asS'62'
p4443
(lp4444
Vfood
p4445
aVservice
p4446
asS'2438'
p4447
(lp4448
Vatmosphere
p4449
asS'3001'
p4450
(lp4451
Vmilitary_service
p4452
asS'3000'
p4453
(lp4454
Vfood
p4455
aVservice
p4456
asS'66'
p4457
(lp4458
Vmilitary_service
p4459
aVservice
p4460
asS'3002'
p4461
(lp4462
Vfood
p4463
aVambiance
p4464
asS'1985'
p4465
(lp4466
Vfood
p4467
aVmonetary_value
p4468
aVservice
p4469
asS'407'
p4470
(lp4471
Vfood
p4472
asS'406'
p4473
(lp4474
Vservice
p4475
asS'1582'
p4476
(lp4477
Vfood
p4478
aVservice
p4479
asS'1583'
p4480
(lp4481
Vservice
p4482
asS'1580'
p4483
(lp4484
Vfood
p4485
aVmilitary_service
p4486
asS'1581'
p4487
(lp4488
Vatmosphere
p4489
aVambiance
p4490
asS'1586'
p4491
(lp4492
Vfood
p4493
aVatmosphere
p4494
asS'405'
p4495
(lp4496
Vfood
p4497
aVservice
p4498
asS'1584'
p4499
(lp4500
Vatmosphere
p4501
aVservice
p4502
asS'1585'
p4503
(lp4504
Vfood
p4505
aVprice
p4506
aVservice
p4507
asS'159'
p4508
(lp4509
Vfood
p4510
aVservice
p4511
asS'1038'
p4512
(lp4513
Vfood
p4514
aVatmosphere
p4515
aVprice
p4516
aVservice
p4517
asS'1372'
p4518
(lp4519
Vatmosphere
p4520
aVservice
p4521
asS'508'
p4522
(lp4523
Vfood
p4524
aVservice
p4525
asS'509'
p4526
(lp4527
Vservice
p4528
asS'1032'
p4529
(lp4530
Vfood
p4531
aVprice
p4532
aVoverhaul
p4533
aVservice
p4534
asS'1033'
p4535
(lp4536
Vservice
p4537
asS'504'
p4538
(lp4539
Vfood
p4540
aVprice
p4541
aVservice
p4542
asS'505'
p4543
(lp4544
Vfood
p4545
aVatmosphere
p4546
asS'502'
p4547
(lp4548
Vfood
p4549
aVservice
p4550
asS'1037'
p4551
(lp4552
Vfood
p4553
asS'500'
p4554
(lp4555
sS'1035'
p4556
(lp4557
Vfood
p4558
asS'630'
p4559
(lp4560
Vfood
p4561
aVservice
p4562
asS'1213'
p4563
(lp4564
Vfood
p4565
aVservice
p4566
asS'1210'
p4567
(lp4568
Vfood
p4569
aVmonetary_value
p4570
asS'1211'
p4571
(lp4572
Vfood
p4573
aVprice
p4574
aVambiance
p4575
asS'1216'
p4576
(lp4577
Vfood
p4578
aVatmosphere
p4579
asS'401'
p4580
(lp4581
Vambiance
p4582
aVservice
p4583
asS'1214'
p4584
(lp4585
Vfood
p4586
aVatmosphere
p4587
aVserve
p4588
asS'1215'
p4589
(lp4590
Vfood
p4591
aVatmosphere
p4592
asS'638'
p4593
(lp4594
Vfood
p4595
aVmonetary_value
p4596
asS'639'
p4597
(lp4598
sS'1218'
p4599
(lp4600
Vfood
p4601
aVatmosphere
p4602
asS'1376'
p4603
(lp4604
Vfood
p4605
asS'2416'
p4606
(lp4607
Vatmosphere
p4608
aVambiance
p4609
aVprice
p4610
aVservice
p4611
asS'2899'
p4612
(lp4613
Vfood
p4614
aVserve
p4615
asS'782'
p4616
(lp4617
Vfood
p4618
aVservice
p4619
asS'2895'
p4620
(lp4621
Vfood
p4622
aVprice
p4623
aVservicing
p4624
aVatmosphere
p4625
aVmonetary_value
p4626
asS'2894'
p4627
(lp4628
Vfood
p4629
aVatmosphere
p4630
aVservice
p4631
asS'2897'
p4632
(lp4633
Vfood
p4634
aVatmosphere
p4635
aVambiance
p4636
aVmilitary_service
p4637
aVservice
p4638
asS'2896'
p4639
(lp4640
Vfood
p4641
aVatmosphere
p4642
asS'2891'
p4643
(lp4644
Vfood
p4645
aVprice
p4646
aVservicing
p4647
aVmilitary_service
p4648
asS'2890'
p4649
(lp4650
Vfood
p4651
aVservice
p4652
asS'2893'
p4653
(lp4654
Vfood
p4655
aVmilitary_service
p4656
aVservice
p4657
asS'2892'
p4658
(lp4659
Vfood
p4660
aVatmosphere
p4661
aVmilitary_service
p4662
asS'1454'
p4663
(lp4664
Vfood
p4665
aVatmosphere
p4666
aVprice
p4667
asS'1455'
p4668
(lp4669
Vfood
p4670
aVambiance
p4671
aVmilitary_service
p4672
aVservice
p4673
asS'1104'
p4674
(lp4675
Vfood
p4676
asS'1105'
p4677
(lp4678
Vambiance
p4679
aVmilitary_service
p4680
aVservice
p4681
asS'1102'
p4682
(lp4683
Vatmosphere
p4684
asS'1103'
p4685
(lp4686
Vfood
p4687
asS'1100'
p4688
(lp4689
Vservice
p4690
asS'1101'
p4691
(lp4692
Vfood
p4693
aVservice
p4694
asS'1458'
p4695
(lp4696
Vfood
p4697
aVservice
p4698
asS'1459'
p4699
(lp4700
Vfood
p4701
aVservice
p4702
asS'1108'
p4703
(lp4704
Vservice
p4705
asS'1109'
p4706
(lp4707
Vfood
p4708
aVambiance
p4709
aVservice
p4710
asS'1722'
p4711
(lp4712
Vatmosphere
p4713
aVoverhaul
p4714
aVmilitary_service
p4715
aVservice
p4716
asS'789'
p4717
(lp4718
Vfood
p4719
aVservice
p4720
asS'1357'
p4721
(lp4722
Vfood
p4723
aVservice
p4724
asS'1576'
p4725
(lp4726
Vatmosphere
p4727
aVservice
p4728
asS'959'
p4729
(lp4730
Vatmosphere
p4731
aVservice
p4732
asS'958'
p4733
(lp4734
Vfood
p4735
aVserve
p4736
asS'2794'
p4737
(lp4738
Vfood
p4739
aVservice
p4740
asS'216'
p4741
(lp4742
Vservice
p4743
asS'217'
p4744
(lp4745
Vfood
p4746
aVservice
p4747
asS'214'
p4748
(lp4749
sS'215'
p4750
(lp4751
Vfood
p4752
aVprice
p4753
asS'212'
p4754
(lp4755
Vfood
p4756
aVservice
p4757
asS'213'
p4758
(lp4759
Vfood
p4760
aVservice
p4761
asS'210'
p4762
(lp4763
Vservice
p4764
asS'211'
p4765
(lp4766
Vfood
p4767
aVprice
p4768
aVservice
p4769
asS'218'
p4770
(lp4771
Vfood
p4772
aVprice
p4773
aVservice
p4774
asS'3094'
p4775
(lp4776
sS'957'
p4777
(lp4778
Vfood
p4779
aVatmosphere
p4780
aVservice
p4781
asS'956'
p4782
(lp4783
Vfood
p4784
asS'939'
p4785
(lp4786
Vfood
p4787
asS'4'
p4788
(lp4789
Vfood
p4790
aVmilitary_service
p4791
aVservice
p4792
asS'3489'
p4793
(lp4794
Vfood
p4795
asS'3488'
p4796
(lp4797
Vservice
p4798
asS'3481'
p4799
(lp4800
Vfood
p4801
aVambiance
p4802
aVservice
p4803
asS'3480'
p4804
(lp4805
sS'3483'
p4806
(lp4807
Vfood
p4808
aVambiance
p4809
aVservice
p4810
asS'3482'
p4811
(lp4812
Vfood
p4813
aVatmosphere
p4814
asS'3487'
p4815
(lp4816
Vfood
p4817
aVatmosphere
p4818
asS'938'
p4819
(lp4820
Vfood
p4821
aVmonetary_value
p4822
aVservice
p4823
asS'2474'
p4824
(lp4825
Vfood
p4826
aVservice
p4827
asS'3649'
p4828
(lp4829
Vservice
p4830
asS'3648'
p4831
(lp4832
Vservice
p4833
asS'3647'
p4834
(lp4835
sS'3646'
p4836
(lp4837
sS'3645'
p4838
(lp4839
Vfood
p4840
aVservice
p4841
asS'3644'
p4842
(lp4843
sS'3643'
p4844
(lp4845
Vmilitary_service
p4846
asS'3642'
p4847
(lp4848
Vfood
p4849
aVservice
p4850
asS'3641'
p4851
(lp4852
Vatmosphere
p4853
asS'3640'
p4854
(lp4855
Vatmosphere
p4856
asS'2550'
p4857
(lp4858
Vfood
p4859
asS'2551'
p4860
(lp4861
sS'2553'
p4862
(lp4863
Vfood
p4864
aVambiance
p4865
asS'2554'
p4866
(lp4867
Vfood
p4868
aVservice
p4869
asS'2555'
p4870
(lp4871
Vfood
p4872
aVatmosphere
p4873
aVmonetary_value
p4874
aVservice
p4875
asS'3004'
p4876
(lp4877
Vatmosphere
p4878
aVservice
p4879
aVfood
p4880
aVprice
p4881
aVambiance
p4882
aVmilitary_service
p4883
asS'2558'
p4884
(lp4885
Vfood
p4886
aVambiance
p4887
aVservice
p4888
asS'2559'
p4889
(lp4890
Vfood
p4891
aVmilitary_service
p4892
asS'2396'
p4893
(lp4894
Vatmosphere
p4895
aVservice
p4896
asS'2397'
p4897
(lp4898
Vfood
p4899
aVservice
p4900
asS'2394'
p4901
(lp4902
Vprice
p4903
aVservice
p4904
asS'2395'
p4905
(lp4906
Vservice
p4907
asS'2392'
p4908
(lp4909
Vfood
p4910
aVservice
p4911
asS'2393'
p4912
(lp4913
Vprice
p4914
aVmilitary_service
p4915
aVservice
p4916
asS'2390'
p4917
(lp4918
Vfood
p4919
aVservice
p4920
asS'2391'
p4921
(lp4922
Vfood
p4923
asS'2398'
p4924
(lp4925
Vfood
p4926
aVprice
p4927
asS'65'
p4928
(lp4929
Vprice
p4930
aVambiance
p4931
aVmilitary_service
p4932
aVservice
p4933
asS'2778'
p4934
(lp4935
Vfood
p4936
aVservice
p4937
asS'2779'
p4938
(lp4939
Vfood
p4940
aVmilitary_service
p4941
aVservice
p4942
asS'3003'
p4943
(lp4944
Vfood
p4945
aVoverhaul
p4946
aVservice
p4947
asS'2770'
p4948
(lp4949
Vatmosphere
p4950
aVservice
p4951
asS'2771'
p4952
(lp4953
Vfood
p4954
aVprice
p4955
aVservice
p4956
asS'2772'
p4957
(lp4958
Vfood
p4959
aVatmosphere
p4960
aVprice
p4961
aVservice
p4962
asS'2773'
p4963
(lp4964
Vfood
p4965
aVservice
p4966
asS'2774'
p4967
(lp4968
Vfood
p4969
aVmonetary_value
p4970
aVservice
p4971
asS'2777'
p4972
(lp4973
Vfood
p4974
aVatmosphere
p4975
asS'3166'
p4976
(lp4977
Vfood
p4978
aVatmosphere
p4979
aVservice
p4980
asS'3167'
p4981
(lp4982
Vfood
p4983
asS'3165'
p4984
(lp4985
Vservice
p4986
asS'1851'
p4987
(lp4988
Vatmosphere
p4989
aVservice
p4990
asS'1852'
p4991
(lp4992
Vfood
p4993
aVatmosphere
p4994
asS'1853'
p4995
(lp4996
Vfood
p4997
aVatmosphere
p4998
aVmonetary_value
p4999
aVservice
p5000
asS'1854'
p5001
(lp5002
Vfood
p5003
aVservice
p5004
asS'1855'
p5005
(lp5006
Vfood
p5007
aVservice
p5008
asS'1856'
p5009
(lp5010
Vfood
p5011
aVservice
p5012
asS'1857'
p5013
(lp5014
Vfood
p5015
aVambiance
p5016
aVservice
p5017
asS'2172'
p5018
(lp5019
Vfood
p5020
asS'2173'
p5021
(lp5022
Vprice
p5023
aVservice
p5024
asS'2170'
p5025
(lp5026
Vprice
p5027
aVmilitary_service
p5028
asS'2171'
p5029
(lp5030
Vfood
p5031
aVservice
p5032
asS'2176'
p5033
(lp5034
sS'2177'
p5035
(lp5036
Vservice
p5037
asS'915'
p5038
(lp5039
Vfood
p5040
aVservice
p5041
asS'914'
p5042
(lp5043
Vatmosphere
p5044
aVservice
p5045
asS'2178'
p5046
(lp5047
Vfood
p5048
aVservice
p5049
asS'916'
p5050
(lp5051
Vfood
p5052
aVservice
p5053
asS'911'
p5054
(lp5055
Vfood
p5056
aVatmosphere
p5057
aVambiance
p5058
aVservice
p5059
asS'910'
p5060
(lp5061
Vservice
p5062
asS'913'
p5063
(lp5064
Vprice
p5065
aVservice
p5066
asS'912'
p5067
(lp5068
Vfood
p5069
aVprice
p5070
aVatmosphere
p5071
aVservice
p5072
asS'2604'
p5073
(lp5074
Vfood
p5075
aVprice
p5076
aVambiance
p5077
aVatmosphere
p5078
asS'2605'
p5079
(lp5080
Vfood
p5081
aVservice
p5082
asS'2606'
p5083
(lp5084
Vfood
p5085
aVservice
p5086
asS'2607'
p5087
(lp5088
Vfood
p5089
aVservice
p5090
asS'2600'
p5091
(lp5092
Vatmosphere
p5093
aVservice
p5094
asS'2601'
p5095
(lp5096
sS'2602'
p5097
(lp5098
Vmilitary_service
p5099
asS'1420'
p5100
(lp5101
Vfood
p5102
asS'2608'
p5103
(lp5104
Vfood
p5105
aVatmosphere
p5106
aVmilitary_service
p5107
aVservice
p5108
asS'2609'
p5109
(lp5110
sS'3261'
p5111
(lp5112
Vfood
p5113
asS'3260'
p5114
(lp5115
Vprice
p5116
aVservice
p5117
asS'3263'
p5118
(lp5119
Vfood
p5120
asS'1930'
p5121
(lp5122
Vfood
p5123
aVprice
p5124
aVservice
p5125
asS'3265'
p5126
(lp5127
Vfood
p5128
aVatmosphere
p5129
aVservice
p5130
asS'3264'
p5131
(lp5132
Vfood
p5133
asS'1935'
p5134
(lp5135
Vfood
p5136
aVprice
p5137
aVambiance
p5138
aVmilitary_service
p5139
aVservice
p5140
asS'3266'
p5141
(lp5142
Vfood
p5143
aVatmosphere
p5144
aVprice
p5145
aVservice
p5146
asS'3268'
p5147
(lp5148
Vatmosphere
p5149
asS'1939'
p5150
(lp5151
Vfood
p5152
aVambiance
p5153
asS'2051'
p5154
(lp5155
Vservice
p5156
asS'847'
p5157
(lp5158
Vfood
p5159
aVmilitary_service
p5160
aVservice
p5161
asS'846'
p5162
(lp5163
Vfood
p5164
aVatmosphere
p5165
aVmilitary_service
p5166
aVservice
p5167
asS'845'
p5168
(lp5169
Vservicing
p5170
aVservice
p5171
aVmilitary_service
p5172
asS'844'
p5173
(lp5174
Vfood
p5175
aVatmosphere
p5176
aVservice
p5177
asS'843'
p5178
(lp5179
Vfood
p5180
aVatmosphere
p5181
aVservice
p5182
asS'3462'
p5183
(lp5184
Vmonetary_value
p5185
aVservice
p5186
asS'3461'
p5187
(lp5188
sS'3460'
p5189
(lp5190
Vfood
p5191
aVservice
p5192
asS'3469'
p5193
(lp5194
Vfood
p5195
aVservice
p5196
asS'3468'
p5197
(lp5198
Vfood
p5199
aVservice
p5200
asS'3364'
p5201
(lp5202
Vfood
p5203
aVserve
p5204
aVservice
p5205
asS'3365'
p5206
(lp5207
Vserve
p5208
aVservice
p5209
asS'3361'
p5210
(lp5211
Vfood
p5212
aVservice
p5213
asS'2407'
p5214
(lp5215
Vprice
p5216
aVatmosphere
p5217
asS'1192'
p5218
(lp5219
Vfood
p5220
asS'1739'
p5221
(lp5222
Vservice
p5223
asS'1738'
p5224
(lp5225
Vmilitary_service
p5226
asS'1731'
p5227
(lp5228
Vfood
p5229
asS'1730'
p5230
(lp5231
Vfood
p5232
aVatmosphere
p5233
asS'1733'
p5234
(lp5235
Vservice
p5236
asS'1732'
p5237
(lp5238
sS'1735'
p5239
(lp5240
Vfood
p5241
aVmilitary_service
p5242
asS'1734'
p5243
(lp5244
Vservice
p5245
asS'1039'
p5246
(lp5247
Vambiance
p5248
aVservice
p5249
asS'753'
p5250
(lp5251
Vatmosphere
p5252
aVservice
p5253
asS'752'
p5254
(lp5255
Vfood
p5256
aVservice
p5257
asS'751'
p5258
(lp5259
sS'750'
p5260
(lp5261
Vfood
p5262
aVservice
p5263
asS'757'
p5264
(lp5265
Vatmosphere
p5266
aVservice
p5267
aVfood
p5268
aVprice
p5269
aVambiance
p5270
aVmilitary_service
p5271
asS'756'
p5272
(lp5273
Vfood
p5274
aVservice
p5275
asS'755'
p5276
(lp5277
Vservice
p5278
asS'754'
p5279
(lp5280
Vservice
p5281
asS'759'
p5282
(lp5283
Vfood
p5284
aVserve
p5285
aVprice
p5286
aVambiance
p5287
aVservice
p5288
asS'758'
p5289
(lp5290
Vfood
p5291
aVatmosphere
p5292
aVambiance
p5293
asS'1595'
p5294
(lp5295
Vfood
p5296
aVambiance
p5297
aVservice
p5298
asS'3071'
p5299
(lp5300
Vfood
p5301
asS'1597'
p5302
(lp5303
Vfood
p5304
aVmonetary_value
p5305
aVservice
p5306
asS'1596'
p5307
(lp5308
Vatmosphere
p5309
aVservice
p5310
aVfood
p5311
aVprice
p5312
aVambiance
p5313
aVmilitary_service
p5314
asS'2958'
p5315
(lp5316
sS'3075'
p5317
(lp5318
Vatmosphere
p5319
asS'3076'
p5320
(lp5321
sS'1592'
p5322
(lp5323
Vservice
p5324
asS'2954'
p5325
(lp5326
Vambiance
p5327
aVservice
p5328
asS'2955'
p5329
(lp5330
Vatmosphere
p5331
aVservice
p5332
asS'2956'
p5333
(lp5334
Vservice
p5335
asS'2957'
p5336
(lp5337
Vfood
p5338
aVservice
p5339
asS'1599'
p5340
(lp5341
Vfood
p5342
asS'1598'
p5343
(lp5344
sS'1024'
p5345
(lp5346
Vfood
p5347
aVprice
p5348
aVatmosphere
p5349
aVservice
p5350
asS'1027'
p5351
(lp5352
Vfood
p5353
aVatmosphere
p5354
aVservice
p5355
asS'1031'
p5356
(lp5357
Vfood
p5358
aVatmosphere
p5359
aVservice
p5360
asS'1021'
p5361
(lp5362
Vfood
p5363
aVmilitary_service
p5364
aVservice
p5365
asS'1974'
p5366
(lp5367
Vatmosphere
p5368
asS'1023'
p5369
(lp5370
Vfood
p5371
asS'1022'
p5372
(lp5373
Vfood
p5374
aVservice
p5375
asS'1029'
p5376
(lp5377
Vfood
p5378
aVservice
p5379
asS'1028'
p5380
(lp5381
Vatmosphere
p5382
asS'503'
p5383
(lp5384
Vfood
p5385
aVservice
p5386
asS'1034'
p5387
(lp5388
Vfood
p5389
aVservice
p5390
asS'501'
p5391
(lp5392
Vservice
p5393
asS'605'
p5394
(lp5395
Vfood
p5396
asS'1212'
p5397
(lp5398
Vfood
p5399
aVatmosphere
p5400
aVmilitary_service
p5401
asS'607'
p5402
(lp5403
Vatmosphere
p5404
aVambiance
p5405
aVservice
p5406
asS'606'
p5407
(lp5408
sS'1209'
p5409
(lp5410
Vfood
p5411
asS'1208'
p5412
(lp5413
Vfood
p5414
asS'603'
p5415
(lp5416
Vfood
p5417
aVservice
p5418
asS'602'
p5419
(lp5420
Vfood
p5421
aVambiance
p5422
asS'1205'
p5423
(lp5424
Vfood
p5425
aVambiance
p5426
aVservice
p5427
asS'1204'
p5428
(lp5429
Vfood
p5430
aVambiance
p5431
aVservice
p5432
asS'1207'
p5433
(lp5434
Vfood
p5435
aVservice
p5436
asS'1206'
p5437
(lp5438
Vfood
p5439
aVatmosphere
p5440
asS'609'
p5441
(lp5442
sS'1200'
p5443
(lp5444
Vfood
p5445
aVatmosphere
p5446
aVservice
p5447
asS'1203'
p5448
(lp5449
Vservice
p5450
asS'633'
p5451
(lp5452
sS'634'
p5453
(lp5454
Vfood
p5455
aVprice
p5456
aVmonetary_value
p5457
aVservice
p5458
asS'935'
p5459
(lp5460
Vatmosphere
p5461
aVservice
p5462
aVfood
p5463
aVprice
p5464
aVserve
p5465
aVmilitary_service
p5466
asS'1217'
p5467
(lp5468
Vfood
p5469
aVserve
p5470
aVatmosphere
p5471
aVambiance
p5472
asS'3108'
p5473
(lp5474
Vfood
p5475
aVatmosphere
p5476
asS'3105'
p5477
(lp5478
Vservice
p5479
asS'3106'
p5480
(lp5481
Vprice
p5482
aVservice
p5483
asS'637'
p5484
(lp5485
Vambiance
p5486
aVmilitary_service
p5487
aVservice
p5488
aVservicing
p5489
asS'3100'
p5490
(lp5491
Vfood
p5492
asS'3101'
p5493
(lp5494
sS'3102'
p5495
(lp5496
Vfood
p5497
asS'3103'
p5498
(lp5499
Vfood
p5500
aVservice
p5501
asS'1111'
p5502
(lp5503
Vfood
p5504
asS'1110'
p5505
(lp5506
Vfood
p5507
aVservice
p5508
asS'1113'
p5509
(lp5510
Vambiance
p5511
aVservice
p5512
asS'1112'
p5513
(lp5514
sS'1115'
p5515
(lp5516
Vfood
p5517
aVservice
p5518
asS'1114'
p5519
(lp5520
Vmonetary_value
p5521
aVmilitary_service
p5522
asS'1117'
p5523
(lp5524
Vfood
p5525
asS'1116'
p5526
(lp5527
Vfood
p5528
aVservice
p5529
asS'1119'
p5530
(lp5531
Vfood
p5532
aVatmosphere
p5533
aVservice
p5534
asS'1118'
p5535
(lp5536
Vservice
p5537
asS'1351'
p5538
(lp5539
Vservice
p5540
asS'1449'
p5541
(lp5542
sS'1448'
p5543
(lp5544
sS'1350'
p5545
(lp5546
sS'78'
p5547
(lp5548
Vfood
p5549
aVmilitary_service
p5550
aVservice
p5551
asS'2401'
p5552
(lp5553
Vatmosphere
p5554
asS'460'
p5555
(lp5556
Vfood
p5557
asS'463'
p5558
(lp5559
sS'489'
p5560
(lp5561
Vfood
p5562
aVmilitary_service
p5563
asS'488'
p5564
(lp5565
Vfood
p5566
aVatmosphere
p5567
aVambiance
p5568
asS'487'
p5569
(lp5570
Vprice
p5571
aVatmosphere
p5572
asS'486'
p5573
(lp5574
Vfood
p5575
aVprice
p5576
aVservice
p5577
asS'485'
p5578
(lp5579
Vatmosphere
p5580
asS'484'
p5581
(lp5582
Vfood
p5583
asS'483'
p5584
(lp5585
Vfood
p5586
aVatmosphere
p5587
asS'482'
p5588
(lp5589
Vatmosphere
p5590
asS'481'
p5591
(lp5592
Vservice
p5593
asS'480'
p5594
(lp5595
Vservice
p5596
asS'790'
p5597
(lp5598
Vfood
p5599
asS'695'
p5600
(lp5601
Vambiance
p5602
aVservice
p5603
asS'723'
p5604
(lp5605
Vfood
p5606
aVservice
p5607
asS'124'
p5608
(lp5609
Vfood
p5610
asS'992'
p5611
(lp5612
Vfood
p5613
aVatmosphere
p5614
aVservice
p5615
asS'2898'
p5616
(lp5617
Vfood
p5618
aVatmosphere
p5619
asS'3665'
p5620
(lp5621
Vatmosphere
p5622
aVservice
p5623
asS'199'
p5624
(lp5625
Vfood
p5626
aVprice
p5627
aVservice
p5628
asS'198'
p5629
(lp5630
Vfood
p5631
aVatmosphere
p5632
aVmilitary_service
p5633
asS'2289'
p5634
(lp5635
Vservice
p5636
asS'195'
p5637
(lp5638
Vfood
p5639
aVservicing
p5640
aVservice
p5641
asS'194'
p5642
(lp5643
Vservice
p5644
asS'197'
p5645
(lp5646
Vmilitary_service
p5647
aVservice
p5648
asS'196'
p5649
(lp5650
Vmilitary_service
p5651
aVservice
p5652
asS'191'
p5653
(lp5654
Vfood
p5655
aVambiance
p5656
aVservice
p5657
asS'190'
p5658
(lp5659
Vatmosphere
p5660
asS'193'
p5661
(lp5662
Vfood
p5663
asS'192'
p5664
(lp5665
Vatmosphere
p5666
aVservice
p5667
asS'3679'
p5668
(lp5669
Vatmosphere
p5670
asS'3672'
p5671
(lp5672
Vfood
p5673
aVserve
p5674
aVmilitary_service
p5675
aVservice
p5676
asS'3670'
p5677
(lp5678
Vfood
p5679
aVservice
p5680
asS'3671'
p5681
(lp5682
Vfood
p5683
aVservice
p5684
asS'3676'
p5685
(lp5686
Vfood
p5687
aVservice
p5688
asS'3677'
p5689
(lp5690
Vfood
p5691
aVoverhaul
p5692
aVservice
p5693
asS'3675'
p5694
(lp5695
Vservice
p5696
asS'2547'
p5697
(lp5698
Vfood
p5699
aVservice
p5700
asS'2546'
p5701
(lp5702
Vatmosphere
p5703
aVservice
p5704
asS'2545'
p5705
(lp5706
sS'2544'
p5707
(lp5708
Vfood
p5709
aVprice
p5710
aVambiance
p5711
aVservice
p5712
asS'2549'
p5713
(lp5714
Vservice
p5715
asS'2548'
p5716
(lp5717
Vfood
p5718
aVservice
p5719
asS'1456'
p5720
(lp5721
Vfood
p5722
aVambiance
p5723
aVservicing
p5724
aVservice
p5725
aVmonetary_value
p5726
asS'2381'
p5727
(lp5728
Vprice
p5729
aVambiance
p5730
aVservice
p5731
asS'2380'
p5732
(lp5733
Vprice
p5734
aVatmosphere
p5735
aVmilitary_service
p5736
aVservice
p5737
asS'2382'
p5738
(lp5739
Vservice
p5740
asS'2385'
p5741
(lp5742
Vservice
p5743
asS'2384'
p5744
(lp5745
Vfood
p5746
asS'2387'
p5747
(lp5748
Vfood
p5749
aVatmosphere
p5750
aVservice
p5751
asS'2386'
p5752
(lp5753
Vfood
p5754
aVservice
p5755
asS'2389'
p5756
(lp5757
Vfood
p5758
aVatmosphere
p5759
aVservice
p5760
asS'2388'
p5761
(lp5762
sS'3580'
p5763
(lp5764
Vfood
p5765
asS'3581'
p5766
(lp5767
Vfood
p5768
aVservice
p5769
asS'3582'
p5770
(lp5771
Vfood
p5772
asS'2768'
p5773
(lp5774
Vfood
p5775
aVservice
p5776
asS'3584'
p5777
(lp5778
sS'3585'
p5779
(lp5780
Vfood
p5781
asS'3587'
p5782
(lp5783
Vfood
p5784
aVmilitary_service
p5785
aVservice
p5786
asS'3588'
p5787
(lp5788
Vmilitary_service
p5789
aVservice
p5790
asS'3589'
p5791
(lp5792
sS'2767'
p5793
(lp5794
Vfood
p5795
aVprice
p5796
aVambiance
p5797
asS'2766'
p5798
(lp5799
Vfood
p5800
aVservice
p5801
asS'2765'
p5802
(lp5803
Vfood
p5804
aVprice
p5805
aVatmosphere
p5806
aVservice
p5807
asS'2764'
p5808
(lp5809
Vfood
p5810
asS'902'
p5811
(lp5812
Vfood
p5813
aVatmosphere
p5814
asS'903'
p5815
(lp5816
Vfood
p5817
asS'900'
p5818
(lp5819
Vambiance
p5820
asS'901'
p5821
(lp5822
Vatmosphere
p5823
aVambiance
p5824
aVservice
p5825
asS'906'
p5826
(lp5827
Vfood
p5828
aVservice
p5829
asS'907'
p5830
(lp5831
sS'904'
p5832
(lp5833
Vfood
p5834
aVprice
p5835
aVambiance
p5836
aVservice
p5837
asS'905'
p5838
(lp5839
Vfood
p5840
aVservice
p5841
asS'1843'
p5842
(lp5843
Vfood
p5844
aVprice
p5845
aVatmosphere
p5846
aVservice
p5847
asS'1842'
p5848
(lp5849
Vfood
p5850
aVambiance
p5851
asS'1841'
p5852
(lp5853
Vservice
p5854
asS'909'
p5855
(lp5856
Vfood
p5857
aVambiance
p5858
aVservice
p5859
asS'1846'
p5860
(lp5861
Vfood
p5862
aVatmosphere
p5863
aVservice
p5864
asS'1845'
p5865
(lp5866
Vfood
p5867
aVservice
p5868
asS'1844'
p5869
(lp5870
Vfood
p5871
aVmilitary_service
p5872
aVservice
p5873
asS'3250'
p5874
(lp5875
Vatmosphere
p5876
aVprice
p5877
aVservice
p5878
aVmilitary_service
p5879
asS'2169'
p5880
(lp5881
Vfood
p5882
asS'2168'
p5883
(lp5884
sS'2165'
p5885
(lp5886
Vfood
p5887
asS'2164'
p5888
(lp5889
Vfood
p5890
aVservice
p5891
asS'2167'
p5892
(lp5893
Vfood
p5894
aVservice
p5895
asS'2166'
p5896
(lp5897
Vambiance
p5898
asS'2161'
p5899
(lp5900
Vfood
p5901
asS'2160'
p5902
(lp5903
Vfood
p5904
aVservice
p5905
asS'2163'
p5906
(lp5907
Vfood
p5908
aVatmosphere
p5909
aVmilitary_service
p5910
asS'2162'
p5911
(lp5912
sS'2617'
p5913
(lp5914
Vambiance
p5915
asS'2616'
p5916
(lp5917
sS'2615'
p5918
(lp5919
Vatmosphere
p5920
aVserve
p5921
aVservice
p5922
asS'2614'
p5923
(lp5924
Vfood
p5925
aVambiance
p5926
aVatmosphere
p5927
aVserve
p5928
aVmilitary_service
p5929
asS'2611'
p5930
(lp5931
Vfood
p5932
asS'2610'
p5933
(lp5934
Vfood
p5935
aVatmosphere
p5936
aVambiance
p5937
aVservice
p5938
asS'1946'
p5939
(lp5940
Vfood
p5941
aVatmosphere
p5942
aVambiance
p5943
asS'1947'
p5944
(lp5945
Vfood
p5946
aVatmosphere
p5947
aVmilitary_service
p5948
asS'3298'
p5949
(lp5950
Vfood
p5951
aVservice
p5952
asS'3299'
p5953
(lp5954
Vmilitary_service
p5955
aVservice
p5956
asS'1908'
p5957
(lp5958
Vservice
p5959
asS'1909'
p5960
(lp5961
Vfood
p5962
aVservicing
p5963
asS'3294'
p5964
(lp5965
Vfood
p5966
aVservice
p5967
asS'1907'
p5968
(lp5969
Vfood
p5970
aVservice
p5971
asS'1904'
p5972
(lp5973
Vatmosphere
p5974
asS'3297'
p5975
(lp5976
Vprice
p5977
aVservice
p5978
asS'3290'
p5979
(lp5980
Vfood
p5981
asS'1903'
p5982
(lp5983
Vservice
p5984
asS'3292'
p5985
(lp5986
Vservice
p5987
asS'3293'
p5988
(lp5989
sS'3452'
p5990
(lp5991
Vfood
p5992
aVservice
p5993
asS'855'
p5994
(lp5995
sS'856'
p5996
(lp5997
Vatmosphere
p5998
aVoverhaul
p5999
aVservice
p6000
aVfood
p6001
aVprice
p6002
aVambiance
p6003
asS'3451'
p6004
(lp6005
Vfood
p6006
aVservice
p6007
asS'3456'
p6008
(lp6009
Vatmosphere
p6010
aVmilitary_service
p6011
asS'3457'
p6012
(lp6013
Vatmosphere
p6014
aVmonetary_value
p6015
asS'3454'
p6016
(lp6017
Vfood
p6018
asS'3455'
p6019
(lp6020
Vservice
p6021
asS'3458'
p6022
(lp6023
Vfood
p6024
asS'3459'
p6025
(lp6026
Vfood
p6027
aVatmosphere
p6028
aVservice
p6029
asS'858'
p6030
(lp6031
Vprice
p6032
aVoverhaul
p6033
aVservice
p6034
asS'859'
p6035
(lp6036
Vfood
p6037
aVprice
p6038
aVambiance
p6039
aVmilitary_service
p6040
aVservice
p6041
asS'1186'
p6042
(lp6043
Vfood
p6044
aVprice
p6045
asS'425'
p6046
(lp6047
Vmonetary_value
p6048
aVservice
p6049
asS'740'
p6050
(lp6051
Vatmosphere
p6052
aVprice
p6053
aVservice
p6054
aVmilitary_service
p6055
asS'741'
p6056
(lp6057
Vfood
p6058
asS'742'
p6059
(lp6060
Vfood
p6061
aVatmosphere
p6062
aVserve
p6063
aVservice
p6064
asS'743'
p6065
(lp6066
sS'744'
p6067
(lp6068
Vservice
p6069
asS'745'
p6070
(lp6071
Vservice
p6072
asS'746'
p6073
(lp6074
Vservice
p6075
asS'747'
p6076
(lp6077
Vservice
p6078
asS'748'
p6079
(lp6080
Vfood
p6081
aVprice
p6082
asS'749'
p6083
(lp6084
Vfood
p6085
aVatmosphere
p6086
aVambiance
p6087
aVmilitary_service
p6088
asS'1799'
p6089
(lp6090
Vservice
p6091
asS'3063'
p6092
(lp6093
sS'3062'
p6094
(lp6095
Vservice
p6096
asS'3061'
p6097
(lp6098
Vfood
p6099
aVprice
p6100
aVambiance
p6101
aVservicing
p6102
aVservice
p6103
asS'3060'
p6104
(lp6105
Vservice
p6106
asS'3067'
p6107
(lp6108
Vfood
p6109
asS'2949'
p6110
(lp6111
Vfood
p6112
aVmilitary_service
p6113
aVservice
p6114
asS'3064'
p6115
(lp6116
sS'2947'
p6117
(lp6118
Vfood
p6119
aVatmosphere
p6120
asS'2946'
p6121
(lp6122
Vfood
p6123
aVprice
p6124
aVmilitary_service
p6125
aVservice
p6126
asS'2945'
p6127
(lp6128
Vmilitary_service
p6129
aVservice
p6130
asS'2944'
p6131
(lp6132
Vfood
p6133
aVservice
p6134
asS'2943'
p6135
(lp6136
sS'2942'
p6137
(lp6138
Vfood
p6139
asS'2941'
p6140
(lp6141
Vfood
p6142
aVservice
p6143
asS'2940'
p6144
(lp6145
Vfood
p6146
aVservice
p6147
asS'1050'
p6148
(lp6149
Voverhaul
p6150
aVservice
p6151
asS'1051'
p6152
(lp6153
Vservice
p6154
asS'1052'
p6155
(lp6156
Vfood
p6157
asS'1053'
p6158
(lp6159
Vfood
p6160
aVservice
p6161
asS'1054'
p6162
(lp6163
Vservice
p6164
asS'1055'
p6165
(lp6166
Vfood
p6167
aVatmosphere
p6168
asS'1056'
p6169
(lp6170
Vfood
p6171
aVmonetary_value
p6172
asS'1057'
p6173
(lp6174
Vfood
p6175
aVprice
p6176
aVservice
p6177
asS'1058'
p6178
(lp6179
sS'1059'
p6180
(lp6181
Vfood
p6182
aVservice
p6183
asS'717'
p6184
(lp6185
Vfood
p6186
aVatmosphere
p6187
asS'1692'
p6188
(lp6189
Vfood
p6190
aVatmosphere
p6191
asS'1693'
p6192
(lp6193
Vprice
p6194
aVservice
p6195
asS'1690'
p6196
(lp6197
Vfood
p6198
aVservice
p6199
asS'1691'
p6200
(lp6201
Vfood
p6202
asS'715'
p6203
(lp6204
Vfood
p6205
aVservice
p6206
asS'1698'
p6207
(lp6208
Vfood
p6209
aVservice
p6210
asS'1699'
p6211
(lp6212
Vfood
p6213
asS'1278'
p6214
(lp6215
Vfood
p6216
asS'1279'
p6217
(lp6218
Vfood
p6219
aVserve
p6220
asS'618'
p6221
(lp6222
Vatmosphere
p6223
aVservice
p6224
asS'619'
p6225
(lp6226
Vfood
p6227
aVservice
p6228
asS'1270'
p6229
(lp6230
Vfood
p6231
asS'613'
p6232
(lp6233
sS'1272'
p6234
(lp6235
Vfood
p6236
aVservice
p6237
asS'611'
p6238
(lp6239
Vfood
p6240
aVatmosphere
p6241
aVservice
p6242
asS'616'
p6243
(lp6244
sS'1275'
p6245
(lp6246
Vfood
p6247
asS'614'
p6248
(lp6249
Vfood
p6250
aVambiance
p6251
aVservice
p6252
asS'1277'
p6253
(lp6254
sS'1795'
p6255
(lp6256
Vservice
p6257
asS'1794'
p6258
(lp6259
Vfood
p6260
asS'3119'
p6261
(lp6262
Vambiance
p6263
aVservice
p6264
asS'3118'
p6265
(lp6266
Vfood
p6267
asS'3117'
p6268
(lp6269
Vfood
p6270
asS'3116'
p6271
(lp6272
Vfood
p6273
aVservice
p6274
asS'3115'
p6275
(lp6276
Vprice
p6277
aVservice
p6278
asS'3114'
p6279
(lp6280
Vfood
p6281
aVprice
p6282
aVmilitary_service
p6283
aVservice
p6284
asS'3113'
p6285
(lp6286
Vservice
p6287
asS'3112'
p6288
(lp6289
Vfood
p6290
aVservice
p6291
asS'3111'
p6292
(lp6293
Vservice
p6294
asS'1472'
p6295
(lp6296
Vambiance
p6297
aVservice
p6298
asS'1473'
p6299
(lp6300
Vfood
p6301
asS'1470'
p6302
(lp6303
Vfood
p6304
aVatmosphere
p6305
asS'1471'
p6306
(lp6307
Vservice
p6308
asS'1477'
p6309
(lp6310
Vfood
p6311
aVatmosphere
p6312
aVmilitary_service
p6313
aVservice
p6314
asS'1474'
p6315
(lp6316
Vfood
p6317
aVambiance
p6318
aVservice
p6319
asS'1475'
p6320
(lp6321
Vservice
p6322
asS'1478'
p6323
(lp6324
Vprice
p6325
aVmonetary_value
p6326
aVservice
p6327
asS'1479'
p6328
(lp6329
Vambiance
p6330
asS'3336'
p6331
(lp6332
Vatmosphere
p6333
asS'1304'
p6334
(lp6335
Vfood
p6336
aVprice
p6337
aVservice
p6338
asS'1305'
p6339
(lp6340
Vfood
p6341
aVatmosphere
p6342
aVmilitary_service
p6343
asS'1306'
p6344
(lp6345
Vfood
p6346
aVatmosphere
p6347
asS'1307'
p6348
(lp6349
Vservice
p6350
asS'1300'
p6351
(lp6352
Vservice
p6353
asS'1301'
p6354
(lp6355
Vfood
p6356
asS'1302'
p6357
(lp6358
Vfood
p6359
aVmonetary_value
p6360
aVservice
p6361
asS'1303'
p6362
(lp6363
Vatmosphere
p6364
aVambiance
p6365
aVmonetary_value
p6366
asS'1497'
p6367
(lp6368
Vservice
p6369
asS'1309'
p6370
(lp6371
Vfood
p6372
asS'3590'
p6373
(lp6374
Vfood
p6375
aVservice
p6376
asS'498'
p6377
(lp6378
sS'499'
p6379
(lp6380
Vfood
p6381
aVatmosphere
p6382
asS'494'
p6383
(lp6384
Vfood
p6385
asS'495'
p6386
(lp6387
Vservice
p6388
asS'496'
p6389
(lp6390
Vfood
p6391
aVambiance
p6392
aVservice
p6393
asS'497'
p6394
(lp6395
Vservice
p6396
asS'490'
p6397
(lp6398
Vfood
p6399
aVatmosphere
p6400
aVambiance
p6401
aVservice
p6402
asS'491'
p6403
(lp6404
Vfood
p6405
asS'492'
p6406
(lp6407
Vfood
p6408
aVatmosphere
p6409
aVserve
p6410
aVservice
p6411
asS'493'
p6412
(lp6413
Vfood
p6414
aVprice
p6415
aVatmosphere
p6416
asS'24'
p6417
(lp6418
sS'25'
p6419
(lp6420
Vfood
p6421
aVmilitary_service
p6422
aVservice
p6423
asS'21'
p6424
(lp6425
sS'28'
p6426
(lp6427
Vfood
p6428
asS'29'
p6429
(lp6430
Vfood
p6431
aVmilitary_service
p6432
asS'3262'
p6433
(lp6434
sS'1705'
p6435
(lp6436
Vfood
p6437
aVatmosphere
p6438
aVservice
p6439
asS'1601'
p6440
(lp6441
Vfood
p6442
asS'1604'
p6443
(lp6444
Vfood
p6445
aVambiance
p6446
asS'3267'
p6447
(lp6448
Vfood
p6449
aVservice
p6450
asS'7'
p6451
(lp6452
Vmilitary_service
p6453
aVservice
p6454
asS'2288'
p6455
(lp6456
Vfood
p6457
asS'3664'
p6458
(lp6459
Vservice
p6460
asS'3667'
p6461
(lp6462
Vfood
p6463
aVmonetary_value
p6464
aVservice
p6465
asS'3666'
p6466
(lp6467
Vfood
p6468
aVambiance
p6469
aVservice
p6470
asS'3661'
p6471
(lp6472
Vfood
p6473
asS'3660'
p6474
(lp6475
Vprice
p6476
aVatmosphere
p6477
aVservice
p6478
asS'3663'
p6479
(lp6480
Vfood
p6481
aVservice
p6482
asS'3662'
p6483
(lp6484
Vfood
p6485
aVservice
p6486
asS'2280'
p6487
(lp6488
Vfood
p6489
aVmilitary_service
p6490
aVservice
p6491
asS'2281'
p6492
(lp6493
Vatmosphere
p6494
aVoverhaul
p6495
aVprice
p6496
aVservice
p6497
asS'2282'
p6498
(lp6499
Vambiance
p6500
aVservice
p6501
asS'2283'
p6502
(lp6503
Vfood
p6504
aVambiance
p6505
aVservice
p6506
asS'3669'
p6507
(lp6508
Vservice
p6509
asS'2285'
p6510
(lp6511
Vfood
p6512
asS'2286'
p6513
(lp6514
Vprice
p6515
aVservice
p6516
asS'2287'
p6517
(lp6518
Vfood
p6519
aVambiance
p6520
aVservice
p6521
asS'1605'
p6522
(lp6523
Vfood
p6524
aVservice
p6525
asS'2578'
p6526
(lp6527
Vservice
p6528
asS'2579'
p6529
(lp6530
sS'2576'
p6531
(lp6532
Vfood
p6533
aVservice
p6534
asS'2577'
p6535
(lp6536
Vprice
p6537
aVservicing
p6538
aVservice
p6539
asS'2574'
p6540
(lp6541
Vfood
p6542
asS'2575'
p6543
(lp6544
sS'2572'
p6545
(lp6546
Vfood
p6547
asS'2573'
p6548
(lp6549
Vfood
p6550
aVservice
p6551
asS'2570'
p6552
(lp6553
Vfood
p6554
aVservice
p6555
asS'2571'
p6556
(lp6557
Vatmosphere
p6558
aVoverhaul
p6559
aVservice
p6560
asS'3690'
p6561
(lp6562
Vfood
p6563
asS'2378'
p6564
(lp6565
Vfood
p6566
aVservice
p6567
asS'2379'
p6568
(lp6569
Vmilitary_service
p6570
aVservice
p6571
asS'601'
p6572
(lp6573
Vfood
p6574
aVatmosphere
p6575
aVservice
p6576
asS'2377'
p6577
(lp6578
Vfood
p6579
asS'2370'
p6580
(lp6581
Vserve
p6582
asS'2372'
p6583
(lp6584
Vatmosphere
p6585
asS'2594'
p6586
(lp6587
sS'2595'
p6588
(lp6589
Vfood
p6590
aVambiance
p6591
asS'2596'
p6592
(lp6593
sS'2597'
p6594
(lp6595
Vfood
p6596
aVmilitary_service
p6597
aVservice
p6598
asS'2590'
p6599
(lp6600
Vfood
p6601
aVoverhaul
p6602
aVservice
p6603
asS'2591'
p6604
(lp6605
Vatmosphere
p6606
asS'2592'
p6607
(lp6608
Vfood
p6609
aVserve
p6610
asS'2593'
p6611
(lp6612
Vfood
p6613
asS'3599'
p6614
(lp6615
Vfood
p6616
asS'3598'
p6617
(lp6618
Vfood
p6619
asS'2598'
p6620
(lp6621
sS'2599'
p6622
(lp6623
Vatmosphere
p6624
aVservice
p6625
asS'1874'
p6626
(lp6627
Vfood
p6628
asS'1872'
p6629
(lp6630
Vfood
p6631
aVmilitary_service
p6632
aVservice
p6633
asS'1873'
p6634
(lp6635
Vfood
p6636
aVatmosphere
p6637
asS'1870'
p6638
(lp6639
Vservice
p6640
asS'1871'
p6641
(lp6642
Vservice
p6643
asS'600'
p6644
(lp6645
Vfood
p6646
aVservice
p6647
asS'1607'
p6648
(lp6649
Vfood
p6650
aVambiance
p6651
aVmilitary_service
p6652
aVservice
p6653
asS'1878'
p6654
(lp6655
Vfood
p6656
aVambiance
p6657
aVservice
p6658
asS'1879'
p6659
(lp6660
Vfood
p6661
aVservice
p6662
asS'977'
p6663
(lp6664
Vfood
p6665
aVservice
p6666
asS'182'
p6667
(lp6668
Vservice
p6669
asS'974'
p6670
(lp6671
Vfood
p6672
aVatmosphere
p6673
aVservice
p6674
asS'973'
p6675
(lp6676
Vatmosphere
p6677
aVservice
p6678
asS'972'
p6679
(lp6680
Vfood
p6681
aVatmosphere
p6682
aVambiance
p6683
aVservice
p6684
asS'971'
p6685
(lp6686
Vfood
p6687
aVservice
p6688
asS'970'
p6689
(lp6690
Vfood
p6691
aVprice
p6692
asS'1080'
p6693
(lp6694
Vfood
p6695
asS'979'
p6696
(lp6697
Vatmosphere
p6698
aVserve
p6699
aVservice
p6700
asS'978'
p6701
(lp6702
Vfood
p6703
aVmilitary_service
p6704
asS'2118'
p6705
(lp6706
Vservice
p6707
asS'2119'
p6708
(lp6709
Vatmosphere
p6710
aVservice
p6711
asS'180'
p6712
(lp6713
Vfood
p6714
asS'181'
p6715
(lp6716
Vfood
p6717
asS'186'
p6718
(lp6719
Vfood
p6720
aVatmosphere
p6721
aVprice
p6722
asS'187'
p6723
(lp6724
Vservice
p6725
asS'184'
p6726
(lp6727
Vservice
p6728
asS'185'
p6729
(lp6730
Vfood
p6731
asS'2112'
p6732
(lp6733
Vfood
p6734
aVservice
p6735
asS'2113'
p6736
(lp6737
Vatmosphere
p6738
asS'2114'
p6739
(lp6740
Vfood
p6741
aVservice
p6742
asS'2115'
p6743
(lp6744
Vfood
p6745
aVambiance
p6746
aVservice
p6747
asS'2116'
p6748
(lp6749
Vfood
p6750
aVservice
p6751
asS'1559'
p6752
(lp6753
Vfood
p6754
asS'2622'
p6755
(lp6756
Vfood
p6757
aVmonetary_value
p6758
aVservice
p6759
asS'2623'
p6760
(lp6761
Vatmosphere
p6762
aVprice
p6763
asS'2620'
p6764
(lp6765
Vservice
p6766
asS'2621'
p6767
(lp6768
Vfood
p6769
aVservice
p6770
asS'2627'
p6771
(lp6772
Vatmosphere
p6773
aVservice
p6774
asS'2624'
p6775
(lp6776
Vatmosphere
p6777
asS'60'
p6778
(lp6779
sS'1919'
p6780
(lp6781
sS'1918'
p6782
(lp6783
Vfood
p6784
aVservice
p6785
asS'3289'
p6786
(lp6787
Vfood
p6788
aVatmosphere
p6789
aVmilitary_service
p6790
aVservice
p6791
asS'3288'
p6792
(lp6793
sS'1911'
p6794
(lp6795
Vfood
p6796
aVambiance
p6797
aVmonetary_value
p6798
aVservice
p6799
asS'1910'
p6800
(lp6801
Vfood
p6802
asS'3285'
p6803
(lp6804
sS'1912'
p6805
(lp6806
sS'3282'
p6807
(lp6808
Vfood
p6809
aVmilitary_service
p6810
asS'3281'
p6811
(lp6812
Vatmosphere
p6813
aVservice
p6814
asS'3280'
p6815
(lp6816
Vfood
p6817
aVprice
p6818
asS'869'
p6819
(lp6820
Vatmosphere
p6821
aVservice
p6822
asS'868'
p6823
(lp6824
Vatmosphere
p6825
aVserve
p6826
aVservice
p6827
asS'189'
p6828
(lp6829
Vfood
p6830
aVprice
p6831
aVatmosphere
p6832
aVservice
p6833
asS'861'
p6834
(lp6835
Vfood
p6836
aVservice
p6837
asS'860'
p6838
(lp6839
Vmilitary_service
p6840
aVservice
p6841
asS'863'
p6842
(lp6843
Vfood
p6844
aVatmosphere
p6845
asS'862'
p6846
(lp6847
Vservice
p6848
asS'865'
p6849
(lp6850
Vfood
p6851
asS'3440'
p6852
(lp6853
Vfood
p6854
aVmonetary_value
p6855
asS'3443'
p6856
(lp6857
Vservice
p6858
asS'3442'
p6859
(lp6860
Vfood
p6861
aVprice
p6862
aVservice
p6863
asS'2024'
p6864
(lp6865
Vfood
p6866
aVservice
p6867
asS'2757'
p6868
(lp6869
Vservice
p6870
asS'2026'
p6871
(lp6872
Vfood
p6873
asS'2027'
p6874
(lp6875
Vatmosphere
p6876
aVambiance
p6877
asS'2020'
p6878
(lp6879
Vfood
p6880
asS'2753'
p6881
(lp6882
Vfood
p6883
aVatmosphere
p6884
aVprice
p6885
aVmilitary_service
p6886
aVservice
p6887
asS'2751'
p6888
(lp6889
sS'2828'
p6890
(lp6891
Vservice
p6892
asS'2117'
p6893
(lp6894
Vfood
p6895
asS'2028'
p6896
(lp6897
Vfood
p6898
aVprice
p6899
aVservice
p6900
asS'2029'
p6901
(lp6902
Vfood
p6903
aVatmosphere
p6904
aVservice
p6905
asS'2829'
p6906
(lp6907
sS'883'
p6908
(lp6909
Vfood
p6910
aVservice
p6911
asS'882'
p6912
(lp6913
Vfood
p6914
aVatmosphere
p6915
aVservice
p6916
asS'881'
p6917
(lp6918
sS'880'
p6919
(lp6920
Vfood
p6921
aVambiance
p6922
aVservice
p6923
asS'887'
p6924
(lp6925
Vfood
p6926
asS'885'
p6927
(lp6928
Vfood
p6929
aVatmosphere
p6930
asS'884'
p6931
(lp6932
sS'889'
p6933
(lp6934
Vatmosphere
p6935
aVservice
p6936
asS'888'
p6937
(lp6938
Vfood
p6939
aVservice
p6940
asS'1340'
p6941
(lp6942
Vfood
p6943
aVservice
p6944
asS'3149'
p6945
(lp6946
Vservice
p6947
asS'775'
p6948
(lp6949
Vfood
p6950
aVserve
p6951
aVservice
p6952
asS'774'
p6953
(lp6954
Vfood
p6955
asS'777'
p6956
(lp6957
Vfood
p6958
asS'776'
p6959
(lp6960
Vfood
p6961
asS'771'
p6962
(lp6963
Vfood
p6964
aVmilitary_service
p6965
aVservice
p6966
asS'770'
p6967
(lp6968
Vatmosphere
p6969
aVprice
p6970
aVservice
p6971
asS'773'
p6972
(lp6973
Vfood
p6974
aVservice
p6975
asS'772'
p6976
(lp6977
Vfood
p6978
aVmilitary_service
p6979
aVservice
p6980
asS'779'
p6981
(lp6982
Vprice
p6983
aVatmosphere
p6984
aVambiance
p6985
aVmilitary_service
p6986
aVservice
p6987
asS'778'
p6988
(lp6989
Vfood
p6990
aVservice
p6991
asS'419'
p6992
(lp6993
Vfood
p6994
aVambiance
p6995
aVservice
p6996
asS'77'
p6997
(lp6998
Vfood
p6999
aVambiance
p7000
aVmilitary_service
p7001
aVservice
p7002
asS'76'
p7003
(lp7004
Vservice
p7005
asS'2978'
p7006
(lp7007
Vatmosphere
p7008
aVservicing
p7009
aVservice
p7010
asS'2979'
p7011
(lp7012
Vfood
p7013
asS'72'
p7014
(lp7015
Vfood
p7016
aVatmosphere
p7017
aVambiance
p7018
aVservice
p7019
asS'3058'
p7020
(lp7021
Vatmosphere
p7022
aVambiance
p7023
asS'3059'
p7024
(lp7025
Vfood
p7026
asS'2972'
p7027
(lp7028
Vambiance
p7029
aVservice
p7030
asS'3057'
p7031
(lp7032
sS'2970'
p7033
(lp7034
sS'2971'
p7035
(lp7036
sS'2976'
p7037
(lp7038
Vfood
p7039
aVambiance
p7040
aVmonetary_value
p7041
aVservice
p7042
asS'2977'
p7043
(lp7044
Vfood
p7045
aVprice
p7046
aVservice
p7047
asS'3050'
p7048
(lp7049
Vprice
p7050
asS'3051'
p7051
(lp7052
Vatmosphere
p7053
asS'1041'
p7054
(lp7055
Vmilitary_service
p7056
aVservice
p7057
asS'1040'
p7058
(lp7059
Vfood
p7060
aVservice
p7061
asS'1047'
p7062
(lp7063
sS'1046'
p7064
(lp7065
sS'1045'
p7066
(lp7067
Vfood
p7068
asS'1044'
p7069
(lp7070
Vatmosphere
p7071
asS'1049'
p7072
(lp7073
Vfood
p7074
aVmilitary_service
p7075
asS'1681'
p7076
(lp7077
Vservice
p7078
asS'1680'
p7079
(lp7080
Vprice
p7081
aVservice
p7082
asS'1683'
p7083
(lp7084
Vfood
p7085
aVprice
p7086
aVservice
p7087
asS'1684'
p7088
(lp7089
Vservice
p7090
asS'1687'
p7091
(lp7092
Vfood
p7093
aVservice
p7094
asS'1686'
p7095
(lp7096
Vfood
p7097
aVmonetary_value
p7098
aVservice
p7099
asS'1689'
p7100
(lp7101
Vfood
p7102
aVprice
p7103
asS'1688'
p7104
(lp7105
Vservice
p7106
asS'1269'
p7107
(lp7108
Vfood
p7109
aVatmosphere
p7110
aVoverhaul
p7111
aVservice
p7112
asS'2980'
p7113
(lp7114
sS'669'
p7115
(lp7116
sS'668'
p7117
(lp7118
Vfood
p7119
aVatmosphere
p7120
aVambiance
p7121
aVservice
p7122
asS'667'
p7123
(lp7124
Vmonetary_value
p7125
aVservice
p7126
asS'666'
p7127
(lp7128
Vfood
p7129
aVservice
p7130
asS'665'
p7131
(lp7132
Vfood
p7133
aVatmosphere
p7134
aVservice
p7135
asS'664'
p7136
(lp7137
Vmilitary_service
p7138
asS'663'
p7139
(lp7140
Vfood
p7141
asS'662'
p7142
(lp7143
Vfood
p7144
asS'661'
p7145
(lp7146
Vservice
p7147
asS'3022'
p7148
(lp7149
Vfood
p7150
aVatmosphere
p7151
aVservice
p7152
asS'3021'
p7153
(lp7154
Vatmosphere
p7155
aVmilitary_service
p7156
asS'3095'
p7157
(lp7158
Vservice
p7159
asS'2984'
p7160
(lp7161
Vfood
p7162
asS'1913'
p7163
(lp7164
Vatmosphere
p7165
aVservice
p7166
asS'3128'
p7167
(lp7168
Vfood
p7169
aVambiance
p7170
aVmilitary_service
p7171
asS'3129'
p7172
(lp7173
Vatmosphere
p7174
aVservice
p7175
asS'3122'
p7176
(lp7177
Vservice
p7178
asS'3123'
p7179
(lp7180
Vfood
p7181
aVatmosphere
p7182
aVservice
p7183
asS'3120'
p7184
(lp7185
Vfood
p7186
asS'3121'
p7187
(lp7188
Vmilitary_service
p7189
asS'3126'
p7190
(lp7191
Vatmosphere
p7192
aVservice
p7193
asS'3127'
p7194
(lp7195
Vatmosphere
p7196
asS'1469'
p7197
(lp7198
Vfood
p7199
asS'1468'
p7200
(lp7201
Vservice
p7202
asS'1465'
p7203
(lp7204
Vmilitary_service
p7205
aVservice
p7206
asS'1018'
p7207
(lp7208
Vfood
p7209
aVservice
p7210
asS'1467'
p7211
(lp7212
Vservice
p7213
asS'1916'
p7214
(lp7215
sS'1461'
p7216
(lp7217
Vambiance
p7218
aVservice
p7219
asS'1460'
p7220
(lp7221
Vservicing
p7222
aVservice
p7223
asS'1462'
p7224
(lp7225
Vfood
p7226
aVservice
p7227
asS'1317'
p7228
(lp7229
Vatmosphere
p7230
aVmonetary_value
p7231
asS'1316'
p7232
(lp7233
Vfood
p7234
aVambiance
p7235
aVservice
p7236
asS'1315'
p7237
(lp7238
Vprice
p7239
aVmonetary_value
p7240
aVmilitary_service
p7241
asS'1314'
p7242
(lp7243
sS'1313'
p7244
(lp7245
Vfood
p7246
aVservice
p7247
asS'1312'
p7248
(lp7249
Vatmosphere
p7250
aVservice
p7251
asS'1311'
p7252
(lp7253
Vfood
p7254
asS'1310'
p7255
(lp7256
sS'1319'
p7257
(lp7258
Vfood
p7259
aVprice
p7260
aVservice
p7261
asS'1318'
p7262
(lp7263
Vatmosphere
p7264
aVservice
p7265
asS'1010'
p7266
(lp7267
Vservice
p7268
asS'464'
p7269
(lp7270
Vfood
p7271
aVatmosphere
p7272
aVservice
p7273
asS'1011'
p7274
(lp7275
Vfood
p7276
aVatmosphere
p7277
aVservice
p7278
asS'318'
p7279
(lp7280
Vfood
p7281
aVatmosphere
p7282
aVambiance
p7283
aVprice
p7284
asS'313'
p7285
(lp7286
Vmonetary_value
p7287
asS'3441'
p7288
(lp7289
Vfood
p7290
aVmonetary_value
p7291
asS'317'
p7292
(lp7293
Vfood
p7294
asS'316'
p7295
(lp7296
Vfood
p7297
aVatmosphere
p7298
aVservice
p7299
asS'315'
p7300
(lp7301
Vfood
p7302
aVatmosphere
p7303
aVservice
p7304
asS'864'
p7305
(lp7306
Vfood
p7307
aVatmosphere
p7308
asS'867'
p7309
(lp7310
sS'1618'
p7311
(lp7312
Vfood
p7313
aVservice
p7314
asS'866'
p7315
(lp7316
Vambiance
p7317
aVmilitary_service
p7318
asS'2025'
p7319
(lp7320
Vfood
p7321
asS'2754'
p7322
(lp7323
Vfood
p7324
aVprice
p7325
aVserve
p7326
aVmonetary_value
p7327
aVservice
p7328
asS'1335'
p7329
(lp7330
Vfood
p7331
aVatmosphere
p7332
aVservice
p7333
asS'1030'
p7334
(lp7335
Vservice
p7336
asS'1334'
p7337
(lp7338
Vatmosphere
p7339
asS'2752'
p7340
(lp7341
Vfood
p7342
aVambiance
p7343
aVservice
p7344
asS'1331'
p7345
(lp7346
Vservice
p7347
asS'2698'
p7348
(lp7349
Vatmosphere
p7350
aVservice
p7351
asS'446'
p7352
(lp7353
Vambiance
p7354
aVservice
p7355
asS'2692'
p7356
(lp7357
Vfood
p7358
aVatmosphere
p7359
aVmilitary_service
p7360
asS'2461'
p7361
(lp7362
Vfood
p7363
aVoverhaul
p7364
asS'3610'
p7365
(lp7366
Vprice
p7367
aVatmosphere
p7368
aVservice
p7369
asS'3611'
p7370
(lp7371
Vmilitary_service
p7372
aVservice
p7373
asS'2299'
p7374
(lp7375
Vfood
p7376
aVambiance
p7377
aVmilitary_service
p7378
asS'3613'
p7379
(lp7380
Vambiance
p7381
aVmilitary_service
p7382
aVservice
p7383
asS'3617'
p7384
(lp7385
Vprice
p7386
aVambiance
p7387
asS'2293'
p7388
(lp7389
Vambiance
p7390
aVservice
p7391
asS'3619'
p7392
(lp7393
Vfood
p7394
aVmilitary_service
p7395
asS'2290'
p7396
(lp7397
Vfood
p7398
aVambiance
p7399
asS'2297'
p7400
(lp7401
Vfood
p7402
asS'2296'
p7403
(lp7404
sS'2295'
p7405
(lp7406
Vfood
p7407
aVatmosphere
p7408
aVmilitary_service
p7409
asS'2294'
p7410
(lp7411
Vfood
p7412
aVatmosphere
p7413
aVambiance
p7414
aVservice
p7415
asS'2569'
p7416
(lp7417
Voverhaul
p7418
aVservice
p7419
asS'2568'
p7420
(lp7421
sS'2560'
p7422
(lp7423
Vfood
p7424
aVatmosphere
p7425
aVambiance
p7426
aVservice
p7427
asS'2563'
p7428
(lp7429
Vfood
p7430
aVambiance
p7431
asS'1615'
p7432
(lp7433
Vmilitary_service
p7434
aVservice
p7435
asS'2567'
p7436
(lp7437
Vfood
p7438
aVprice
p7439
aVmonetary_value
p7440
asS'403'
p7441
(lp7442
Vfood
p7443
aVservice
p7444
asS'908'
p7445
(lp7446
Vfood
p7447
aVatmosphere
p7448
aVmonetary_value
p7449
asS'2369'
p7450
(lp7451
sS'2367'
p7452
(lp7453
Vservice
p7454
asS'2366'
p7455
(lp7456
sS'2365'
p7457
(lp7458
Vfood
p7459
aVservice
p7460
asS'2364'
p7461
(lp7462
Vatmosphere
p7463
aVmilitary_service
p7464
aVservice
p7465
asS'2363'
p7466
(lp7467
Vfood
p7468
asS'2361'
p7469
(lp7470
Vfood
p7471
aVambiance
p7472
asS'2360'
p7473
(lp7474
Vmilitary_service
p7475
aVservice
p7476
asS'2587'
p7477
(lp7478
Vambiance
p7479
aVservice
p7480
asS'2586'
p7481
(lp7482
Vfood
p7483
aVprice
p7484
aVatmosphere
p7485
asS'2585'
p7486
(lp7487
Vservice
p7488
asS'2584'
p7489
(lp7490
Vservice
p7491
asS'2582'
p7492
(lp7493
Vfood
p7494
aVprice
p7495
aVservice
p7496
asS'2581'
p7497
(lp7498
Vservice
p7499
asS'2580'
p7500
(lp7501
Vfood
p7502
aVatmosphere
p7503
aVservice
p7504
asS'1612'
p7505
(lp7506
Vfood
p7507
asS'402'
p7508
(lp7509
Vfood
p7510
asS'2589'
p7511
(lp7512
Vfood
p7513
aVservice
p7514
asS'2588'
p7515
(lp7516
Vfood
p7517
aVatmosphere
p7518
aVservice
p7519
asS'1861'
p7520
(lp7521
Vfood
p7522
aVservice
p7523
asS'1860'
p7524
(lp7525
Vfood
p7526
aVservice
p7527
asS'1865'
p7528
(lp7529
Vfood
p7530
aVserve
p7531
aVservice
p7532
asS'1867'
p7533
(lp7534
Vfood
p7535
aVservice
p7536
asS'1866'
p7537
(lp7538
Vfood
p7539
aVservice
p7540
asS'1869'
p7541
(lp7542
Vfood
p7543
aVservice
p7544
asS'1868'
p7545
(lp7546
Vfood
p7547
aVservice
p7548
asS'964'
p7549
(lp7550
Vmilitary_service
p7551
aVservice
p7552
asS'965'
p7553
(lp7554
sS'966'
p7555
(lp7556
Vprice
p7557
aVfood
p7558
aVatmosphere
p7559
aVmonetary_value
p7560
aVservice
p7561
asS'967'
p7562
(lp7563
Vfood
p7564
aVatmosphere
p7565
aVmilitary_service
p7566
aVservice
p7567
asS'960'
p7568
(lp7569
Vfood
p7570
aVservice
p7571
asS'961'
p7572
(lp7573
Vservice
p7574
asS'962'
p7575
(lp7576
Vservice
p7577
asS'1613'
p7578
(lp7579
sS'968'
p7580
(lp7581
Vfood
p7582
aVatmosphere
p7583
aVambiance
p7584
aVservice
p7585
asS'969'
p7586
(lp7587
Vfood
p7588
aVprice
p7589
aVambiance
p7590
aVatmosphere
p7591
asS'2109'
p7592
(lp7593
Vfood
p7594
aVatmosphere
p7595
aVservice
p7596
asS'2108'
p7597
(lp7598
sS'2103'
p7599
(lp7600
Vfood
p7601
asS'2102'
p7602
(lp7603
Vfood
p7604
aVmonetary_value
p7605
aVservice
p7606
asS'2101'
p7607
(lp7608
Vfood
p7609
asS'2100'
p7610
(lp7611
Vfood
p7612
aVservice
p7613
asS'2107'
p7614
(lp7615
Vfood
p7616
aVservice
p7617
asS'2105'
p7618
(lp7619
Vfood
p7620
aVprice
p7621
asS'2104'
p7622
(lp7623
Vfood
p7624
aVatmosphere
p7625
aVservice
p7626
asS'2639'
p7627
(lp7628
Vfood
p7629
aVprice
p7630
aVmilitary_service
p7631
asS'2638'
p7632
(lp7633
Vfood
p7634
asS'635'
p7635
(lp7636
Vfood
p7637
aVatmosphere
p7638
aVmilitary_service
p7639
asS'2635'
p7640
(lp7641
sS'2634'
p7642
(lp7643
Vservice
p7644
asS'2637'
p7645
(lp7646
Vfood
p7647
asS'2636'
p7648
(lp7649
Vfood
p7650
asS'2631'
p7651
(lp7652
Vfood
p7653
aVmilitary_service
p7654
aVservice
p7655
asS'2630'
p7656
(lp7657
Vservice
p7658
asS'3438'
p7659
(lp7660
Vfood
p7661
aVatmosphere
p7662
aVserve
p7663
aVmilitary_service
p7664
aVservice
p7665
asS'3439'
p7666
(lp7667
Vmonetary_value
p7668
aVservice
p7669
asS'878'
p7670
(lp7671
Vfood
p7672
asS'3093'
p7673
(lp7674
sS'876'
p7675
(lp7676
Vservice
p7677
asS'3431'
p7678
(lp7679
sS'874'
p7680
(lp7681
Vfood
p7682
aVservice
p7683
asS'3433'
p7684
(lp7685
Vfood
p7686
aVprice
p7687
aVatmosphere
p7688
aVservice
p7689
asS'3434'
p7690
(lp7691
Vfood
p7692
asS'3435'
p7693
(lp7694
Vfood
p7695
aVservice
p7696
asS'870'
p7697
(lp7698
Vfood
p7699
aVprice
p7700
aVmonetary_value
p7701
asS'3437'
p7702
(lp7703
Vfood
p7704
asS'2741'
p7705
(lp7706
Vfood
p7707
aVatmosphere
p7708
aVservice
p7709
asS'2036'
p7710
(lp7711
Vatmosphere
p7712
aVservice
p7713
asS'2035'
p7714
(lp7715
Vfood
p7716
aVatmosphere
p7717
aVmilitary_service
p7718
aVservice
p7719
asS'2742'
p7720
(lp7721
Vfood
p7722
asS'2033'
p7723
(lp7724
Vfood
p7725
asS'2747'
p7726
(lp7727
Vfood
p7728
aVservice
p7729
asS'2030'
p7730
(lp7731
Vfood
p7732
aVservicing
p7733
aVservice
p7734
asS'9'
p7735
(lp7736
Vservice
p7737
asS'2748'
p7738
(lp7739
Vfood
p7740
aVservice
p7741
asS'2039'
p7742
(lp7743
Vfood
p7744
asS'2038'
p7745
(lp7746
Vfood
p7747
asS'891'
p7748
(lp7749
Vfood
p7750
aVservice
p7751
asS'892'
p7752
(lp7753
Vfood
p7754
aVservice
p7755
asS'894'
p7756
(lp7757
Vprice
p7758
aVservice
p7759
asS'895'
p7760
(lp7761
sS'896'
p7762
(lp7763
Vfood
p7764
asS'897'
p7765
(lp7766
Vfood
p7767
aVservice
p7768
asS'898'
p7769
(lp7770
Vfood
p7771
aVservice
p7772
asS'899'
p7773
(lp7774
Vfood
p7775
aVservice
p7776
asS'646'
p7777
(lp7778
Vfood
p7779
asS'3651'
p7780
(lp7781
Vservice
p7782
asS'783'
p7783
(lp7784
sS'1968'
p7785
(lp7786
Vfood
p7787
aVservice
p7788
asS'1969'
p7789
(lp7790
Vfood
p7791
aVatmosphere
p7792
aVservice
p7793
asS'3544'
p7794
(lp7795
Vfood
p7796
aVatmosphere
p7797
asS'3545'
p7798
(lp7799
Vatmosphere
p7800
asS'3546'
p7801
(lp7802
Vfood
p7803
aVservice
p7804
asS'3547'
p7805
(lp7806
Vfood
p7807
aVmonetary_value
p7808
asS'3541'
p7809
(lp7810
Vfood
p7811
asS'3542'
p7812
(lp7813
Vfood
p7814
aVservice
p7815
asS'3543'
p7816
(lp7817
Vfood
p7818
aVprice
p7819
aVmilitary_service
p7820
aVservice
p7821
asS'3235'
p7822
(lp7823
Vfood
p7824
aVserve
p7825
aVmilitary_service
p7826
aVservice
p7827
asS'1964'
p7828
(lp7829
Vfood
p7830
asS'422'
p7831
(lp7832
Vatmosphere
p7833
asS'1965'
p7834
(lp7835
Vservice
p7836
asS'3238'
p7837
(lp7838
Vfood
p7839
asS'3069'
p7840
(lp7841
sS'2965'
p7842
(lp7843
Vfood
p7844
aVmilitary_service
p7845
asS'2964'
p7846
(lp7847
Vfood
p7848
aVservice
p7849
asS'2967'
p7850
(lp7851
Vfood
p7852
aVservice
p7853
asS'769'
p7854
(lp7855
Vfood
p7856
aVservice
p7857
asS'2961'
p7858
(lp7859
Vatmosphere
p7860
aVoverhaul
p7861
asS'2960'
p7862
(lp7863
Vfood
p7864
aVatmosphere
p7865
asS'2963'
p7866
(lp7867
Vfood
p7868
aVprice
p7869
aVservice
p7870
asS'2962'
p7871
(lp7872
Vfood
p7873
aVservice
p7874
asS'1780'
p7875
(lp7876
Vfood
p7877
aVoverhaul
p7878
aVservice
p7879
asS'1781'
p7880
(lp7881
Vfood
p7882
aVservice
p7883
asS'760'
p7884
(lp7885
Vatmosphere
p7886
aVambiance
p7887
asS'1783'
p7888
(lp7889
sS'2969'
p7890
(lp7891
Vservice
p7892
asS'767'
p7893
(lp7894
Vfood
p7895
aVatmosphere
p7896
aVambiance
p7897
aVservice
p7898
asS'764'
p7899
(lp7900
Vfood
p7901
aVservice
p7902
asS'765'
p7903
(lp7904
Vfood
p7905
aVmonetary_value
p7906
asS'3049'
p7907
(lp7908
Vfood
p7909
aVatmosphere
p7910
asS'3048'
p7911
(lp7912
Vfood
p7913
aVservice
p7914
asS'3041'
p7915
(lp7916
Vfood
p7917
aVservice
p7918
asS'3040'
p7919
(lp7920
Vfood
p7921
asS'3043'
p7922
(lp7923
Vfood
p7924
asS'3042'
p7925
(lp7926
Vfood
p7927
aVprice
p7928
aVatmosphere
p7929
asS'3045'
p7930
(lp7931
sS'3044'
p7932
(lp7933
Vfood
p7934
asS'3047'
p7935
(lp7936
Vfood
p7937
aVatmosphere
p7938
aVmilitary_service
p7939
asS'3046'
p7940
(lp7941
Vatmosphere
p7942
aVservice
p7943
asS'1078'
p7944
(lp7945
Vfood
p7946
aVmilitary_service
p7947
asS'1077'
p7948
(lp7949
sS'1074'
p7950
(lp7951
Vatmosphere
p7952
aVambiance
p7953
aVservice
p7954
asS'1070'
p7955
(lp7956
Vservice
p7957
asS'1071'
p7958
(lp7959
Vprice
p7960
aVservice
p7961
asS'1678'
p7962
(lp7963
Vprice
p7964
asS'1679'
p7965
(lp7966
Vfood
p7967
aVprice
p7968
aVservice
p7969
asS'3030'
p7970
(lp7971
sS'1674'
p7972
(lp7973
Vfood
p7974
aVmilitary_service
p7975
asS'1675'
p7976
(lp7977
Vfood
p7978
aVprice
p7979
asS'1676'
p7980
(lp7981
Vatmosphere
p7982
aVservice
p7983
asS'1677'
p7984
(lp7985
Vmilitary_service
p7986
aVservice
p7987
asS'1670'
p7988
(lp7989
Vservice
p7990
asS'1671'
p7991
(lp7992
Vfood
p7993
aVprice
p7994
aVservice
p7995
asS'1672'
p7996
(lp7997
Vfood
p7998
aVprice
p7999
asS'1673'
p8000
(lp8001
Vfood
p8002
aVservice
p8003
asS'1094'
p8004
(lp8005
Vfood
p8006
asS'1095'
p8007
(lp8008
Vfood
p8009
aVprice
p8010
aVserve
p8011
aVatmosphere
p8012
aVservice
p8013
asS'1096'
p8014
(lp8015
Vfood
p8016
aVatmosphere
p8017
aVambiance
p8018
aVservice
p8019
asS'1097'
p8020
(lp8021
Voverhaul
p8022
aVmonetary_value
p8023
aVservice
p8024
asS'678'
p8025
(lp8026
Vfood
p8027
aVservice
p8028
asS'679'
p8029
(lp8030
sS'1092'
p8031
(lp8032
Vfood
p8033
aVservice
p8034
asS'1534'
p8035
(lp8036
Vfood
p8037
aVprice
p8038
aVservice
p8039
asS'674'
p8040
(lp8041
Vfood
p8042
aVmilitary_service
p8043
aVservice
p8044
asS'675'
p8045
(lp8046
Vfood
p8047
aVatmosphere
p8048
aVmilitary_service
p8049
aVservice
p8050
asS'676'
p8051
(lp8052
Vfood
p8053
aVatmosphere
p8054
asS'677'
p8055
(lp8056
Vprice
p8057
asS'1098'
p8058
(lp8059
Vservice
p8060
asS'1099'
p8061
(lp8062
Vfood
p8063
asS'672'
p8064
(lp8065
Vfood
p8066
aVatmosphere
p8067
aVservice
p8068
asS'673'
p8069
(lp8070
Vfood
p8071
aVservice
p8072
asS'3135'
p8073
(lp8074
Vfood
p8075
aVatmosphere
p8076
asS'3134'
p8077
(lp8078
Vfood
p8079
aVmilitary_service
p8080
aVservice
p8081
asS'3137'
p8082
(lp8083
Vfood
p8084
asS'3136'
p8085
(lp8086
Vmilitary_service
p8087
asS'3131'
p8088
(lp8089
Vprice
p8090
asS'3130'
p8091
(lp8092
Vfood
p8093
asS'3133'
p8094
(lp8095
Vservice
p8096
asS'3139'
p8097
(lp8098
Vfood
p8099
aVservice
p8100
asS'3138'
p8101
(lp8102
Vfood
p8103
aVatmosphere
p8104
aVservice
p8105
asS'1533'
p8106
(lp8107
Vfood
p8108
aVservice
p8109
asS'1622'
p8110
(lp8111
Vatmosphere
p8112
aVservice
p8113
asS'1418'
p8114
(lp8115
Vservice
p8116
asS'1419'
p8117
(lp8118
sS'1410'
p8119
(lp8120
Vmonetary_value
p8121
asS'1411'
p8122
(lp8123
Vfood
p8124
asS'1412'
p8125
(lp8126
Vservice
p8127
asS'1413'
p8128
(lp8129
Vfood
p8130
aVambiance
p8131
aVservice
p8132
asS'1414'
p8133
(lp8134
sS'1415'
p8135
(lp8136
Vfood
p8137
aVservice
p8138
asS'1416'
p8139
(lp8140
Vfood
p8141
aVmonetary_value
p8142
asS'1417'
p8143
(lp8144
Vservice
p8145
asS'1322'
p8146
(lp8147
Vfood
p8148
asS'1323'
p8149
(lp8150
Vservice
p8151
asS'1320'
p8152
(lp8153
Vfood
p8154
aVatmosphere
p8155
aVservice
p8156
asS'1532'
p8157
(lp8158
Vfood
p8159
aVservicing
p8160
asS'1326'
p8161
(lp8162
Vfood
p8163
asS'1327'
p8164
(lp8165
Vfood
p8166
aVatmosphere
p8167
aVservice
p8168
asS'1324'
p8169
(lp8170
Vservice
p8171
asS'1325'
p8172
(lp8173
Vfood
p8174
aVprice
p8175
aVservice
p8176
asS'1328'
p8177
(lp8178
Vfood
p8179
aVatmosphere
p8180
aVservice
p8181
asS'1329'
p8182
(lp8183
Vservice
p8184
asS'5'
p8185
(lp8186
Vatmosphere
p8187
asS'1531'
p8188
(lp8189
sS'1917'
p8190
(lp8191
Vfood
p8192
aVatmosphere
p8193
aVservice
p8194
asS'3618'
p8195
(lp8196
Vfood
p8197
aVservice
p8198
asS'1254'
p8199
(lp8200
Vfood
p8201
aVservice
p8202
asS'1527'
p8203
(lp8204
Vservice
p8205
asS'1250'
p8206
(lp8207
Vfood
p8208
aVservice
p8209
asS'1528'
p8210
(lp8211
Vfood
p8212
aVambiance
p8213
asS'308'
p8214
(lp8215
Vfood
p8216
aVatmosphere
p8217
aVprice
p8218
aVservice
p8219
asS'309'
p8220
(lp8221
Vmilitary_service
p8222
aVservice
p8223
asS'300'
p8224
(lp8225
Vfood
p8226
aVservice
p8227
asS'301'
p8228
(lp8229
Vfood
p8230
aVservice
p8231
asS'302'
p8232
(lp8233
Vatmosphere
p8234
aVservice
p8235
asS'303'
p8236
(lp8237
Vfood
p8238
aVservice
p8239
asS'304'
p8240
(lp8241
Vfood
p8242
aVatmosphere
p8243
asS'305'
p8244
(lp8245
Vfood
p8246
asS'306'
p8247
(lp8248
Vfood
p8249
aVservice
p8250
asS'307'
p8251
(lp8252
Vatmosphere
p8253
aVservice
p8254
asS'1792'
p8255
(lp8256
Vatmosphere
p8257
aVmilitary_service
p8258
aVservice
p8259
asS'1626'
p8260
(lp8261
Vatmosphere
p8262
aVprice
p8263
asS'75'
p8264
(lp8265
Vfood
p8266
asS'2399'
p8267
(lp8268
Vfood
p8269
aVatmosphere
p8270
asS'71'
p8271
(lp8272
Vfood
p8273
aVatmosphere
p8274
aVambiance
p8275
aVservicing
p8276
aVservice
p8277
asS'70'
p8278
(lp8279
Vfood
p8280
aVatmosphere
p8281
aVservice
p8282
asS'3056'
p8283
(lp8284
Vfood
p8285
aVatmosphere
p8286
aVserve
p8287
aVservice
p8288
asS'989'
p8289
(lp8290
Vfood
p8291
aVservice
p8292
asS'2973'
p8293
(lp8294
Vfood
p8295
aVservice
p8296
asS'1447'
p8297
(lp8298
Vfood
p8299
asS'3052'
p8300
(lp8301
Vservice
p8302
asS'3412'
p8303
(lp8304
Vatmosphere
p8305
aVmilitary_service
p8306
aVservice
p8307
asS'3053'
p8308
(lp8309
Vprice
p8310
aVservice
p8311
asS'2974'
p8312
(lp8313
Vfood
p8314
aVservice
p8315
asS'2975'
p8316
(lp8317
Vfood
p8318
aVservice
p8319
asS'3603'
p8320
(lp8321
Vfood
p8322
aVambiance
p8323
asS'3602'
p8324
(lp8325
sS'3601'
p8326
(lp8327
Vfood
p8328
aVatmosphere
p8329
aVservice
p8330
asS'3600'
p8331
(lp8332
Vfood
p8333
aVservice
p8334
asS'3607'
p8335
(lp8336
Vfood
p8337
asS'3606'
p8338
(lp8339
Vfood
p8340
asS'3605'
p8341
(lp8342
Vfood
p8343
aVprice
p8344
aVservice
p8345
asS'3604'
p8346
(lp8347
Vambiance
p8348
aVmilitary_service
p8349
aVservice
p8350
asS'3609'
p8351
(lp8352
sS'3608'
p8353
(lp8354
Vfood
p8355
aVatmosphere
p8356
aVprice
p8357
asS'3413'
p8358
(lp8359
Vmilitary_service
p8360
aVservice
p8361
asS'2479'
p8362
(lp8363
Vfood
p8364
aVservice
p8365
asS'2478'
p8366
(lp8367
Vservice
p8368
asS'470'
p8369
(lp8370
sS'2990'
p8371
(lp8372
Vfood
p8373
asS'2359'
p8374
(lp8375
Vfood
p8376
aVservice
p8377
asS'2350'
p8378
(lp8379
Vfood
p8380
aVservice
p8381
asS'2356'
p8382
(lp8383
Vfood
p8384
aVservicing
p8385
aVservice
p8386
asS'2355'
p8387
(lp8388
Vfood
p8389
asS'2991'
p8390
(lp8391
Vfood
p8392
asS'1899'
p8393
(lp8394
Vfood
p8395
aVprice
p8396
asS'1894'
p8397
(lp8398
Vfood
p8399
aVatmosphere
p8400
aVservice
p8401
asS'1890'
p8402
(lp8403
Vatmosphere
p8404
aVprice
p8405
asS'1891'
p8406
(lp8407
Vfood
p8408
asS'1893'
p8409
(lp8410
Vfood
p8411
asS'2136'
p8412
(lp8413
Vprice
p8414
aVambiance
p8415
aVatmosphere
p8416
aVservice
p8417
asS'2137'
p8418
(lp8419
Vfood
p8420
aVservice
p8421
asS'2134'
p8422
(lp8423
Vfood
p8424
aVservice
p8425
asS'2135'
p8426
(lp8427
Vatmosphere
p8428
aVserve
p8429
aVprice
p8430
aVservice
p8431
asS'2132'
p8432
(lp8433
Vfood
p8434
aVambiance
p8435
aVservice
p8436
asS'2133'
p8437
(lp8438
Vfood
p8439
aVservice
p8440
asS'2130'
p8441
(lp8442
Vfood
p8443
aVprice
p8444
aVmilitary_service
p8445
asS'2131'
p8446
(lp8447
Vmilitary_service
p8448
asS'951'
p8449
(lp8450
Vfood
p8451
aVatmosphere
p8452
aVprice
p8453
aVservice
p8454
asS'950'
p8455
(lp8456
sS'953'
p8457
(lp8458
Vfood
p8459
aVservice
p8460
asS'952'
p8461
(lp8462
sS'955'
p8463
(lp8464
sS'954'
p8465
(lp8466
Vfood
p8467
aVservice
p8468
asS'2138'
p8469
(lp8470
Vfood
p8471
aVambiance
p8472
asS'2139'
p8473
(lp8474
Vambiance
p8475
aVservice
p8476
asS'2648'
p8477
(lp8478
Vfood
p8479
aVatmosphere
p8480
asS'2649'
p8481
(lp8482
Vfood
p8483
aVatmosphere
p8484
aVservice
p8485
asS'2640'
p8486
(lp8487
Vfood
p8488
aVservice
p8489
asS'2641'
p8490
(lp8491
Vserve
p8492
aVservice
p8493
asS'2642'
p8494
(lp8495
Vfood
p8496
aVprice
p8497
aVoverhaul
p8498
asS'2643'
p8499
(lp8500
Vfood
p8501
aVoverhaul
p8502
aVservice
p8503
asS'2644'
p8504
(lp8505
Vfood
p8506
asS'2645'
p8507
(lp8508
Vfood
p8509
aVatmosphere
p8510
aVservice
p8511
asS'2646'
p8512
(lp8513
Vfood
p8514
aVservice
p8515
asS'2647'
p8516
(lp8517
Vfood
p8518
aVmilitary_service
p8519
aVservice
p8520
asS'3429'
p8521
(lp8522
Vfood
p8523
asS'3428'
p8524
(lp8525
sS'3423'
p8526
(lp8527
Vfood
p8528
asS'3422'
p8529
(lp8530
Vserve
p8531
aVambiance
p8532
aVmilitary_service
p8533
aVservice
p8534
asS'3421'
p8535
(lp8536
Vfood
p8537
aVambiance
p8538
asS'3420'
p8539
(lp8540
Vfood
p8541
aVoverhaul
p8542
aVservice
p8543
asS'3426'
p8544
(lp8545
Vmilitary_service
p8546
aVservice
p8547
asS'3425'
p8548
(lp8549
Vfood
p8550
asS'3424'
p8551
(lp8552
Vfood
p8553
aVatmosphere
p8554
aVservice
p8555
asS'2002'
p8556
(lp8557
Vfood
p8558
aVmonetary_value
p8559
aVservice
p8560
aVservicing
p8561
asS'2003'
p8562
(lp8563
Vfood
p8564
aVatmosphere
p8565
aVservice
p8566
asS'2000'
p8567
(lp8568
Vfood
p8569
aVmilitary_service
p8570
asS'2001'
p8571
(lp8572
Vfood
p8573
aVambiance
p8574
aVservice
p8575
asS'2006'
p8576
(lp8577
Vservice
p8578
asS'2007'
p8579
(lp8580
Vatmosphere
p8581
asS'2004'
p8582
(lp8583
Vservicing
p8584
aVservice
p8585
asS'2005'
p8586
(lp8587
Vservice
p8588
asS'2008'
p8589
(lp8590
Vfood
p8591
aVmilitary_service
p8592
aVservice
p8593
asS'2009'
p8594
(lp8595
Vservice
p8596
asS'2034'
p8597
(lp8598
Vfood
p8599
aVatmosphere
p8600
aVservice
p8601
asS'1544'
p8602
(lp8603
Vatmosphere
p8604
aVservice
p8605
asS'1268'
p8606
(lp8607
Vfood
p8608
aVservice
p8609
asS'3026'
p8610
(lp8611
Vfood
p8612
aVprice
p8613
aVservice
p8614
asS'3557'
p8615
(lp8616
Vfood
p8617
aVprice
p8618
aVservicing
p8619
asS'3556'
p8620
(lp8621
sS'3555'
p8622
(lp8623
Vfood
p8624
aVatmosphere
p8625
aVservice
p8626
asS'3554'
p8627
(lp8628
Vfood
p8629
asS'3553'
p8630
(lp8631
Vfood
p8632
asS'3551'
p8633
(lp8634
Vfood
p8635
asS'3558'
p8636
(lp8637
Vfood
p8638
aVambiance
p8639
aVservice
p8640
asS'919'
p8641
(lp8642
Vfood
p8643
aVmilitary_service
p8644
asS'2997'
p8645
(lp8646
Vfood
p8647
asS'918'
p8648
(lp8649
sS'2910'
p8650
(lp8651
Vatmosphere
p8652
aVambiance
p8653
aVmilitary_service
p8654
asS'2911'
p8655
(lp8656
Vfood
p8657
aVatmosphere
p8658
aVservice
p8659
asS'2912'
p8660
(lp8661
Vfood
p8662
aVservice
p8663
asS'1798'
p8664
(lp8665
Vfood
p8666
aVatmosphere
p8667
aVservice
p8668
asS'2914'
p8669
(lp8670
Vfood
p8671
asS'2915'
p8672
(lp8673
Vfood
p8674
aVatmosphere
p8675
aVmilitary_service
p8676
aVservice
p8677
asS'719'
p8678
(lp8679
Vfood
p8680
aVatmosphere
p8681
asS'718'
p8682
(lp8683
Vatmosphere
p8684
aVservice
p8685
asS'1793'
p8686
(lp8687
Vfood
p8688
aVserve
p8689
asS'2919'
p8690
(lp8691
Vservice
p8692
asS'1791'
p8693
(lp8694
Vservice
p8695
asS'714'
p8696
(lp8697
sS'1797'
p8698
(lp8699
Vatmosphere
p8700
aVservice
p8701
asS'712'
p8702
(lp8703
Vfood
p8704
aVservice
p8705
asS'711'
p8706
(lp8707
Vfood
p8708
aVmilitary_service
p8709
aVservice
p8710
asS'710'
p8711
(lp8712
Vfood
p8713
asS'716'
p8714
(lp8715
sS'660'
p8716
(lp8717
Vfood
p8718
aVservice
p8719
asS'917'
p8720
(lp8721
Vservice
p8722
asS'1069'
p8723
(lp8724
Vfood
p8725
asS'1068'
p8726
(lp8727
Vfood
p8728
asS'2179'
p8729
(lp8730
Vmilitary_service
p8731
aVservice
p8732
asS'1061'
p8733
(lp8734
Vservice
p8735
asS'1060'
p8736
(lp8737
Vfood
p8738
aVservice
p8739
asS'1063'
p8740
(lp8741
sS'1062'
p8742
(lp8743
Vfood
p8744
aVprice
p8745
asS'1065'
p8746
(lp8747
Vfood
p8748
aVmonetary_value
p8749
asS'1064'
p8750
(lp8751
sS'1067'
p8752
(lp8753
Vfood
p8754
asS'1066'
p8755
(lp8756
Vfood
p8757
asS'1669'
p8758
(lp8759
Vatmosphere
p8760
aVservice
p8761
asS'1668'
p8762
(lp8763
Voverhaul
p8764
asS'1667'
p8765
(lp8766
Vfood
p8767
aVatmosphere
p8768
aVprice
p8769
aVmilitary_service
p8770
aVservice
p8771
asS'1666'
p8772
(lp8773
Vfood
p8774
aVservice
p8775
asS'1665'
p8776
(lp8777
Vfood
p8778
aVatmosphere
p8779
asS'1664'
p8780
(lp8781
Vfood
p8782
aVservice
p8783
asS'1663'
p8784
(lp8785
Vfood
p8786
aVservice
p8787
asS'1662'
p8788
(lp8789
Vfood
p8790
asS'1661'
p8791
(lp8792
sS'1660'
p8793
(lp8794
Vfood
p8795
asS'1087'
p8796
(lp8797
Vatmosphere
p8798
aVservice
p8799
asS'1086'
p8800
(lp8801
Vfood
p8802
aVservice
p8803
asS'593'
p8804
(lp8805
Vfood
p8806
aVmilitary_service
p8807
aVservice
p8808
asS'592'
p8809
(lp8810
Vatmosphere
p8811
asS'595'
p8812
(lp8813
Vserve
p8814
aVprice
p8815
aVambiance
p8816
aVservice
p8817
asS'594'
p8818
(lp8819
Vfood
p8820
aVatmosphere
p8821
asS'597'
p8822
(lp8823
Vatmosphere
p8824
aVservicing
p8825
asS'596'
p8826
(lp8827
Vfood
p8828
aVservice
p8829
asS'599'
p8830
(lp8831
Vfood
p8832
asS'598'
p8833
(lp8834
Vfood
p8835
aVatmosphere
p8836
aVservice
p8837
asS'1089'
p8838
(lp8839
Vfood
p8840
aVatmosphere
p8841
asS'1088'
p8842
(lp8843
Vfood
p8844
aVatmosphere
p8845
aVservice
p8846
asS'3140'
p8847
(lp8848
Vfood
p8849
aVmonetary_value
p8850
aVservice
p8851
asS'3141'
p8852
(lp8853
Vfood
p8854
aVservice
p8855
asS'3142'
p8856
(lp8857
Vfood
p8858
aVservice
p8859
asS'3144'
p8860
(lp8861
Vfood
p8862
aVmilitary_service
p8863
aVservice
p8864
asS'3145'
p8865
(lp8866
Vfood
p8867
aVprice
p8868
asS'3146'
p8869
(lp8870
Vfood
p8871
aVprice
p8872
aVatmosphere
p8873
aVservice
p8874
asS'3147'
p8875
(lp8876
Vservice
p8877
asS'3148'
p8878
(lp8879
Vfood
p8880
aVservice
p8881
asS'2825'
p8882
(lp8883
sS'2826'
p8884
(lp8885
Vambiance
p8886
aVservice
p8887
asS'2827'
p8888
(lp8889
Vfood
p8890
aVatmosphere
p8891
aVservice
p8892
asS'2822'
p8893
(lp8894
Vfood
p8895
aVserve
p8896
aVservice
p8897
asS'2823'
p8898
(lp8899
Vfood
p8900
aVatmosphere
p8901
aVservice
p8902
asS'3384'
p8903
(lp8904
sS'3382'
p8905
(lp8906
Vfood
p8907
aVatmosphere
p8908
asS'3383'
p8909
(lp8910
Vfood
p8911
aVprice
p8912
aVservice
p8913
asS'3380'
p8914
(lp8915
Vfood
p8916
aVatmosphere
p8917
aVmonetary_value
p8918
asS'3381'
p8919
(lp8920
Vfood
p8921
aVmilitary_service
p8922
aVservice
p8923
asS'3388'
p8924
(lp8925
Vfood
p8926
aVatmosphere
p8927
asS'713'
p8928
(lp8929
Vprice
p8930
aVservice
p8931
asS'1409'
p8932
(lp8933
Vfood
p8934
aVserve
p8935
aVambiance
p8936
aVservice
p8937
asS'1408'
p8938
(lp8939
Vservice
p8940
asS'1403'
p8941
(lp8942
Vambiance
p8943
aVservice
p8944
asS'1402'
p8945
(lp8946
Vfood
p8947
aVservice
p8948
asS'1401'
p8949
(lp8950
Vservice
p8951
asS'1400'
p8952
(lp8953
Vatmosphere
p8954
asS'1407'
p8955
(lp8956
Vatmosphere
p8957
aVambiance
p8958
aVmilitary_service
p8959
asS'1404'
p8960
(lp8961
Vmonetary_value
p8962
asS'1546'
p8963
(lp8964
Vfood
p8965
aVmilitary_service
p8966
aVservice
p8967
asS'449'
p8968
(lp8969
Vfood
p8970
asS'448'
p8971
(lp8972
Vfood
p8973
aVatmosphere
p8974
aVambiance
p8975
asS'1339'
p8976
(lp8977
Vfood
p8978
asS'1338'
p8979
(lp8980
Vfood
p8981
aVservice
p8982
asS'1491'
p8983
(lp8984
Vfood
p8985
aVambiance
p8986
asS'693'
p8987
(lp8988
Vatmosphere
p8989
aVoverhaul
p8990
aVservice
p8991
asS'443'
p8992
(lp8993
Vfood
p8994
aVambiance
p8995
aVservice
p8996
asS'442'
p8997
(lp8998
Vatmosphere
p8999
aVambiance
p9000
asS'441'
p9001
(lp9002
Vservice
p9003
asS'440'
p9004
(lp9005
Vservice
p9006
asS'447'
p9007
(lp9008
Vfood
p9009
aVatmosphere
p9010
asS'1330'
p9011
(lp9012
Vfood
p9013
aVambiance
p9014
asS'445'
p9015
(lp9016
sS'444'
p9017
(lp9018
Vfood
p9019
aVservice
p9020
asS'1545'
p9021
(lp9022
Vambiance
p9023
asS'696'
p9024
(lp9025
Vfood
p9026
aVservice
p9027
asS'1631'
p9028
(lp9029
Vfood
p9030
aVprice
p9031
asS'697'
p9032
(lp9033
Vfood
p9034
aVprice
p9035
aVambiance
p9036
aVatmosphere
p9037
aVservice
p9038
asS'1933'
p9039
(lp9040
Vfood
p9041
aVservice
p9042
asS'39'
p9043
(lp9044
Vatmosphere
p9045
aVserve
p9046
aVservice
p9047
asS'38'
p9048
(lp9049
Vfood
p9050
aVmilitary_service
p9051
aVservice
p9052
asS'1540'
p9053
(lp9054
Vfood
p9055
aVprice
p9056
asS'1932'
p9057
(lp9058
Vfood
p9059
aVservice
p9060
asS'30'
p9061
(lp9062
Vservice
p9063
asS'37'
p9064
(lp9065
Vmilitary_service
p9066
aVservice
p9067
asS'36'
p9068
(lp9069
Vfood
p9070
aVservicing
p9071
asS'35'
p9072
(lp9073
sS'34'
p9074
(lp9075
Vfood
p9076
aVmilitary_service
p9077
aVservice
p9078
asS'1537'
p9079
(lp9080
Vfood
p9081
aVservice
p9082
asS'1240'
p9083
(lp9084
Vservice
p9085
asS'1535'
p9086
(lp9087
Vfood
p9088
aVatmosphere
p9089
aVservice
p9090
asS'1242'
p9091
(lp9092
Vfood
p9093
asS'645'
p9094
(lp9095
sS'1244'
p9096
(lp9097
Vfood
p9098
aVambiance
p9099
aVservice
p9100
asS'647'
p9101
(lp9102
Vfood
p9103
aVprice
p9104
asS'1530'
p9105
(lp9106
Vfood
p9107
aVservicing
p9108
aVservice
p9109
asS'649'
p9110
(lp9111
Vfood
p9112
aVatmosphere
p9113
aVservice
p9114
asS'648'
p9115
(lp9116
Vfood
p9117
aVprice
p9118
asS'3098'
p9119
(lp9120
Vfood
p9121
asS'1539'
p9122
(lp9123
Vfood
p9124
asS'1538'
p9125
(lp9126
Vfood
p9127
asS'339'
p9128
(lp9129
Vfood
p9130
asS'338'
p9131
(lp9132
Vfood
p9133
asS'335'
p9134
(lp9135
Vfood
p9136
aVprice
p9137
aVservice
p9138
asS'334'
p9139
(lp9140
Vfood
p9141
aVservice
p9142
asS'337'
p9143
(lp9144
Vfood
p9145
asS'336'
p9146
(lp9147
Vservice
p9148
asS'331'
p9149
(lp9150
Vfood
p9151
aVservice
p9152
asS'330'
p9153
(lp9154
sS'333'
p9155
(lp9156
Vservice
p9157
asS'332'
p9158
(lp9159
Vfood
p9160
aVservice
p9161
asS'2061'
p9162
(lp9163
sS'1633'
p9164
(lp9165
Vservice
p9166
asS'543'
p9167
(lp9168
Vatmosphere
p9169
aVserve
p9170
asS'1901'
p9171
(lp9172
Vprice
p9173
aVambiance
p9174
aVmilitary_service
p9175
asS'3467'
p9176
(lp9177
Vfood
p9178
asS'653'
p9179
(lp9180
Vfood
p9181
aVserve
p9182
aVambiance
p9183
aVservice
p9184
asS'3464'
p9185
(lp9186
Vprice
p9187
aVservice
p9188
aVmilitary_service
p9189
aVatmosphere
p9190
asS'1085'
p9191
(lp9192
Vfood
p9193
aVatmosphere
p9194
asS'8'
p9195
(lp9196
Vfood
p9197
aVmilitary_service
p9198
aVservice
p9199
asS'3463'
p9200
(lp9201
Vfood
p9202
aVatmosphere
p9203
aVservice
p9204
asS'1496'
p9205
(lp9206
Vambiance
p9207
aVservice
p9208
asS'842'
p9209
(lp9210
Vfood
p9211
aVatmosphere
p9212
aVmonetary_value
p9213
aVservice
p9214
asS'1466'
p9215
(lp9216
Vfood
p9217
aVprice
p9218
aVservicing
p9219
aVservice
p9220
asS'841'
p9221
(lp9222
Vfood
p9223
aVoverhaul
p9224
asS'840'
p9225
(lp9226
Vfood
p9227
asS'3375'
p9228
(lp9229
Vfood
p9230
aVmilitary_service
p9231
asS'2854'
p9232
(lp9233
Vservicing
p9234
aVservice
p9235
asS'3638'
p9236
(lp9237
Vfood
p9238
aVservice
p9239
asS'3639'
p9240
(lp9241
Vfood
p9242
aVservice
p9243
asS'3636'
p9244
(lp9245
Vfood
p9246
aVatmosphere
p9247
aVambiance
p9248
asS'3637'
p9249
(lp9250
Vfood
p9251
aVatmosphere
p9252
aVserve
p9253
aVmilitary_service
p9254
asS'3634'
p9255
(lp9256
Vfood
p9257
aVmilitary_service
p9258
aVservice
p9259
aVservicing
p9260
asS'3635'
p9261
(lp9262
Vfood
p9263
aVatmosphere
p9264
aVservicing
p9265
asS'3632'
p9266
(lp9267
Vservice
p9268
asS'3633'
p9269
(lp9270
Vmilitary_service
p9271
aVservice
p9272
asS'3630'
p9273
(lp9274
sS'3631'
p9275
(lp9276
Vfood
p9277
aVprice
p9278
aVatmosphere
p9279
asS'849'
p9280
(lp9281
Vfood
p9282
aVservice
p9283
asS'848'
p9284
(lp9285
Vfood
p9286
asS'2347'
p9287
(lp9288
Vfood
p9289
aVservice
p9290
asS'2341'
p9291
(lp9292
Vatmosphere
p9293
aVservice
p9294
asS'2349'
p9295
(lp9296
Vfood
p9297
aVambiance
p9298
asS'2348'
p9299
(lp9300
Vfood
p9301
aVambiance
p9302
aVservice
p9303
asS'2469'
p9304
(lp9305
Vfood
p9306
aVservice
p9307
asS'2987'
p9308
(lp9309
Vfood
p9310
aVatmosphere
p9311
aVservice
p9312
asS'2067'
p9313
(lp9314
Vservice
p9315
asS'3708'
p9316
(lp9317
Vservice
p9318
asS'3709'
p9319
(lp9320
Vfood
p9321
aVservice
p9322
asS'1889'
p9323
(lp9324
sS'1888'
p9325
(lp9326
Vfood
p9327
aVatmosphere
p9328
aVambiance
p9329
aVservice
p9330
asS'1887'
p9331
(lp9332
Vfood
p9333
aVatmosphere
p9334
asS'3703'
p9335
(lp9336
Vfood
p9337
asS'3700'
p9338
(lp9339
Vfood
p9340
aVatmosphere
p9341
aVmilitary_service
p9342
asS'1884'
p9343
(lp9344
Vfood
p9345
aVservice
p9346
asS'3706'
p9347
(lp9348
Vfood
p9349
asS'3707'
p9350
(lp9351
Vfood
p9352
aVatmosphere
p9353
asS'3704'
p9354
(lp9355
sS'3705'
p9356
(lp9357
Vatmosphere
p9358
asS'2121'
p9359
(lp9360
Vfood
p9361
asS'2120'
p9362
(lp9363
Vatmosphere
p9364
aVservice
p9365
asS'2123'
p9366
(lp9367
Vatmosphere
p9368
aVservice
p9369
asS'2122'
p9370
(lp9371
Vfood
p9372
aVatmosphere
p9373
asS'2125'
p9374
(lp9375
Vfood
p9376
aVservice
p9377
asS'2124'
p9378
(lp9379
Vmilitary_service
p9380
asS'948'
p9381
(lp9382
sS'949'
p9383
(lp9384
Vfood
p9385
aVservice
p9386
asS'946'
p9387
(lp9388
Vfood
p9389
aVservice
p9390
asS'2128'
p9391
(lp9392
Vfood
p9393
aVmonetary_value
p9394
aVservice
p9395
asS'944'
p9396
(lp9397
Vprice
p9398
aVservice
p9399
asS'1457'
p9400
(lp9401
Vprice
p9402
aVatmosphere
p9403
aVservice
p9404
asS'942'
p9405
(lp9406
Vmonetary_value
p9407
asS'943'
p9408
(lp9409
Vfood
p9410
aVservice
p9411
asS'940'
p9412
(lp9413
Vambiance
p9414
asS'941'
p9415
(lp9416
Vservice
p9417
asS'3038'
p9418
(lp9419
Vmilitary_service
p9420
aVservice
p9421
asS'1594'
p9422
(lp9423
Vfood
p9424
asS'642'
p9425
(lp9426
sS'2653'
p9427
(lp9428
Vfood
p9429
aVatmosphere
p9430
aVprice
p9431
aVmonetary_value
p9432
aVservice
p9433
asS'2652'
p9434
(lp9435
Vatmosphere
p9436
aVservice
p9437
asS'2651'
p9438
(lp9439
Vfood
p9440
aVatmosphere
p9441
asS'2650'
p9442
(lp9443
Vatmosphere
p9444
aVmilitary_service
p9445
aVservicing
p9446
asS'2657'
p9447
(lp9448
Vfood
p9449
aVprice
p9450
aVservice
p9451
asS'2656'
p9452
(lp9453
Vatmosphere
p9454
asS'2655'
p9455
(lp9456
Vfood
p9457
asS'2654'
p9458
(lp9459
Vfood
p9460
asS'133'
p9461
(lp9462
Vfood
p9463
aVatmosphere
p9464
aVservice
p9465
asS'132'
p9466
(lp9467
Vfood
p9468
aVmonetary_value
p9469
aVservice
p9470
asS'3414'
p9471
(lp9472
Vfood
p9473
aVambiance
p9474
asS'3415'
p9475
(lp9476
sS'137'
p9477
(lp9478
Vatmosphere
p9479
asS'136'
p9480
(lp9481
Vfood
p9482
aVprice
p9483
asS'3410'
p9484
(lp9485
Vfood
p9486
asS'134'
p9487
(lp9488
Vfood
p9489
asS'1931'
p9490
(lp9491
Vservice
p9492
asS'139'
p9493
(lp9494
Vfood
p9495
aVprice
p9496
aVservice
p9497
asS'138'
p9498
(lp9499
Vatmosphere
p9500
aVserve
p9501
asS'3418'
p9502
(lp9503
Vfood
p9504
aVservice
p9505
asS'3419'
p9506
(lp9507
Vfood
p9508
aVoverhaul
p9509
aVservice
p9510
asS'2019'
p9511
(lp9512
Vfood
p9513
aVserve
p9514
aVservice
p9515
asS'2018'
p9516
(lp9517
Vfood
p9518
asS'2015'
p9519
(lp9520
Vfood
p9521
aVservice
p9522
asS'2017'
p9523
(lp9524
Vfood
p9525
aVatmosphere
p9526
asS'2016'
p9527
(lp9528
Vfood
p9529
aVservice
p9530
asS'2011'
p9531
(lp9532
Vfood
p9533
aVprice
p9534
aVambiance
p9535
aVservice
p9536
asS'2010'
p9537
(lp9538
Vfood
p9539
aVservice
p9540
asS'2012'
p9541
(lp9542
Vfood
p9543
aVprice
p9544
asS'2926'
p9545
(lp9546
Vfood
p9547
asS'183'
p9548
(lp9549
Vprice
p9550
aVservice
p9551
asS'3562'
p9552
(lp9553
Vfood
p9554
aVservice
p9555
asS'3563'
p9556
(lp9557
Vfood
p9558
aVserve
p9559
aVatmosphere
p9560
aVambiance
p9561
aVservice
p9562
asS'3561'
p9563
(lp9564
Vserve
p9565
aVmilitary_service
p9566
aVservice
p9567
asS'3566'
p9568
(lp9569
Vservice
p9570
asS'3567'
p9571
(lp9572
Vfood
p9573
aVservice
p9574
asS'3564'
p9575
(lp9576
Vservice
p9577
asS'3565'
p9578
(lp9579
Vatmosphere
p9580
aVambiance
p9581
aVservice
p9582
asS'1590'
p9583
(lp9584
Vatmosphere
p9585
asS'2903'
p9586
(lp9587
Vfood
p9588
aVservice
p9589
asS'2902'
p9590
(lp9591
Vfood
p9592
aVservicing
p9593
asS'2901'
p9594
(lp9595
Vfood
p9596
aVatmosphere
p9597
aVambiance
p9598
aVmilitary_service
p9599
aVservice
p9600
asS'2900'
p9601
(lp9602
Vfood
p9603
asS'2907'
p9604
(lp9605
Vfood
p9606
aVatmosphere
p9607
aVservice
p9608
asS'709'
p9609
(lp9610
Vfood
p9611
aVmonetary_value
p9612
asS'2905'
p9613
(lp9614
Vfood
p9615
aVprice
p9616
aVatmosphere
p9617
asS'3035'
p9618
(lp9619
Vfood
p9620
aVservice
p9621
asS'704'
p9622
(lp9623
Vmonetary_value
p9624
aVservice
p9625
asS'705'
p9626
(lp9627
Vfood
p9628
aVatmosphere
p9629
asS'2909'
p9630
(lp9631
Vfood
p9632
asS'2908'
p9633
(lp9634
Vfood
p9635
aVservice
p9636
asS'700'
p9637
(lp9638
Vfood
p9639
aVmonetary_value
p9640
asS'701'
p9641
(lp9642
Vservice
p9643
asS'702'
p9644
(lp9645
Vfood
p9646
aVatmosphere
p9647
asS'703'
p9648
(lp9649
Vprice
p9650
aVmilitary_service
p9651
aVservice
p9652
asS'89'
p9653
(lp9654
Vfood
p9655
aVprice
p9656
aVservice
p9657
asS'1593'
p9658
(lp9659
Vatmosphere
p9660
aVmilitary_service
p9661
asS'82'
p9662
(lp9663
Vfood
p9664
aVatmosphere
p9665
aVservicing
p9666
aVservice
p9667
asS'83'
p9668
(lp9669
Vmonetary_value
p9670
asS'80'
p9671
(lp9672
Vatmosphere
p9673
asS'81'
p9674
(lp9675
Vservice
p9676
asS'87'
p9677
(lp9678
Vambiance
p9679
aVserve
p9680
aVservice
p9681
asS'84'
p9682
(lp9683
Vfood
p9684
asS'85'
p9685
(lp9686
Vfood
p9687
aVservice
p9688
asS'1743'
p9689
(lp9690
Vfood
p9691
asS'1659'
p9692
(lp9693
Vservice
p9694
asS'1652'
p9695
(lp9696
Vatmosphere
p9697
aVmonetary_value
p9698
aVservice
p9699
asS'1653'
p9700
(lp9701
sS'1650'
p9702
(lp9703
Vfood
p9704
aVserve
p9705
asS'1651'
p9706
(lp9707
Vservice
p9708
asS'1656'
p9709
(lp9710
Vfood
p9711
asS'1654'
p9712
(lp9713
Vfood
p9714
aVservice
p9715
asS'1655'
p9716
(lp9717
Vfood
p9718
aVatmosphere
p9719
asS'586'
p9720
(lp9721
sS'3214'
p9722
(lp9723
Vservice
p9724
asS'584'
p9725
(lp9726
Vatmosphere
p9727
aVservice
p9728
asS'585'
p9729
(lp9730
Vfood
p9731
aVatmosphere
p9732
asS'582'
p9733
(lp9734
Vmilitary_service
p9735
aVservice
p9736
asS'583'
p9737
(lp9738
sS'580'
p9739
(lp9740
Vfood
p9741
asS'581'
p9742
(lp9743
sS'3216'
p9744
(lp9745
Vfood
p9746
asS'588'
p9747
(lp9748
Vfood
p9749
aVservice
p9750
asS'589'
p9751
(lp9752
Vambiance
p9753
asS'3150'
p9754
(lp9755
Vfood
p9756
asS'3157'
p9757
(lp9758
Vfood
p9759
asS'3156'
p9760
(lp9761
Vfood
p9762
asS'3155'
p9763
(lp9764
Vfood
p9765
aVservice
p9766
asS'3154'
p9767
(lp9768
Vfood
p9769
aVoverhaul
p9770
aVservice
p9771
asS'1982'
p9772
(lp9773
Vfood
p9774
aVservicing
p9775
asS'2835'
p9776
(lp9777
Vatmosphere
p9778
aVmilitary_service
p9779
aVservice
p9780
asS'2834'
p9781
(lp9782
sS'2833'
p9783
(lp9784
Vprice
p9785
aVservice
p9786
asS'2832'
p9787
(lp9788
Vfood
p9789
aVservice
p9790
asS'2831'
p9791
(lp9792
Vfood
p9793
aVambiance
p9794
aVservicing
p9795
aVservice
p9796
aVmilitary_service
p9797
asS'2830'
p9798
(lp9799
Vprice
p9800
aVatmosphere
p9801
aVservice
p9802
asS'1436'
p9803
(lp9804
Vfood
p9805
aVservice
p9806
asS'1437'
p9807
(lp9808
Vfood
p9809
asS'3393'
p9810
(lp9811
Vfood
p9812
aVatmosphere
p9813
aVmilitary_service
p9814
aVservice
p9815
asS'1435'
p9816
(lp9817
Vfood
p9818
aVprice
p9819
aVmonetary_value
p9820
asS'1432'
p9821
(lp9822
Vambiance
p9823
aVservice
p9824
asS'1433'
p9825
(lp9826
Vambiance
p9827
aVmilitary_service
p9828
aVservice
p9829
asS'1430'
p9830
(lp9831
Vfood
p9832
aVatmosphere
p9833
aVmonetary_value
p9834
aVservice
p9835
asS'3396'
p9836
(lp9837
sS'418'
p9838
(lp9839
Vfood
p9840
aVprice
p9841
asS'3213'
p9842
(lp9843
Vmonetary_value
p9844
aVservice
p9845
asS'1438'
p9846
(lp9847
Vfood
p9848
aVatmosphere
p9849
asS'1439'
p9850
(lp9851
Vfood
p9852
aVservice
p9853
asS'1349'
p9854
(lp9855
Vfood
p9856
aVservice
p9857
asS'458'
p9858
(lp9859
Vmilitary_service
p9860
aVservice
p9861
asS'459'
p9862
(lp9863
Vfood
p9864
asS'450'
p9865
(lp9866
Vfood
p9867
aVprice
p9868
asS'451'
p9869
(lp9870
Vfood
p9871
aVserve
p9872
asS'452'
p9873
(lp9874
Vservice
p9875
asS'1343'
p9876
(lp9877
Vfood
p9878
aVprice
p9879
aVservice
p9880
asS'454'
p9881
(lp9882
Vservice
p9883
asS'1345'
p9884
(lp9885
Vfood
p9886
aVprice
p9887
aVservice
p9888
asS'1346'
p9889
(lp9890
Vfood
p9891
aVatmosphere
p9892
aVservice
p9893
asS'457'
p9894
(lp9895
Vfood
p9896
asS'3702'
p9897
(lp9898
Vfood
p9899
asS'1082'
p9900
(lp9901
Vfood
p9902
aVservicing
p9903
aVservice
p9904
asS'1885'
p9905
(lp9906
Vfood
p9907
asS'766'
p9908
(lp9909
Vfood
p9910
asS'517'
p9911
(lp9912
Vfood
p9913
aVservice
p9914
asS'3701'
p9915
(lp9916
Vfood
p9917
asS'3368'
p9918
(lp9919
Vfood
p9920
asS'1883'
p9921
(lp9922
sS'832'
p9923
(lp9924
Vfood
p9925
aVambiance
p9926
aVservice
p9927
asS'1882'
p9928
(lp9929
Vfood
p9930
aVmilitary_service
p9931
asS'656'
p9932
(lp9933
sS'657'
p9934
(lp9935
Vservice
p9936
asS'654'
p9937
(lp9938
Vfood
p9939
aVservice
p9940
asS'655'
p9941
(lp9942
Vfood
p9943
aVatmosphere
p9944
aVambiance
p9945
aVmilitary_service
p9946
aVservice
p9947
asS'652'
p9948
(lp9949
Vprice
p9950
asS'3088'
p9951
(lp9952
Vatmosphere
p9953
aVservice
p9954
asS'650'
p9955
(lp9956
Vfood
p9957
aVservice
p9958
asS'651'
p9959
(lp9960
Vfood
p9961
asS'3085'
p9962
(lp9963
Vfood
p9964
aVatmosphere
p9965
aVprice
p9966
aVservice
p9967
asS'3084'
p9968
(lp9969
Vfood
p9970
aVprice
p9971
aVambiance
p9972
asS'3087'
p9973
(lp9974
Vfood
p9975
aVprice
p9976
aVmilitary_service
p9977
aVservice
p9978
asS'3086'
p9979
(lp9980
Vfood
p9981
aVserve
p9982
aVatmosphere
p9983
aVambiance
p9984
aVservice
p9985
asS'3081'
p9986
(lp9987
Vfood
p9988
asS'3080'
p9989
(lp9990
Vfood
p9991
asS'3083'
p9992
(lp9993
Vfood
p9994
aVmilitary_service
p9995
aVservice
p9996
asS'3082'
p9997
(lp9998
Vservice
p9999
asS'1886'
p10000
(lp10001
Vservice
p10002
asS'314'
p10003
(lp10004
Vfood
p10005
aVprice
p10006
aVambiance
p10007
asS'1992'
p10008
(lp10009
Vfood
p10010
aVatmosphere
p10011
aVservice
p10012
asS'2127'
p10013
(lp10014
Vfood
p10015
aVservice
p10016
asS'2126'
p10017
(lp10018
Vmonetary_value
p10019
aVservice
p10020
asS'2129'
p10021
(lp10022
Vfood
p10023
aVservice
p10024
asS'947'
p10025
(lp10026
Vservice
p10027
asS'945'
p10028
(lp10029
Vfood
p10030
aVservice
p10031
asS'54'
p10032
(lp10033
Vatmosphere
p10034
aVambiance
p10035
aVservice
p10036
asS'188'
p10037
(lp10038
Vfood
p10039
aVprice
p10040
aVambiance
p10041
aVatmosphere
p10042
aVservice
p10043
asS'1081'
p10044
(lp10045
Vfood
p10046
aVatmosphere
p10047
aVambiance
p10048
aVmonetary_value
p10049
asS'322'
p10050
(lp10051
sS'323'
p10052
(lp10053
Vfood
p10054
aVprice
p10055
aVambiance
p10056
aVservice
p10057
asS'3597'
p10058
(lp10059
Vfood
p10060
aVservice
p10061
asS'327'
p10062
(lp10063
Vfood
p10064
aVatmosphere
p10065
aVambiance
p10066
aVmilitary_service
p10067
aVservice
p10068
asS'324'
p10069
(lp10070
Vfood
p10071
aVprice
p10072
asS'328'
p10073
(lp10074
Vfood
p10075
aVatmosphere
p10076
aVserve
p10077
aVservice
p10078
asS'329'
p10079
(lp10080
Vfood
p10081
aVmonetary_value
p10082
aVservice
p10083
asS'3629'
p10084
(lp10085
Vfood
p10086
asS'3628'
p10087
(lp10088
Vserve
p10089
asS'3621'
p10090
(lp10091
Vfood
p10092
aVambiance
p10093
aVservice
p10094
asS'564'
p10095
(lp10096
Vfood
p10097
asS'3623'
p10098
(lp10099
Vatmosphere
p10100
aVambiance
p10101
asS'3622'
p10102
(lp10103
sS'3625'
p10104
(lp10105
Vfood
p10106
aVmilitary_service
p10107
asS'3624'
p10108
(lp10109
sS'3627'
p10110
(lp10111
Vambiance
p10112
aVservice
p10113
asS'3626'
p10114
(lp10115
Vfood
p10116
aVatmosphere
p10117
aVmilitary_service
p10118
aVservice
p10119
asS'1881'
p10120
(lp10121
sS'2330'
p10122
(lp10123
Vmilitary_service
p10124
asS'3070'
p10125
(lp10126
sS'2332'
p10127
(lp10128
Vfood
p10129
aVmonetary_value
p10130
asS'2333'
p10131
(lp10132
Vfood
p10133
aVservice
p10134
asS'2334'
p10135
(lp10136
Vfood
p10137
aVmonetary_value
p10138
asS'2335'
p10139
(lp10140
Vfood
p10141
aVmonetary_value
p10142
asS'2336'
p10143
(lp10144
Vatmosphere
p10145
aVservice
p10146
asS'2337'
p10147
(lp10148
Vfood
p10149
asS'2338'
p10150
(lp10151
Vprice
p10152
aVservice
p10153
asS'1341'
p10154
(lp10155
Vservice
p10156
asS'3072'
p10157
(lp10158
Vservice
p10159
asS'2537'
p10160
(lp10161
Vfood
p10162
aVatmosphere
p10163
aVservice
p10164
asS'3073'
p10165
(lp10166
Vfood
p10167
asS'1880'
p10168
(lp10169
Vfood
p10170
aVatmosphere
p10171
aVmilitary_service
p10172
asS'1591'
p10173
(lp10174
Vservice
p10175
asS'2959'
p10176
(lp10177
Vprice
p10178
aVambiance
p10179
aVservice
p10180
asS'3710'
p10181
(lp10182
Vmonetary_value
p10183
aVservice
p10184
asS'3077'
p10185
(lp10186
Vservice
p10187
asS'3078'
p10188
(lp10189
sS'3079'
p10190
(lp10191
Vatmosphere
p10192
aVservice
p10193
asS'2488'
p10194
(lp10195
Vfood
p10196
aVmilitary_service
p10197
aVservice
p10198
asS'2486'
p10199
(lp10200
Vprice
p10201
aVatmosphere
p10202
asS'2487'
p10203
(lp10204
Vfood
p10205
aVambiance
p10206
aVmonetary_value
p10207
aVservice
p10208
asS'2484'
p10209
(lp10210
Vfood
p10211
aVservice
p10212
asS'2485'
p10213
(lp10214
Vfood
p10215
aVatmosphere
p10216
aVservice
p10217
asS'2482'
p10218
(lp10219
Vfood
p10220
asS'2483'
p10221
(lp10222
Vfood
p10223
asS'3252'
p10224
(lp10225
Vservice
p10226
asS'2248'
p10227
(lp10228
Vprice
p10229
asS'2249'
p10230
(lp10231
Vfood
p10232
aVprice
p10233
aVambiance
p10234
aVservice
p10235
asS'2244'
p10236
(lp10237
Vfood
p10238
aVservice
p10239
asS'2245'
p10240
(lp10241
Vfood
p10242
aVservicing
p10243
aVservice
p10244
asS'2246'
p10245
(lp10246
sS'2247'
p10247
(lp10248
Vfood
p10249
aVambiance
p10250
aVservice
p10251
asS'2240'
p10252
(lp10253
Vfood
p10254
aVservice
p10255
asS'2241'
p10256
(lp10257
Vambiance
p10258
aVservice
p10259
asS'2242'
p10260
(lp10261
Vatmosphere
p10262
aVservice
p10263
asS'2243'
p10264
(lp10265
Vfood
p10266
aVmonetary_value
p10267
aVservice
p10268
asS'2464'
p10269
(lp10270
Vfood
p10271
asS'994'
p10272
(lp10273
Vmonetary_value
p10274
asS'2466'
p10275
(lp10276
Vfood
p10277
aVatmosphere
p10278
aVservice
p10279
asS'2467'
p10280
(lp10281
Vfood
p10282
asS'2460'
p10283
(lp10284
Vfood
p10285
aVservice
p10286
asS'990'
p10287
(lp10288
sS'993'
p10289
(lp10290
Vservice
p10291
asS'2463'
p10292
(lp10293
Vfood
p10294
aVservice
p10295
asS'999'
p10296
(lp10297
Vatmosphere
p10298
aVprice
p10299
aVservice
p10300
asS'998'
p10301
(lp10302
Vfood
p10303
aVambiance
p10304
aVservice
p10305
asS'120'
p10306
(lp10307
Vfood
p10308
aVservice
p10309
asS'121'
p10310
(lp10311
sS'122'
p10312
(lp10313
sS'123'
p10314
(lp10315
Vprice
p10316
asS'3405'
p10317
(lp10318
Vfood
p10319
aVservice
p10320
asS'3404'
p10321
(lp10322
Vfood
p10323
aVatmosphere
p10324
asS'126'
p10325
(lp10326
Vmilitary_service
p10327
aVservice
p10328
asS'127'
p10329
(lp10330
Vfood
p10331
aVservice
p10332
asS'3409'
p10333
(lp10334
Vfood
p10335
aVatmosphere
p10336
aVoverhaul
p10337
aVservice
p10338
asS'3408'
p10339
(lp10340
Vservice
p10341
asS'1020'
p10342
(lp10343
Vatmosphere
p10344
asS'3379'
p10345
(lp10346
Vfood
p10347
aVatmosphere
p10348
aVambiance
p10349
asS'3417'
p10350
(lp10351
Vfood
p10352
aVservice
p10353
asS'1921'
p10354
(lp10355
Vfood
p10356
aVatmosphere
p10357
aVmilitary_service
p10358
asS'3378'
p10359
(lp10360
Vatmosphere
p10361
aVservice
p10362
asS'131'
p10363
(lp10364
Vprice
p10365
aVservice
p10366
asS'2068'
p10367
(lp10368
Vatmosphere
p10369
asS'2069'
p10370
(lp10371
sS'2798'
p10372
(lp10373
sS'2799'
p10374
(lp10375
Vmonetary_value
p10376
asS'1187'
p10377
(lp10378
Vservice
p10379
asS'2060'
p10380
(lp10381
Vfood
p10382
aVatmosphere
p10383
aVservice
p10384
asS'2793'
p10385
(lp10386
Vfood
p10387
aVserve
p10388
asS'2062'
p10389
(lp10390
Vfood
p10391
asS'2791'
p10392
(lp10393
Vfood
p10394
asS'2064'
p10395
(lp10396
Vfood
p10397
asS'2797'
p10398
(lp10399
Vfood
p10400
aVatmosphere
p10401
aVservice
p10402
asS'2066'
p10403
(lp10404
Vfood
p10405
aVservice
p10406
asS'2795'
p10407
(lp10408
Vambiance
p10409
asS'1185'
p10410
(lp10411
Vfood
p10412
aVatmosphere
p10413
asS'135'
p10414
(lp10415
Vfood
p10416
aVoverhaul
p10417
aVmonetary_value
p10418
aVservice
p10419
asS'1182'
p10420
(lp10421
Vfood
p10422
aVmonetary_value
p10423
asS'3411'
p10424
(lp10425
Vservice
p10426
asS'1183'
p10427
(lp10428
Vfood
p10429
asS'3371'
p10430
(lp10431
Vfood
p10432
aVambiance
p10433
aVmilitary_service
p10434
aVservice
p10435
asS'1181'
p10436
(lp10437
Vfood
p10438
aVatmosphere
p10439
aVservice
p10440
asS'3579'
p10441
(lp10442
Vfood
p10443
aVservice
p10444
asS'3578'
p10445
(lp10446
Vfood
p10447
aVatmosphere
p10448
aVmilitary_service
p10449
aVservice
p10450
asS'3575'
p10451
(lp10452
Vserve
p10453
aVservice
p10454
asS'3574'
p10455
(lp10456
Vfood
p10457
asS'3577'
p10458
(lp10459
sS'3576'
p10460
(lp10461
Vservice
p10462
asS'3571'
p10463
(lp10464
Vfood
p10465
aVprice
p10466
aVservice
p10467
asS'3570'
p10468
(lp10469
Vprice
p10470
aVmilitary_service
p10471
aVservice
p10472
asS'3573'
p10473
(lp10474
Vmilitary_service
p10475
asS'3572'
p10476
(lp10477
Vprice
p10478
aVservice
p10479
asS'2666'
p10480
(lp10481
Vfood
p10482
aVmonetary_value
p10483
asS'2667'
p10484
(lp10485
Vfood
p10486
aVservice
p10487
asS'2664'
p10488
(lp10489
Vservice
p10490
asS'2665'
p10491
(lp10492
Vatmosphere
p10493
asS'2662'
p10494
(lp10495
sS'2663'
p10496
(lp10497
Vfood
p10498
aVatmosphere
p10499
aVservice
p10500
asS'722'
p10501
(lp10502
Vatmosphere
p10503
asS'2668'
p10504
(lp10505
Vfood
p10506
aVservice
p10507
asS'2669'
p10508
(lp10509
Vservice
p10510
asS'3668'
p10511
(lp10512
Vfood
p10513
aVservice
p10514
asS'2938'
p10515
(lp10516
Vfood
p10517
aVservice
p10518
asS'2939'
p10519
(lp10520
Vfood
p10521
aVprice
p10522
aVservice
p10523
asS'2936'
p10524
(lp10525
Vatmosphere
p10526
aVambiance
p10527
aVservice
p10528
asS'2937'
p10529
(lp10530
Vfood
p10531
aVservice
p10532
asS'2934'
p10533
(lp10534
sS'2935'
p10535
(lp10536
Vfood
p10537
aVatmosphere
p10538
aVservice
p10539
asS'2932'
p10540
(lp10541
Vfood
p10542
aVservice
p10543
asS'2933'
p10544
(lp10545
Vfood
p10546
asS'2930'
p10547
(lp10548
Vfood
p10549
aVatmosphere
p10550
aVserve
p10551
aVservice
p10552
asS'2931'
p10553
(lp10554
Vfood
p10555
aVservice
p10556
asS'3595'
p10557
(lp10558
Vfood
p10559
asS'1645'
p10560
(lp10561
Vfood
p10562
aVprice
p10563
aVambiance
p10564
aVatmosphere
p10565
aVservice
p10566
asS'1644'
p10567
(lp10568
Vservice
p10569
asS'1647'
p10570
(lp10571
Vfood
p10572
asS'1646'
p10573
(lp10574
Vfood
p10575
aVprice
p10576
aVservice
p10577
asS'1641'
p10578
(lp10579
Vfood
p10580
aVambiance
p10581
aVservice
p10582
asS'1640'
p10583
(lp10584
Vfood
p10585
asS'1643'
p10586
(lp10587
Vfood
p10588
aVservice
p10589
asS'1642'
p10590
(lp10591
Vatmosphere
p10592
aVmilitary_service
p10593
asS'1649'
p10594
(lp10595
Vfood
p10596
aVatmosphere
p10597
aVoverhaul
p10598
asS'1648'
p10599
(lp10600
sS'1742'
p10601
(lp10602
Vserve
p10603
aVservice
p10604
asS'729'
p10605
(lp10606
Vatmosphere
p10607
aVmonetary_value
p10608
asS'579'
p10609
(lp10610
Vfood
p10611
aVservice
p10612
asS'604'
p10613
(lp10614
Vfood
p10615
aVservice
p10616
asS'573'
p10617
(lp10618
Vfood
p10619
aVservice
p10620
asS'572'
p10621
(lp10622
Vfood
p10623
asS'571'
p10624
(lp10625
Vfood
p10626
aVatmosphere
p10627
asS'570'
p10628
(lp10629
sS'576'
p10630
(lp10631
Vservice
p10632
asS'575'
p10633
(lp10634
Vprice
p10635
aVmilitary_service
p10636
asS'574'
p10637
(lp10638
Vmonetary_value
p10639
asS'2808'
p10640
(lp10641
Vfood
p10642
aVservice
p10643
asS'2809'
p10644
(lp10645
Vatmosphere
p10646
aVserve
p10647
asS'3168'
p10648
(lp10649
Vfood
p10650
aVatmosphere
p10651
aVservice
p10652
asS'3169'
p10653
(lp10654
Vfood
p10655
aVatmosphere
p10656
asS'2802'
p10657
(lp10658
Vfood
p10659
aVservice
p10660
asS'2803'
p10661
(lp10662
sS'2800'
p10663
(lp10664
sS'2801'
p10665
(lp10666
Vfood
p10667
aVprice
p10668
aVatmosphere
p10669
aVservice
p10670
asS'2806'
p10671
(lp10672
Vfood
p10673
aVatmosphere
p10674
aVmilitary_service
p10675
asS'2807'
p10676
(lp10677
Vatmosphere
p10678
asS'2804'
p10679
(lp10680
Vprice
p10681
aVservice
p10682
asS'3161'
p10683
(lp10684
Vfood
p10685
aVservice
p10686
asS'1421'
p10687
(lp10688
Vambiance
p10689
aVservice
p10690
asS'2154'
p10691
(lp10692
Vfood
p10693
asS'1997'
p10694
(lp10695
Vmilitary_service
p10696
asS'1425'
p10697
(lp10698
Vfood
p10699
aVambiance
p10700
aVmilitary_service
p10701
aVservice
p10702
asS'3369'
p10703
(lp10704
Vservice
p10705
asS'1426'
p10706
(lp10707
sS'1429'
p10708
(lp10709
Vfood
p10710
aVatmosphere
p10711
asS'1428'
p10712
(lp10713
Vfood
p10714
aVservice
p10715
asS'3366'
p10716
(lp10717
Vfood
p10718
asS'3367'
p10719
(lp10720
Vprice
p10721
aVservice
p10722
asS'3360'
p10723
(lp10724
Vatmosphere
p10725
aVservice
p10726
asS'2404'
p10727
(lp10728
Vatmosphere
p10729
asS'3362'
p10730
(lp10731
Vmilitary_service
p10732
aVservice
p10733
asS'3363'
p10734
(lp10735
Vfood
p10736
asS'731'
p10737
(lp10738
Vfood
p10739
aVservice
p10740
asS'730'
p10741
(lp10742
Vfood
p10743
asS'733'
p10744
(lp10745
Vfood
p10746
aVatmosphere
p10747
aVambiance
p10748
aVmonetary_value
p10749
aVservice
p10750
asS'2157'
p10751
(lp10752
Vfood
p10753
aVambiance
p10754
aVservice
p10755
asS'737'
p10756
(lp10757
Vprice
p10758
aVatmosphere
p10759
aVservice
p10760
asS'736'
p10761
(lp10762
Vfood
p10763
aVatmosphere
p10764
aVservice
p10765
asS'739'
p10766
(lp10767
Vfood
p10768
aVservice
p10769
asS'738'
p10770
(lp10771
Vfood
p10772
aVservice
p10773
asS'2151'
p10774
(lp10775
Vprice
p10776
aVmilitary_service
p10777
asS'1358'
p10778
(lp10779
Vfood
p10780
aVmonetary_value
p10781
aVservice
p10782
asS'469'
p10783
(lp10784
Vservice
p10785
asS'468'
p10786
(lp10787
Vfood
p10788
aVatmosphere
p10789
aVambiance
p10790
aVservice
p10791
asS'1353'
p10792
(lp10793
Vfood
p10794
aVambiance
p10795
aVservice
p10796
asS'1352'
p10797
(lp10798
Vservice
p10799
asS'467'
p10800
(lp10801
Vatmosphere
p10802
aVambiance
p10803
aVservice
p10804
asS'466'
p10805
(lp10806
Vfood
p10807
aVservice
p10808
asS'461'
p10809
(lp10810
Vfood
p10811
aVmilitary_service
p10812
aVservice
p10813
asS'1356'
p10814
(lp10815
Vprice
p10816
aVservice
p10817
asS'1355'
p10818
(lp10819
Vfood
p10820
asS'608'
p10821
(lp10822
Vmilitary_service
p10823
asS'1273'
p10824
(lp10825
Vfood
p10826
aVservice
p10827
asS'937'
p10828
(lp10829
Vfood
p10830
aVprice
p10831
aVmonetary_value
p10832
aVservice
p10833
asS'936'
p10834
(lp10835
Vservice
p10836
asS'1519'
p10837
(lp10838
Vmilitary_service
p10839
aVservice
p10840
asS'1518'
p10841
(lp10842
Vfood
p10843
aVatmosphere
p10844
aVservice
p10845
asS'1514'
p10846
(lp10847
Vfood
p10848
aVserve
p10849
aVmilitary_service
p10850
aVservice
p10851
asS'1517'
p10852
(lp10853
Vfood
p10854
aVatmosphere
p10855
aVservice
p10856
asS'934'
p10857
(lp10858
Vfood
p10859
asS'1274'
p10860
(lp10861
Vfood
p10862
aVserve
p10863
asS'1004'
p10864
(lp10865
Vserve
p10866
aVambiance
p10867
aVservice
p10868
asS'3184'
p10869
(lp10870
Vfood
p10871
aVservice
p10872
asS'3185'
p10873
(lp10874
Vfood
p10875
aVatmosphere
p10876
aVservice
p10877
asS'3186'
p10878
(lp10879
Vprice
p10880
aVatmosphere
p10881
aVmilitary_service
p10882
asS'3187'
p10883
(lp10884
sS'3180'
p10885
(lp10886
Vatmosphere
p10887
aVprice
p10888
aVservice
p10889
aVmilitary_service
p10890
asS'3181'
p10891
(lp10892
sS'3182'
p10893
(lp10894
Vservice
p10895
asS'3183'
p10896
(lp10897
Voverhaul
p10898
aVservice
p10899
asS'3188'
p10900
(lp10901
Vfood
p10902
aVservice
p10903
asS'3189'
p10904
(lp10905
Vfood
p10906
aVatmosphere
p10907
aVservice
p10908
asS'3397'
p10909
(lp10910
Vservice
p10911
asS'355'
p10912
(lp10913
Vfood
p10914
aVambiance
p10915
asS'353'
p10916
(lp10917
Vfood
p10918
aVambiance
p10919
asS'352'
p10920
(lp10921
Vfood
p10922
aVatmosphere
p10923
aVambiance
p10924
aVservice
p10925
asS'351'
p10926
(lp10927
Vfood
p10928
asS'350'
p10929
(lp10930
sS'359'
p10931
(lp10932
Vfood
p10933
asS'3107'
p10934
(lp10935
Vfood
p10936
asS'3612'
p10937
(lp10938
Vmilitary_service
p10939
aVservice
p10940
asS'2298'
p10941
(lp10942
Vfood
p10943
aVambiance
p10944
aVmilitary_service
p10945
asS'2323'
p10946
(lp10947
Vfood
p10948
asS'2322'
p10949
(lp10950
sS'2321'
p10951
(lp10952
Vatmosphere
p10953
aVprice
p10954
asS'2320'
p10955
(lp10956
Vmilitary_service
p10957
aVservice
p10958
asS'2325'
p10959
(lp10960
Vservice
p10961
asS'2324'
p10962
(lp10963
Vfood
p10964
asS'2329'
p10965
(lp10966
Vatmosphere
p10967
aVservice
p10968
asS'2328'
p10969
(lp10970
Vfood
p10971
aVservice
p10972
asS'289'
p10973
(lp10974
Vfood
p10975
aVservice
p10976
asS'288'
p10977
(lp10978
Vambiance
p10979
asS'280'
p10980
(lp10981
Vfood
p10982
aVservice
p10983
asS'282'
p10984
(lp10985
Vfood
p10986
aVatmosphere
p10987
aVservice
p10988
asS'285'
p10989
(lp10990
Vfood
p10991
aVatmosphere
p10992
aVprice
p10993
aVservice
p10994
asS'284'
p10995
(lp10996
Vprice
p10997
aVmonetary_value
p10998
aVservice
p10999
asS'287'
p11000
(lp11001
Vfood
p11002
aVservice
p11003
asS'1441'
p11004
(lp11005
Vfood
p11006
aVserve
p11007
aVservice
p11008
asS'1440'
p11009
(lp11010
Vfood
p11011
asS'263'
p11012
(lp11013
Vservice
p11014
asS'262'
p11015
(lp11016
Vservice
p11017
asS'261'
p11018
(lp11019
Vservice
p11020
asS'260'
p11021
(lp11022
Vservice
p11023
asS'267'
p11024
(lp11025
Vfood
p11026
aVservice
p11027
asS'266'
p11028
(lp11029
Vmilitary_service
p11030
asS'265'
p11031
(lp11032
sS'264'
p11033
(lp11034
Vfood
p11035
aVatmosphere
p11036
aVmilitary_service
p11037
asS'269'
p11038
(lp11039
Vfood
p11040
aVservice
p11041
asS'268'
p11042
(lp11043
Vservice
p11044
asS'1562'
p11045
(lp11046
Vprice
p11047
aVatmosphere
p11048
asS'2499'
p11049
(lp11050
sS'2498'
p11051
(lp11052
Vfood
p11053
aVambiance
p11054
aVmonetary_value
p11055
asS'2491'
p11056
(lp11057
Vfood
p11058
aVservice
p11059
asS'1296'
p11060
(lp11061
Vatmosphere
p11062
aVmonetary_value
p11063
asS'2493'
p11064
(lp11065
Vfood
p11066
asS'2492'
p11067
(lp11068
Vfood
p11069
aVatmosphere
p11070
aVoverhaul
p11071
asS'2495'
p11072
(lp11073
Vfood
p11074
aVprice
p11075
aVambiance
p11076
aVatmosphere
p11077
aVservice
p11078
asS'2494'
p11079
(lp11080
Vatmosphere
p11081
aVambiance
p11082
aVservice
p11083
asS'2497'
p11084
(lp11085
Vservice
p11086
asS'2496'
p11087
(lp11088
Vfood
p11089
aVatmosphere
p11090
aVambiance
p11091
asS'2193'
p11092
(lp11093
Vservice
p11094
asS'1566'
p11095
(lp11096
Vfood
p11097
asS'2259'
p11098
(lp11099
Vfood
p11100
aVservice
p11101
asS'2258'
p11102
(lp11103
Vprice
p11104
asS'2257'
p11105
(lp11106
Vambiance
p11107
aVservice
p11108
asS'2256'
p11109
(lp11110
Vfood
p11111
aVprice
p11112
asS'2254'
p11113
(lp11114
Vprice
p11115
aVambiance
p11116
aVmilitary_service
p11117
aVservice
p11118
asS'2253'
p11119
(lp11120
Vfood
p11121
asS'2252'
p11122
(lp11123
Vambiance
p11124
asS'2251'
p11125
(lp11126
Voverhaul
p11127
asS'2250'
p11128
(lp11129
Vprice
p11130
asS'2477'
p11131
(lp11132
Vfood
p11133
asS'988'
p11134
(lp11135
Vfood
p11136
asS'3224'
p11137
(lp11138
Vfood
p11139
asS'2473'
p11140
(lp11141
sS'2472'
p11142
(lp11143
Vfood
p11144
aVprice
p11145
asS'2471'
p11146
(lp11147
Vfood
p11148
aVmonetary_value
p11149
aVservice
p11150
asS'982'
p11151
(lp11152
Vfood
p11153
aVservice
p11154
asS'983'
p11155
(lp11156
Vfood
p11157
asS'980'
p11158
(lp11159
Vatmosphere
p11160
aVservice
p11161
asS'981'
p11162
(lp11163
Vfood
p11164
aVatmosphere
p11165
aVmilitary_service
p11166
aVservice
p11167
asS'987'
p11168
(lp11169
Vambiance
p11170
aVservice
p11171
asS'984'
p11172
(lp11173
Vfood
p11174
aVservice
p11175
asS'985'
p11176
(lp11177
Vservice
p11178
asS'115'
p11179
(lp11180
sS'1790'
p11181
(lp11182
Vfood
p11183
aVmilitary_service
p11184
aVservice
p11185
asS'116'
p11186
(lp11187
Vfood
p11188
aVatmosphere
p11189
aVmilitary_service
p11190
aVservice
p11191
aVmonetary_value
p11192
asS'110'
p11193
(lp11194
Vfood
p11195
aVprice
p11196
aVatmosphere
p11197
asS'119'
p11198
(lp11199
Vatmosphere
p11200
aVmilitary_service
p11201
asS'3432'
p11202
(lp11203
Vfood
p11204
aVprice
p11205
aVservice
p11206
asS'2785'
p11207
(lp11208
Vmilitary_service
p11209
aVservice
p11210
asS'2784'
p11211
(lp11212
Vfood
p11213
aVambiance
p11214
asS'2787'
p11215
(lp11216
Vfood
p11217
asS'2786'
p11218
(lp11219
Vfood
p11220
aVatmosphere
p11221
aVservice
p11222
asS'2781'
p11223
(lp11224
Vfood
p11225
asS'2780'
p11226
(lp11227
Vmilitary_service
p11228
asS'2783'
p11229
(lp11230
Vfood
p11231
aVatmosphere
p11232
asS'2782'
p11233
(lp11234
Vfood
p11235
asS'2789'
p11236
(lp11237
Vambiance
p11238
aVservice
p11239
asS'2788'
p11240
(lp11241
sS'2079'
p11242
(lp11243
Vfood
p11244
aVatmosphere
p11245
aVmilitary_service
p11246
asS'2078'
p11247
(lp11248
Vfood
p11249
aVatmosphere
p11250
aVservice
p11251
asS'2072'
p11252
(lp11253
sS'2071'
p11254
(lp11255
Vfood
p11256
aVprice
p11257
asS'2070'
p11258
(lp11259
Vfood
p11260
asS'2077'
p11261
(lp11262
Vfood
p11263
asS'2076'
p11264
(lp11265
Vfood
p11266
aVmonetary_value
p11267
asS'2075'
p11268
(lp11269
Vservice
p11270
asS'1388'
p11271
(lp11272
Vfood
p11273
aVatmosphere
p11274
aVservice
p11275
asS'1796'
p11276
(lp11277
Vservice
p11278
asS'3508'
p11279
(lp11280
Vfood
p11281
aVprice
p11282
asS'3504'
p11283
(lp11284
Vservicing
p11285
aVservice
p11286
aVmilitary_service
p11287
asS'3505'
p11288
(lp11289
Vfood
p11290
aVmilitary_service
p11291
aVservice
p11292
asS'3506'
p11293
(lp11294
Vfood
p11295
aVoverhaul
p11296
aVmilitary_service
p11297
aVservice
p11298
asS'3507'
p11299
(lp11300
Vatmosphere
p11301
aVservice
p11302
asS'2671'
p11303
(lp11304
Vfood
p11305
aVmilitary_service
p11306
aVservice
p11307
asS'2670'
p11308
(lp11309
Vfood
p11310
aVprice
p11311
asS'2673'
p11312
(lp11313
sS'2672'
p11314
(lp11315
Vfood
p11316
asS'2675'
p11317
(lp11318
sS'2674'
p11319
(lp11320
Vfood
p11321
aVatmosphere
p11322
aVmilitary_service
p11323
aVservice
p11324
asS'2677'
p11325
(lp11326
Vfood
p11327
aVambiance
p11328
aVservice
p11329
asS'2676'
p11330
(lp11331
Vatmosphere
p11332
aVservice
p11333
aVfood
p11334
aVprice
p11335
aVambiance
p11336
aVmilitary_service
p11337
asS'2929'
p11338
(lp11339
Vfood
p11340
asS'2928'
p11341
(lp11342
Vfood
p11343
aVatmosphere
p11344
asS'2921'
p11345
(lp11346
Vfood
p11347
asS'2920'
p11348
(lp11349
sS'2923'
p11350
(lp11351
Vfood
p11352
aVatmosphere
p11353
aVservice
p11354
asS'2922'
p11355
(lp11356
Vmonetary_value
p11357
asS'2925'
p11358
(lp11359
Vfood
p11360
asS'2924'
p11361
(lp11362
Vfood
p11363
aVservice
p11364
asS'2927'
p11365
(lp11366
Vfood
p11367
aVatmosphere
p11368
aVambiance
p11369
aVservice
p11370
asS'2564'
p11371
(lp11372
Vfood
p11373
aVprice
p11374
aVmilitary_service
p11375
asS'708'
p11376
(lp11377
Vatmosphere
p11378
aVambiance
p11379
asS'2906'
p11380
(lp11381
Vfood
p11382
asS'1630'
p11383
(lp11384
Vfood
p11385
aVservice
p11386
asS'1987'
p11387
(lp11388
Vfood
p11389
aVatmosphere
p11390
aVprice
p11391
aVservice
p11392
asS'1632'
p11393
(lp11394
Vprice
p11395
aVservice
p11396
asS'3217'
p11397
(lp11398
Vfood
p11399
asS'1634'
p11400
(lp11401
Vfood
p11402
aVservicing
p11403
aVservice
p11404
asS'3211'
p11405
(lp11406
Vfood
p11407
aVmilitary_service
p11408
aVservice
p11409
asS'1980'
p11410
(lp11411
Vfood
p11412
aVservice
p11413
asS'1981'
p11414
(lp11415
Vservice
p11416
asS'1638'
p11417
(lp11418
Vfood
p11419
aVatmosphere
p11420
aVmonetary_value
p11421
asS'1639'
p11422
(lp11423
Vfood
p11424
aVprice
p11425
aVatmosphere
p11426
asS'2904'
p11427
(lp11428
Vfood
p11429
aVservice
p11430
asS'3218'
p11431
(lp11432
sS'3219'
p11433
(lp11434
Vfood
p11435
aVatmosphere
p11436
aVambiance
p11437
aVservice
p11438
asS'1988'
p11439
(lp11440
Vservice
p11441
asS'1989'
p11442
(lp11443
Vfood
p11444
aVserve
p11445
aVmilitary_service
p11446
aVservice
p11447
aVservicing
p11448
asS'706'
p11449
(lp11450
sS'568'
p11451
(lp11452
Vfood
p11453
aVambiance
p11454
aVservice
p11455
asS'569'
p11456
(lp11457
Vfood
p11458
asS'2817'
p11459
(lp11460
Vfood
p11461
aVservice
p11462
asS'2811'
p11463
(lp11464
Vservice
p11465
asS'2810'
p11466
(lp11467
sS'2812'
p11468
(lp11469
Vatmosphere
p11470
aVservicing
p11471
aVservice
p11472
asS'560'
p11473
(lp11474
Vfood
p11475
asS'561'
p11476
(lp11477
Vfood
p11478
aVservice
p11479
asS'562'
p11480
(lp11481
Vfood
p11482
aVmonetary_value
p11483
aVservice
p11484
asS'563'
p11485
(lp11486
Vfood
p11487
aVmilitary_service
p11488
aVservice
p11489
aVservicing
p11490
asS'2819'
p11491
(lp11492
Vprice
p11493
aVservice
p11494
asS'565'
p11495
(lp11496
Vfood
p11497
asS'566'
p11498
(lp11499
Vfood
p11500
aVprice
p11501
aVmilitary_service
p11502
asS'567'
p11503
(lp11504
Vfood
p11505
asS'3178'
p11506
(lp11507
Vfood
p11508
aVatmosphere
p11509
aVoverhaul
p11510
asS'3171'
p11511
(lp11512
Vfood
p11513
aVatmosphere
p11514
aVoverhaul
p11515
aVservice
p11516
asS'3170'
p11517
(lp11518
Vfood
p11519
aVservice
p11520
asS'3173'
p11521
(lp11522
Vservice
p11523
asS'3172'
p11524
(lp11525
Vfood
p11526
asS'3175'
p11527
(lp11528
Vservice
p11529
asS'3174'
p11530
(lp11531
Vprice
p11532
aVservice
p11533
asS'3177'
p11534
(lp11535
Vfood
p11536
aVatmosphere
p11537
aVservice
p11538
asS'3176'
p11539
(lp11540
sS'659'
p11541
(lp11542
sS'1188'
p11543
(lp11544
Vfood
p11545
aVprice
p11546
aVservice
p11547
asS'1189'
p11548
(lp11549
Vservice
p11550
asS'3377'
p11551
(lp11552
Vfood
p11553
aVatmosphere
p11554
asS'3376'
p11555
(lp11556
Vfood
p11557
aVatmosphere
p11558
asS'1184'
p11559
(lp11560
Vprice
p11561
aVservice
p11562
asS'3374'
p11563
(lp11564
Vatmosphere
p11565
asS'3373'
p11566
(lp11567
Vfood
p11568
aVmilitary_service
p11569
aVservice
p11570
asS'3372'
p11571
(lp11572
Vatmosphere
p11573
asS'1180'
p11574
(lp11575
sS'3370'
p11576
(lp11577
Vfood
p11578
aVservice
p11579
asS'726'
p11580
(lp11581
Vservice
p11582
asS'727'
p11583
(lp11584
Vfood
p11585
aVambiance
p11586
aVservice
p11587
asS'1748'
p11588
(lp11589
Vfood
p11590
aVservice
p11591
asS'1749'
p11592
(lp11593
Vservice
p11594
asS'720'
p11595
(lp11596
Vatmosphere
p11597
asS'721'
p11598
(lp11599
Vatmosphere
p11600
aVservice
p11601
asS'1745'
p11602
(lp11603
sS'1746'
p11604
(lp11605
Vambiance
p11606
asS'1747'
p11607
(lp11608
Vfood
p11609
aVmilitary_service
p11610
aVservice
p11611
asS'1740'
p11612
(lp11613
Vfood
p11614
asS'1741'
p11615
(lp11616
sS'728'
p11617
(lp11618
Vfood
p11619
asS'1486'
p11620
(lp11621
Vfood
p11622
aVambiance
p11623
aVserve
p11624
asS'1164'
p11625
(lp11626
Vfood
p11627
aVservice
p11628
asS'1165'
p11629
(lp11630
Vfood
p11631
asS'1166'
p11632
(lp11633
Vatmosphere
p11634
asS'1167'
p11635
(lp11636
Vfood
p11637
aVservice
p11638
asS'1160'
p11639
(lp11640
Vfood
p11641
aVservice
p11642
asS'1161'
p11643
(lp11644
Vservice
p11645
asS'1162'
p11646
(lp11647
Vfood
p11648
aVprice
p11649
aVatmosphere
p11650
aVservice
p11651
aVmilitary_service
p11652
asS'1163'
p11653
(lp11654
Vservice
p11655
asS'1623'
p11656
(lp11657
Vfood
p11658
aVprice
p11659
asS'1168'
p11660
(lp11661
Vfood
p11662
aVserve
p11663
aVoverhaul
p11664
aVmilitary_service
p11665
aVservice
p11666
asS'1169'
p11667
(lp11668
Vfood
p11669
aVprice
p11670
aVservice
p11671
asS'3092'
p11672
(lp11673
Vfood
p11674
asS'1489'
p11675
(lp11676
Vservice
p11677
asS'1366'
p11678
(lp11679
Vfood
p11680
aVatmosphere
p11681
aVmilitary_service
p11682
aVservice
p11683
asS'2913'
p11684
(lp11685
Vfood
p11686
aVatmosphere
p11687
aVambiance
p11688
asS'1488'
p11689
(lp11690
Vfood
p11691
aVatmosphere
p11692
asS'1367'
p11693
(lp11694
Vfood
p11695
asS'46'
p11696
(lp11697
Vfood
p11698
aVambiance
p11699
aVservice
p11700
asS'47'
p11701
(lp11702
Vfood
p11703
aVatmosphere
p11704
asS'44'
p11705
(lp11706
Vatmosphere
p11707
aVmilitary_service
p11708
asS'45'
p11709
(lp11710
Vmilitary_service
p11711
aVservice
p11712
asS'42'
p11713
(lp11714
Vfood
p11715
aVprice
p11716
aVambiance
p11717
aVservice
p11718
asS'43'
p11719
(lp11720
Vfood
p11721
aVservice
p11722
asS'40'
p11723
(lp11724
Vfood
p11725
aVservice
p11726
asS'41'
p11727
(lp11728
Vfood
p11729
aVservice
p11730
asS'1568'
p11731
(lp11732
Vmilitary_service
p11733
asS'1569'
p11734
(lp11735
Vfood
p11736
aVservice
p11737
asS'1298'
p11738
(lp11739
Vfood
p11740
aVservice
p11741
asS'1299'
p11742
(lp11743
Vatmosphere
p11744
aVambiance
p11745
asS'1587'
p11746
(lp11747
Vfood
p11748
aVprice
p11749
aVambiance
p11750
aVatmosphere
p11751
aVservice
p11752
asS'1560'
p11753
(lp11754
sS'1293'
p11755
(lp11756
sS'1290'
p11757
(lp11758
sS'1563'
p11759
(lp11760
Vfood
p11761
asS'1564'
p11762
(lp11763
Vmilitary_service
p11764
asS'1565'
p11765
(lp11766
Vprice
p11767
aVservice
p11768
asS'1294'
p11769
(lp11770
Vfood
p11771
asS'1567'
p11772
(lp11773
Vatmosphere
p11774
aVambiance
p11775
aVservice
p11776
asS'1713'
p11777
(lp11778
Vfood
p11779
aVatmosphere
p11780
aVmilitary_service
p11781
aVservice
p11782
asS'474'
p11783
(lp11784
Vfood
p11785
aVprice
p11786
aVambiance
p11787
aVatmosphere
p11788
aVservice
p11789
asS'796'
p11790
(lp11791
Vfood
p11792
asS'591'
p11793
(lp11794
Vservice
p11795
asS'475'
p11796
(lp11797
Vfood
p11798
aVambiance
p11799
aVservice
p11800
asS'795'
p11801
(lp11802
sS'1789'
p11803
(lp11804
Vatmosphere
p11805
aVambiance
p11806
aVservice
p11807
asS'1716'
p11808
(lp11809
Vfood
p11810
aVatmosphere
p11811
aVservice
p11812
asS'1715'
p11813
(lp11814
Vfood
p11815
aVservice
p11816
asS'590'
p11817
(lp11818
Vfood
p11819
aVservice
p11820
asS'732'
p11821
(lp11822
Vfood
p11823
asS'1714'
p11824
(lp11825
Vfood
p11826
aVservice
p11827
asS'472'
p11828
(lp11829
Vfood
p11830
aVservice
p11831
asS'473'
p11832
(lp11833
sS'3195'
p11834
(lp11835
Vambiance
p11836
aVoverhaul
p11837
asS'3194'
p11838
(lp11839
Vfood
p11840
aVservice
p11841
asS'476'
p11842
(lp11843
Vatmosphere
p11844
aVservice
p11845
asS'3192'
p11846
(lp11847
Vfood
p11848
asS'3191'
p11849
(lp11850
Vfood
p11851
asS'3190'
p11852
(lp11853
Vfood
p11854
aVambiance
p11855
aVmilitary_service
p11856
aVservice
p11857
asS'479'
p11858
(lp11859
Vfood
p11860
asS'2916'
p11861
(lp11862
Vatmosphere
p11863
aVmonetary_value
p11864
asS'3199'
p11865
(lp11866
Vfood
p11867
aVmilitary_service
p11868
asS'3198'
p11869
(lp11870
Vfood
p11871
as.