(dp0
V643
p1
(lp2
sV344
p3
(lp4
Vpeople
p5
asV345
p6
(lp7
Vservice
p8
asV346
p9
(lp10
Vplace
p11
aVprices
p12
asV347
p13
(lp14
Vfavorite
p15
aVmenu
p16
aVroll
p17
asV340
p18
(lp19
Vquality
p20
aVrice
p21
asV341
p22
(lp23
g21
aVsushi
p24
asV342
p25
(lp26
Vfish
p27
asV343
p28
(lp29
Vexperience
p30
aVone
p31
aVrestaurant
p32
asV348
p33
(lp34
g30
ag24
asV349
p35
(lp36
Vvalue
p37
asV2919
p38
(lp39
sV1653
p40
(lp41
sV2318
p42
(lp43
Vchicken
p44
aVdinner
p45
asV2316
p46
(lp47
g45
aVjoint
p48
aVpizza
p49
asV2317
p50
(lp51
Vbeer
p52
asV2314
p53
(lp54
g8
asV2315
p55
(lp56
g11
asV2312
p57
(lp58
Vgem
p59
ag49
ag11
aVpizza place
p60
asV2311
p61
(lp62
sV298
p63
(lp64
Vcity
p65
asV299
p66
(lp67
g8
asV296
p68
(lp69
Vcheese
p70
aVplate
p71
asV297
p72
(lp73
Vglass
p74
aVtable
p75
asV294
p76
(lp77
g32
asV295
p78
(lp79
sV292
p80
(lp81
Vbit
p82
aVfriends
p83
ag75
aVwait
p84
asV293
p85
(lp86
sV291
p87
(lp88
sV587
p89
(lp90
sV270
p91
(lp92
Vatmosphere
p93
aVfood
p94
aVneighborhood
p95
ag8
aVspot
p96
asV271
p97
(lp98
Vdishes
p99
asV272
p100
(lp101
g94
aVlist
p102
aVwine
p103
asV273
p104
(lp105
Vroom
p106
asV274
p107
(lp108
g31
ag32
aVrestaurants
p109
aVstreet
p110
asV275
p111
(lp112
sV276
p113
(lp114
g16
aVstaff
p115
asV277
p116
(lp117
Vappetizers
p118
aVchocolate
p119
aVtaste
p120
asV278
p121
(lp122
g94
asV279
p123
(lp124
g83
aVway
p125
asV738
p126
(lp127
g30
ag94
ag8
asV581
p128
(lp129
sV2268
p130
(lp131
g5
aVproblem
p132
aVtop
p133
asV2269
p134
(lp135
sV2262
p136
(lp137
Vappetizer
p138
ag17
asV2263
p139
(lp140
g82
ag8
asV2260
p141
(lp142
sV2261
p143
(lp144
g102
asV2267
p145
(lp146
g93
asV2442
p147
(lp148
VNY
p149
aVNew
p150
asV2443
p151
(lp152
g94
ag8
asV2440
p153
(lp154
g8
asV2441
p155
(lp156
sV2446
p157
(lp158
Vthing
p159
asV2447
p160
(lp161
sV2444
p162
(lp163
g138
aVlunch
p164
ag16
asV2445
p165
(lp166
Vdrinks
p167
ag164
asV2448
p168
(lp169
VThai
p170
aVnoodles
p171
asV2449
p172
(lp173
Vmeal
p174
asV109
p175
(lp176
sV102
p177
(lp178
Vowner
p179
ag75
asV103
p180
(lp181
Vhome
p182
asV101
p183
(lp184
g11
asV2042
p185
(lp186
g12
asV2040
p187
(lp188
sV2041
p189
(lp190
g159
asV1297
p191
(lp192
Vtimes
p193
asV3155
p194
(lp195
g8
asV2838
p196
(lp197
Vdate
p198
ag11
aVtime
p199
asV3159
p200
(lp201
sV3519
p202
(lp203
VVillage
p204
aVambience
p205
ag12
asV3518
p206
(lp207
sV3513
p208
(lp209
g48
ag32
ag8
ag115
asV3512
p210
(lp211
Vdish
p212
ag11
ag109
asV3511
p213
(lp214
Vorder
p215
ag75
asV3510
p216
(lp217
Vcustomer
p218
ag30
ag32
ag8
asV3517
p219
(lp220
g94
asV3516
p221
(lp222
g45
ag164
ag12
asV3515
p223
(lp224
g170
ag32
ag115
aVThai restaurant
p225
asV3514
p226
(lp227
sV2688
p228
(lp229
g94
ag16
aVprice
p230
asV2689
p231
(lp232
Vcourse
p233
asV2686
p234
(lp235
g198
ag83
ag11
ag8
asV2687
p236
(lp237
sV1785
p238
(lp239
g21
ag17
aVsize
p240
asV2681
p241
(lp242
Vpasta
p243
asV3391
p244
(lp245
sV1437
p246
(lp247
sV3393
p248
(lp249
VNYC
p250
ag170
ag94
ag5
aVplaces
p251
aVThai food
p252
asV98
p253
(lp254
g94
asV3392
p255
(lp256
sV91
p257
(lp258
sV90
p259
(lp260
g16
ag20
asV93
p261
(lp262
g83
ag199
asV92
p263
(lp264
g11
asV95
p265
(lp266
g149
asV94
p267
(lp268
g93
ag99
ag8
asV97
p269
(lp270
g102
ag103
asV96
p271
(lp272
sV1623
p273
(lp274
g102
ag103
asV1622
p275
(lp276
Vportions
p277
asV1621
p278
(lp279
g94
ag8
asV3204
p280
(lp281
g198
ag96
asV1627
p282
(lp283
g8
asV1626
p284
(lp285
g199
asV1625
p286
(lp287
g159
asV1624
p288
(lp289
g94
ag8
ag159
asV1998
p290
(lp291
sV3396
p292
(lp293
sV3209
p294
(lp295
g32
asV3208
p296
(lp297
sV2860
p298
(lp299
sV2861
p300
(lp301
g115
asV2862
p302
(lp303
g99
aVminutes
p304
ag31
ag215
aVrest
p305
ag32
ag75
ag193
asV2863
p306
(lp307
sV2864
p308
(lp309
g59
asV558
p310
(lp311
g30
asV555
p312
(lp313
g11
asV554
p314
(lp315
g150
ag5
aVNew York
p316
aVNew York
p317
asV557
p318
(lp319
g8
asV556
p320
(lp321
Varea
p322
ag93
ag102
ag11
ag12
aVreviews
p323
ag8
ag103
asV551
p324
(lp325
g84
asV550
p326
(lp327
g94
ag11
ag8
ag193
ag103
asV553
p328
(lp329
g8
asV552
p330
(lp331
g74
ag103
asV1199
p332
(lp333
sV1198
p334
(lp335
g27
aVnothing
p336
asV1191
p337
(lp338
Vaverage
p339
aVchef
p340
aVwaitress
p341
asV3343
p342
(lp343
g94
asV3340
p344
(lp345
g45
aVnight
p346
ag32
asV3341
p347
(lp348
g340
ag233
ag115
asV1195
p349
(lp350
g339
ag12
ag24
asV1194
p351
(lp352
g193
asV1197
p353
(lp354
Vhour
p355
asV1196
p356
(lp357
g8
ag75
ag199
asV1759
p358
(lp359
g182
asV1756
p360
(lp361
g230
asV1755
p362
(lp363
g49
asV1750
p364
(lp365
Vend
p366
asV1177
p367
(lp368
sV1176
p369
(lp370
g31
aVreview
p371
asV1175
p372
(lp373
g94
ag71
asV1174
p374
(lp375
g11
ag199
asV1173
p376
(lp377
sV1171
p378
(lp379
g250
ag120
asV1170
p380
(lp381
g339
ag193
asV1179
p382
(lp383
g31
asV1178
p384
(lp385
sV511
p386
(lp387
sV510
p388
(lp389
sV513
p390
(lp391
g75
asV1285
p392
(lp393
sV1287
p394
(lp395
Vbar
p396
ag83
ag95
asV1286
p397
(lp398
g96
ag199
asV1281
p399
(lp400
g82
asV1280
p401
(lp402
sV1283
p403
(lp404
sV1282
p405
(lp406
g346
asV1289
p407
(lp408
g149
ag48
ag49
asV1288
p409
(lp410
g49
asV514
p411
(lp412
g199
asV1579
p413
(lp414
g277
asV1578
p415
(lp416
g94
asV689
p417
(lp418
sV688
p419
(lp420
g96
asV3431
p421
(lp422
sV685
p423
(lp424
g94
ag95
asV1572
p425
(lp426
Vfun
p427
ag31
ag251
asV687
p428
(lp429
g8
asV686
p430
(lp431
g193
asV1577
p432
(lp433
sV680
p434
(lp435
g305
ag32
ag110
asV1575
p436
(lp437
g32
asV1574
p438
(lp439
g427
ag11
asV1227
p440
(lp441
sV875
p442
(lp443
g32
asV622
p444
(lp445
g11
asV3434
p446
(lp447
Vdessert
p448
asV1240
p449
(lp450
sV873
p451
(lp452
g32
ag323
asV3436
p453
(lp454
g99
ag16
asV871
p455
(lp456
g16
asV2037
p457
(lp458
g94
aVmoney
p459
ag11
asV2036
p460
(lp461
g212
ag99
ag215
ag132
ag120
asV1243
p462
(lp463
sV2035
p464
(lp465
g167
ag94
ag31
ag5
ag277
asV407
p466
(lp467
g24
asV1370
p468
(lp469
g94
asV1373
p470
(lp471
g305
ag120
asV1372
p472
(lp473
VService
p474
ag205
asV403
p475
(lp476
g339
ag346
asV1374
p477
(lp478
g32
asV1377
p479
(lp480
g346
ag96
asV400
p481
(lp482
g11
aVtown
p483
asV1379
p484
(lp485
sV1378
p486
(lp487
g8
asV409
p488
(lp489
g230
ag24
asV408
p490
(lp491
g27
ag21
asV1343
p492
(lp493
g27
asV1242
p494
(lp495
g21
asV1344
p496
(lp497
sV2030
p498
(lp499
g70
ag94
aVserver
p500
ag75
ag103
asV1245
p501
(lp502
sV379
p503
(lp504
g12
asV378
p505
(lp506
g27
aVsauce
p507
asV370
p508
(lp509
sV375
p510
(lp511
g99
ag243
ag106
asV377
p512
(lp513
Vgroup
p514
asV1244
p515
(lp516
g170
aVdrink
p517
ag83
asV391
p518
(lp519
g396
ag83
ag24
ag483
asV390
p520
(lp521
g199
asV397
p522
(lp523
g17
asV396
p524
(lp525
g65
ag15
ag59
ag31
ag109
ag24
asV395
p526
(lp527
g16
asV394
p528
(lp529
g340
ag27
asV2309
p530
(lp531
sV2308
p532
(lp533
sV2301
p534
(lp535
sV2300
p536
(lp537
g199
ag84
asV2303
p538
(lp539
Vdoor
p540
asV2302
p541
(lp542
Vbottle
p543
ag15
aVhouse
p544
ag174
ag49
aVsalad
p545
ag103
asV2305
p546
(lp547
g215
ag193
asV2304
p548
(lp549
sV2307
p550
(lp551
g240
asV2306
p552
(lp553
g94
asV247
p554
(lp555
g94
ag32
asV246
p556
(lp557
sV241
p558
(lp559
VChinatown
p560
ag109
asV240
p561
(lp562
g150
ag11
ag316
ag317
asV249
p563
(lp564
g11
ag110
asV248
p565
(lp566
g560
ag323
ag199
asV2275
p567
(lp568
g560
ag11
asV2274
p569
(lp570
g230
ag17
asV2277
p571
(lp572
sV2276
p573
(lp574
g44
ag99
ag514
ag16
aVnoodle
p575
asV2271
p576
(lp577
g94
ag110
ag84
asV2273
p578
(lp579
g24
asV2272
p580
(lp581
g167
ag16
asV2279
p582
(lp583
g560
ag11
ag12
asV2278
p584
(lp585
Vflavor
p586
ag16
ag120
asV2154
p587
(lp588
sV2459
p589
(lp590
sV2458
p591
(lp592
g149
ag396
ag167
ag94
aVlot
p593
ag5
ag32
asV2455
p594
(lp595
g396
ag167
aVfix
p596
aVitem
p597
aVkind
p598
ag16
ag115
asV2454
p599
(lp600
sV2457
p601
(lp602
g115
asV2456
p603
(lp604
g199
asV2451
p605
(lp606
g12
asV2450
p607
(lp608
g212
asV2453
p609
(lp610
g233
aVportion
p611
ag277
asV2452
p612
(lp613
g5
ag32
asV179
p614
(lp615
g474
asV178
p616
(lp617
g94
ag341
asV177
p618
(lp619
g514
asV176
p620
(lp621
g11
asV175
p622
(lp623
g198
aVdecor
p624
aVdining
p625
aVside
p626
asV174
p627
(lp628
g164
ag215
ag132
ag199
asV173
p629
(lp630
g626
asV2969
p631
(lp632
sV3698
p633
(lp634
g16
asV3699
p635
(lp636
sV2053
p637
(lp638
sV2052
p639
(lp640
sV2054
p641
(lp642
sV2057
p643
(lp644
g94
asV3690
p645
(lp646
g119
asV2058
p647
(lp648
sV3692
p649
(lp650
g215
ag11
asV3693
p651
(lp652
sV3694
p653
(lp654
sV3695
p655
(lp656
sV3696
p657
(lp658
g250
ag251
ag611
ag230
asV3697
p659
(lp660
g251
asV655
p661
(lp662
g94
ag32
ag120
aVyears
p663
asV3089
p664
(lp665
sV653
p666
(lp667
g32
asV1367
p668
(lp669
sV3526
p670
(lp671
sV3527
p672
(lp673
g94
ag16
ag336
asV3524
p674
(lp675
g118
asV3525
p676
(lp677
g115
ag75
asV3520
p678
(lp679
g624
ag45
asV3521
p680
(lp681
sV1508
p682
(lp683
g366
ag8
asV3541
p684
(lp685
g45
asV3086
p686
(lp687
g167
ag593
ag11
asV3225
p688
(lp689
Vselection
p690
asV3083
p691
(lp692
g94
ag115
ag84
asV2699
p693
(lp694
Vanyone
p695
ag11
asV2698
p696
(lp697
Vreservation
p698
ag8
ag199
asV2697
p699
(lp700
g586
asV2696
p701
(lp702
g94
ag16
ag323
asV2695
p703
(lp704
sV2694
p705
(lp706
sV2693
p707
(lp708
g174
ag545
asV1603
p709
(lp710
g11
asV2691
p711
(lp712
g30
ag174
asV2690
p713
(lp714
sV2405
p715
(lp716
g94
ag12
asV1602
p717
(lp718
g474
asV1973
p719
(lp720
g230
asV1972
p721
(lp722
Vglasses
p723
asV1607
p724
(lp725
g82
ag45
ag346
ag8
ag75
ag663
asV1606
p726
(lp727
Vhand
p728
asV1362
p729
(lp730
sV3232
p731
(lp732
sV3233
p733
(lp734
g193
asV3230
p735
(lp736
g102
ag16
ag103
asV3236
p737
(lp738
g30
ag5
ag32
asV1969
p739
(lp740
Vambiance
p741
ag690
ag8
ag103
asV3234
p742
(lp743
g30
ag94
asV1619
p744
(lp745
g543
ag723
ag75
asV1616
p746
(lp747
g99
ag16
aVwaiter
p748
asV1617
p749
(lp750
g99
ag16
ag5
asV3238
p751
(lp752
VSaturday
p753
ag346
aVSaturday night
p754
aVSaturday night
p755
asV3239
p756
(lp757
g698
asV1960
p758
(lp759
g304
ag698
ag199
asV1961
p760
(lp761
g8
ag75
asV1610
p762
(lp763
g49
asV1611
p764
(lp765
sV3650
p766
(lp767
sV2872
p768
(lp769
g115
asV2871
p770
(lp771
VEast
p772
ag204
ag93
ag59
aVEast Village
p773
aVEast Village
p774
asV2877
p775
(lp776
sV2876
p777
(lp778
g30
ag193
asV2875
p779
(lp780
g12
ag103
asV2879
p781
(lp782
g94
ag12
ag8
asV2878
p783
(lp784
g772
ag204
ag11
ag773
ag774
asV3355
p785
(lp786
g82
ag119
ag448
asV3354
p787
(lp788
sV3353
p789
(lp790
g49
ag545
ag133
asV3352
p791
(lp792
g49
ag32
asV3359
p793
(lp794
g49
asV3358
p795
(lp796
sV1768
p797
(lp798
sV1769
p799
(lp800
sV1116
p801
(lp802
sV1760
p803
(lp804
sV1766
p805
(lp806
sV1767
p807
(lp808
sV1765
p809
(lp810
sV1140
p811
(lp812
g94
ag95
ag110
ag199
asV1146
p813
(lp814
g199
asV1147
p815
(lp816
sV1144
p817
(lp818
Vmonth
p819
asV1789
p820
(lp821
Vpart
p822
ag11
ag483
asV1148
p823
(lp824
g83
ag109
asV1149
p825
(lp826
sV768
p827
(lp828
g741
asV2966
p829
(lp830
sV692
p831
(lp832
g150
aVStreet
p833
ag199
ag316
aVSmith Street
p834
ag317
aVSmith Street
p835
asV1547
p836
(lp837
g179
asV690
p838
(lp839
g93
ag12
asV691
p840
(lp841
g448
ag94
ag277
asV1542
p842
(lp843
g94
asV1543
p844
(lp845
g106
asV1540
p846
(lp847
g304
asV695
p848
(lp849
g84
asV698
p850
(lp851
sV699
p852
(lp853
g102
ag103
asV1548
p854
(lp855
g94
asV1549
p856
(lp857
g94
ag11
asV542
p858
(lp859
g149
aVfriend
p860
asV1780
p861
(lp862
Veverything
p863
ag94
ag16
asV540
p864
(lp865
sV541
p866
(lp867
sV547
p868
(lp869
g164
ag11
ag193
ag84
asV544
p870
(lp871
g96
asV1781
p872
(lp873
sV548
p874
(lp875
g11
asV549
p876
(lp877
sV1782
p878
(lp879
sV761
p880
(lp881
sV766
p882
(lp883
Vsum
p884
asV767
p885
(lp886
g65
ag94
ag109
ag199
asV1941
p887
(lp888
sV1786
p889
(lp890
g230
ag17
asV1787
p891
(lp892
sV414
p893
(lp894
g170
ag94
ag252
asV415
p895
(lp896
g94
ag355
ag31
asV416
p897
(lp898
g94
ag21
asV417
p899
(lp900
g170
ag45
ag32
ag21
ag225
asV410
p901
(lp902
g753
ag346
ag754
ag755
asV411
p903
(lp904
sV412
p905
(lp906
g27
ag586
asV413
p907
(lp908
g102
ag11
asV1384
p909
(lp910
g170
aVday
p911
ag94
ag230
ag32
ag225
asV1385
p912
(lp913
g474
ag624
ag120
asV1386
p914
(lp915
g170
ag94
asV1387
p916
(lp917
g30
asV418
p918
(lp919
g94
ag304
asV419
p920
(lp921
g860
ag346
asV1382
p922
(lp923
sV1383
p924
(lp925
g215
ag32
asV1507
p926
(lp927
sV2769
p928
(lp929
sV3583
p930
(lp931
sV368
p932
(lp933
g543
ag75
ag103
asV369
p934
(lp935
g448
ag16
asV366
p936
(lp937
g748
asV367
p938
(lp939
g346
asV364
p940
(lp941
g233
ag748
asV365
p942
(lp943
g70
ag94
ag723
ag174
ag243
ag748
ag103
asV362
p944
(lp945
g624
ag32
asV363
p946
(lp947
g94
ag102
ag8
ag103
asV3214
p948
(lp949
sV380
p950
(lp951
sV381
p952
(lp953
g170
asV382
p954
(lp955
g171
ag507
asV385
p956
(lp957
g11
asV386
p958
(lp959
sV387
p960
(lp961
sV388
p962
(lp963
g65
ag624
ag11
ag12
asV2764
p964
(lp965
sV3215
p966
(lp967
sV2065
p968
(lp969
sV2190
p970
(lp971
sV2191
p972
(lp973
sV2192
p974
(lp975
g624
ag593
ag24
asV259
p976
(lp977
g94
ag32
ag371
ag8
ag199
asV2194
p978
(lp979
g11
asV2195
p980
(lp981
g8
asV2196
p982
(lp983
sV2197
p984
(lp985
g11
ag24
asV2198
p986
(lp987
sV3217
p988
(lp989
g24
asV250
p990
(lp991
g741
ag322
ag8
asV256
p992
(lp993
g822
ag125
asV257
p994
(lp995
g336
asV254
p996
(lp997
g32
ag125
asV255
p998
(lp999
g427
asV2200
p1000
(lp1001
g93
asV2201
p1002
(lp1003
g103
asV2202
p1004
(lp1005
sV2203
p1006
(lp1007
sV2204
p1008
(lp1009
g218
aVseat
p1010
ag8
asV2205
p1011
(lp1012
g94
ag11
asV2206
p1013
(lp1014
g304
ag75
asV2207
p1015
(lp1016
Vtables
p1017
asV2208
p1018
(lp1019
sV2209
p1020
(lp1021
g94
ag822
ag11
ag32
asV2428
p1022
(lp1023
g65
ag94
ag346
ag96
asV2429
p1024
(lp1025
g11
ag110
asV2420
p1026
(lp1027
g11
asV2421
p1028
(lp1029
g94
aVpiece
p1030
asV2422
p1031
(lp1032
g94
ag626
asV2423
p1033
(lp1034
g593
asV2424
p1035
(lp1036
g11
asV2425
p1037
(lp1038
sV2426
p1039
(lp1040
g339
ag31
asV2427
p1041
(lp1042
g11
ag230
ag20
ag37
asV2432
p1043
(lp1044
Vguy
p1045
ag11
asV2791
p1046
(lp1047
Vmushroom
p1048
ag243
asV168
p1049
(lp1050
sV169
p1051
(lp1052
g32
ag193
asV164
p1053
(lp1054
g11
asV165
p1055
(lp1056
g118
ag94
ag336
asV166
p1057
(lp1058
g695
ag598
ag8
asV167
p1059
(lp1060
sV160
p1061
(lp1062
g448
ag30
ag748
asV161
p1063
(lp1064
g860
ag32
asV162
p1065
(lp1066
g118
ag198
ag167
ag860
aVgirlfriend
p1067
asV163
p1068
(lp1069
g215
ag199
ag341
asV3689
p1070
(lp1071
g138
ag70
asV3688
p1072
(lp1073
g93
ag396
aVbartender
p1074
ag32
ag1017
ag748
asV3683
p1075
(lp1076
Vsandwich
p1077
asV3682
p1078
(lp1079
g115
ag483
ag84
asV3681
p1080
(lp1081
g94
ag11
asV3680
p1082
(lp1083
g93
ag371
asV3687
p1084
(lp1085
g31
asV3686
p1086
(lp1087
g93
ag30
asV3685
p1088
(lp1089
g459
asV3684
p1090
(lp1091
g626
asV2514
p1092
(lp1093
g95
ag125
asV2515
p1094
(lp1095
g150
ag11
ag193
ag316
ag317
asV2516
p1096
(lp1097
g250
ag170
ag11
aVThai place
p1098
asV2517
p1099
(lp1100
g540
ag94
ag8
asV2511
p1101
(lp1102
sV2512
p1103
(lp1104
g94
ag12
ag8
asV2513
p1105
(lp1106
g74
ag103
asV2734
p1107
(lp1108
g149
ag586
ag94
ag8
asV2735
p1109
(lp1110
g11
asV2736
p1111
(lp1112
g15
ag95
ag11
asV2737
p1113
(lp1114
g624
ag94
ag277
ag8
asV2730
p1115
(lp1116
g109
asV2733
p1117
(lp1118
g45
ag199
asV2738
p1119
(lp1120
g65
ag32
asV2739
p1121
(lp1122
sV3531
p1123
(lp1124
g94
ag860
ag120
asV3530
p1125
(lp1126
g44
ag507
asV3533
p1127
(lp1128
g11
asV3532
p1129
(lp1130
g32
asV3535
p1131
(lp1132
g624
ag94
ag12
asV3534
p1133
(lp1134
g459
asV3537
p1135
(lp1136
g474
ag30
ag31
ag11
ag32
asV3536
p1137
(lp1138
g164
asV3539
p1139
(lp1140
g45
ag540
ag109
asV3538
p1141
(lp1142
g83
ag32
ag323
asV1814
p1143
(lp1144
sV1815
p1145
(lp1146
sV1816
p1147
(lp1148
g96
asV1817
p1149
(lp1150
sV1811
p1151
(lp1152
g30
ag83
asV1818
p1153
(lp1154
g474
asV1819
p1155
(lp1156
sV2795
p1157
(lp1158
sV671
p1159
(lp1160
g74
ag171
ag21
ag75
asV1609
p1161
(lp1162
g474
asV1608
p1163
(lp1164
g164
ag49
ag11
aVlunch place
p1165
asV3229
p1166
(lp1167
sV3228
p1168
(lp1169
g11
asV1979
p1170
(lp1171
g1030
asV1977
p1172
(lp1173
g84
asV1600
p1174
(lp1175
g149
ag70
ag31
ag49
ag507
aVtomato
p1176
asV3227
p1177
(lp1178
g45
ag346
ag32
ag483
asV3226
p1179
(lp1180
g233
ag596
ag723
ag174
ag103
asV1605
p1181
(lp1182
g138
ag49
ag545
ag193
asV1604
p1183
(lp1184
g45
asV3223
p1185
(lp1186
g32
asV1970
p1187
(lp1188
g586
ag31
ag125
asV1555
p1189
(lp1190
sV809
p1191
(lp1192
g230
asV808
p1193
(lp1194
sV803
p1195
(lp1196
g94
ag83
ag11
asV802
p1197
(lp1198
g545
asV801
p1199
(lp1200
g233
asV800
p1201
(lp1202
g94
aVweek
p1203
asV804
p1204
(lp1205
g32
ag1203
aVrestaurant week
p1206
asV2848
p1207
(lp1208
g94
ag16
asV2849
p1209
(lp1210
sV2846
p1211
(lp1212
g94
asV2847
p1213
(lp1214
g448
ag71
ag115
ag748
asV2844
p1215
(lp1216
g250
ag15
ag32
asV2845
p1217
(lp1218
g31
ag109
asV2842
p1219
(lp1220
g625
ag31
asV2843
p1221
(lp1222
g340
ag448
ag507
asV2840
p1223
(lp1224
sV2841
p1225
(lp1226
g149
ag82
ag30
ag94
ag663
asV3320
p1227
(lp1228
g624
ag94
ag12
asV3321
p1229
(lp1230
g132
asV3322
p1231
(lp1232
g8
asV3323
p1233
(lp1234
sV3324
p1235
(lp1236
g31
asV3325
p1237
(lp1238
g8
asV3326
p1239
(lp1240
sV3327
p1241
(lp1242
g94
ag11
asV3328
p1243
(lp1244
g94
asV3589
p1245
(lp1246
sV1777
p1247
(lp1248
sV1771
p1249
(lp1250
g24
asV1770
p1251
(lp1252
g24
asV1779
p1253
(lp1254
g741
ag179
ag115
asV1778
p1255
(lp1256
g93
ag336
asV2998
p1257
(lp1258
g94
ag11
asV1159
p1259
(lp1260
g149
ag198
ag45
ag31
asV1158
p1261
(lp1262
g82
ag198
ag94
ag32
asV2999
p1263
(lp1264
g48
ag95
asV1155
p1265
(lp1266
g11
asV1154
p1267
(lp1268
sV1157
p1269
(lp1270
g65
asV1156
p1271
(lp1272
g346
ag96
aVnight spot
p1273
asV1151
p1274
(lp1275
g11
asV1150
p1276
(lp1277
sV1153
p1278
(lp1279
sV1152
p1280
(lp1281
g543
asV59
p1282
(lp1283
g93
asV3039
p1284
(lp1285
g164
ag32
asV1551
p1286
(lp1287
g82
ag115
asV1550
p1288
(lp1289
g94
asV1553
p1290
(lp1291
g31
asV1552
p1292
(lp1293
g11
asV3038
p1294
(lp1295
g120
asV58
p1296
(lp1297
g396
ag52
ag94
asV1557
p1298
(lp1299
sV1556
p1300
(lp1301
g31
asV2990
p1302
(lp1303
g31
asV3035
p1304
(lp1305
g32
ag120
asV2992
p1306
(lp1307
g11
ag199
asV56
p1308
(lp1309
g11
asV51
p1310
(lp1311
g250
ag83
ag31
ag251
asV2995
p1312
(lp1313
sV53
p1314
(lp1315
g396
ag94
ag16
ag31
aVbar food
p1316
asV3033
p1317
(lp1318
g586
asV537
p1319
(lp1320
g15
ag95
asV3034
p1321
(lp1322
g459
ag199
asV533
p1323
(lp1324
g690
asV532
p1325
(lp1326
g71
asV531
p1327
(lp1328
g94
ag663
asV530
p1329
(lp1330
g193
asV57
p1331
(lp1332
g250
ag32
asV539
p1333
(lp1334
g32
ag75
asV538
p1335
(lp1336
g199
asV2993
p1337
(lp1338
g93
ag94
asV1558
p1339
(lp1340
g71
ag32
ag21
asV2994
p1341
(lp1342
g115
ag84
asV3294
p1343
(lp1344
sV1907
p1345
(lp1346
g94
ag723
ag341
ag103
asV52
p1347
(lp1348
g11
asV3296
p1349
(lp1350
g199
asV1975
p1351
(lp1352
sV3297
p1353
(lp1354
sV536
p1355
(lp1356
sV1902
p1357
(lp1358
sV3291
p1359
(lp1360
sV429
p1361
(lp1362
g170
ag94
ag252
asV428
p1363
(lp1364
g170
ag322
ag94
ag31
ag252
asV3292
p1365
(lp1366
g474
ag133
asV1399
p1367
(lp1368
g94
ag179
ag663
asV1398
p1369
(lp1370
g93
aVbuffet
p1371
aVchoice
p1372
ag45
ag94
ag164
ag8
asV423
p1373
(lp1374
g170
ag65
ag251
asV1394
p1375
(lp1376
g93
asV1393
p1377
(lp1378
g212
ag99
ag575
asV424
p1379
(lp1380
g863
asV427
p1381
(lp1382
g94
asV1974
p1383
(lp1384
sV854
p1385
(lp1386
g48
asV855
p1387
(lp1388
sV856
p1389
(lp1390
g340
ag99
ag27
asV857
p1391
(lp1392
g340
ag1048
asV850
p1393
(lp1394
sV1841
p1395
(lp1396
sV1321
p1397
(lp1398
g150
ag65
ag94
ag31
ag11
ag316
ag317
asV2382
p1399
(lp1400
sV1840
p1401
(lp1402
sV1971
p1403
(lp1404
sV3474
p1405
(lp1406
sV1424
p1407
(lp1408
g94
ag83
ag31
asV3475
p1409
(lp1410
g517
asV2183
p1411
(lp1412
g44
ag17
asV2187
p1413
(lp1414
g167
ag690
ag103
asV2186
p1415
(lp1416
g15
ag32
asV229
p1417
(lp1418
g5
asV2184
p1419
(lp1420
sV227
p1421
(lp1422
sV226
p1423
(lp1424
g695
asV2189
p1425
(lp1426
g474
asV224
p1427
(lp1428
g94
ag8
asV223
p1429
(lp1430
sV222
p1431
(lp1432
g32
asV221
p1433
(lp1434
g250
asV220
p1435
(lp1436
g695
ag8
ag133
asV2213
p1437
(lp1438
g11
asV2212
p1439
(lp1440
g170
ag11
asV2211
p1441
(lp1442
sV2210
p1443
(lp1444
g212
ag586
ag94
ag193
asV2217
p1445
(lp1446
sV2216
p1447
(lp1448
g304
ag11
ag230
ag84
asV2215
p1449
(lp1450
g205
ag94
ag427
ag12
ag133
asV2214
p1451
(lp1452
g65
ag860
ag32
asV2219
p1453
(lp1454
sV2218
p1455
(lp1456
g911
ag540
ag94
ag230
asV1160
p1457
(lp1458
sV151
p1459
(lp1460
g624
ag94
ag11
ag230
asV150
p1461
(lp1462
g11
asV2439
p1463
(lp1464
g459
ag11
ag37
asV152
p1465
(lp1466
g8
asV154
p1467
(lp1468
sV2433
p1469
(lp1470
g94
ag193
ag84
asV158
p1471
(lp1472
g138
ag215
asV1293
p1473
(lp1474
sV2437
p1475
(lp1476
sV2436
p1477
(lp1478
sV2435
p1479
(lp1480
sV2434
p1481
(lp1482
g11
asV2508
p1483
(lp1484
sV2507
p1485
(lp1486
g94
asV2506
p1487
(lp1488
g31
asV2503
p1489
(lp1490
g346
ag11
asV2502
p1491
(lp1492
g82
asV2501
p1493
(lp1494
g474
asV2500
p1495
(lp1496
g863
ag16
asV2727
p1497
(lp1498
g626
asV2726
p1499
(lp1500
sV2723
p1501
(lp1502
sV2722
p1503
(lp1504
sV2721
p1505
(lp1506
g250
ag174
asV125
p1507
(lp1508
sV1805
p1509
(lp1510
g193
asV1804
p1511
(lp1512
sV1803
p1513
(lp1514
g32
asV1800
p1515
(lp1516
g322
ag355
ag305
ag106
asV1808
p1517
(lp1518
g8
ag120
asV3258
p1519
(lp1520
g15
ag95
ag109
asV3259
p1521
(lp1522
g94
asV1948
p1523
(lp1524
g150
ag340
ag94
ag663
ag316
ag317
asV1949
p1525
(lp1526
g204
ag396
asV3250
p1527
(lp1528
g698
asV3251
p1529
(lp1530
sV1940
p1531
(lp1532
g115
asV3253
p1533
(lp1534
g32
asV3254
p1535
(lp1536
g94
ag193
asV1947
p1537
(lp1538
g741
ag94
ag115
asV3256
p1539
(lp1540
g560
ag109
aVChinatown restaurants
p1541
asV3257
p1542
(lp1543
g560
ag95
ag11
asV818
p1544
(lp1545
g396
ag11
asV810
p1546
(lp1547
g45
ag83
ag346
asV811
p1548
(lp1549
g11
asV812
p1550
(lp1551
g94
ag355
ag748
asV813
p1552
(lp1553
g118
ag243
asV814
p1554
(lp1555
g94
asV817
p1556
(lp1557
g748
asV2859
p1558
(lp1559
g340
asV3207
p1560
(lp1561
g174
asV3495
p1562
(lp1563
sV1250
p1564
(lp1565
g44
ag860
asV3206
p1566
(lp1567
g483
asV2851
p1568
(lp1569
sV2850
p1570
(lp1571
g205
ag94
ag8
asV2853
p1572
(lp1573
g11
asV2852
p1574
(lp1575
sV2855
p1576
(lp1577
g94
ag8
asV3205
p1578
(lp1579
g741
ag27
ag8
asV2856
p1580
(lp1581
g1017
asV1490
p1582
(lp1583
sV3332
p1584
(lp1585
g540
ag74
asV1492
p1586
(lp1587
g11
asV1493
p1588
(lp1589
g1045
ag179
ag49
asV1494
p1590
(lp1591
g99
ag16
ag84
asV1495
p1592
(lp1593
Vdeli
p1594
asV3335
p1595
(lp1596
g94
ag507
asV1497
p1597
(lp1598
g341
asV3203
p1599
(lp1600
g863
ag32
ag24
asV3339
p1601
(lp1602
g32
asV1395
p1603
(lp1604
sV3202
p1605
(lp1606
g1372
ag24
asV1700
p1607
(lp1608
g32
asV1701
p1609
(lp1610
g115
asV1702
p1611
(lp1612
g94
ag230
asV422
p1613
(lp1614
g11
asV1704
p1615
(lp1616
g94
asV3201
p1617
(lp1618
g94
ag8
asV1706
p1619
(lp1620
g83
ag514
ag199
asV1707
p1621
(lp1622
g45
ag83
ag11
asV1708
p1623
(lp1624
g45
ag48
ag31
asV1709
p1625
(lp1626
g94
asV3200
p1627
(lp1628
sV1392
p1629
(lp1630
g170
ag32
ag225
asV3658
p1631
(lp1632
sV2975
p1633
(lp1634
g822
ag32
asV3659
p1635
(lp1636
g32
asV1128
p1637
(lp1638
sV1129
p1639
(lp1640
g94
asV1120
p1641
(lp1642
g170
ag99
ag171
ag125
asV1123
p1643
(lp1644
g753
ag346
ag179
ag754
ag755
asV1124
p1645
(lp1646
g341
asV1125
p1647
(lp1648
g193
asV1126
p1649
(lp1650
sV1127
p1651
(lp1652
g94
ag32
asV2989
p1653
(lp1654
g448
ag517
asV2988
p1655
(lp1656
g215
ag199
ag341
asV3029
p1657
(lp1658
Vyear
p1659
asV2983
p1660
(lp1661
g93
ag8
asV3026
p1662
(lp1663
g624
ag8
asV3025
p1664
(lp1665
sV3024
p1666
(lp1667
g24
ag199
asV2987
p1668
(lp1669
g93
ag94
asV3022
p1670
(lp1671
g82
ag32
ag626
asV3021
p1672
(lp1673
g115
asV2984
p1674
(lp1675
g45
asV524
p1676
(lp1677
g93
asV527
p1678
(lp1679
g45
ag167
ag96
asV1018
p1680
(lp1681
g94
ag8
asV1019
p1682
(lp1683
sV523
p1684
(lp1685
g102
ag103
asV1014
p1686
(lp1687
g93
asV1015
p1688
(lp1689
g167
ag83
ag11
asV1017
p1690
(lp1691
g94
ag8
asV1010
p1692
(lp1693
sV1011
p1694
(lp1695
g94
ag110
asV1012
p1696
(lp1697
sV1013
p1698
(lp1699
g149
ag11
asV1236
p1700
(lp1701
g598
ag132
asV1237
p1702
(lp1703
g690
asV1231
p1704
(lp1705
Vbagel
p1706
ag65
asV1232
p1707
(lp1708
g94
ag164
asV1233
p1709
(lp1710
sV1238
p1711
(lp1712
sV1239
p1713
(lp1714
sV438
p1715
(lp1716
g49
asV439
p1717
(lp1718
sV433
p1719
(lp1720
sV430
p1721
(lp1722
g170
ag233
ag94
aVmom
p1723
ag109
ag252
asV559
p1724
(lp1725
g355
ag199
asV1967
p1726
(lp1727
g149
ag663
asV3162
p1728
(lp1729
g1706
ag483
asV3060
p1730
(lp1731
sV994
p1732
(lp1733
sV3064
p1734
(lp1735
sV2466
p1736
(lp1737
Vgirls
p1738
ag346
ag11
asV238
p1739
(lp1740
g94
asV239
p1741
(lp1742
g233
asV2460
p1743
(lp1744
sV236
p1745
(lp1746
g150
ag459
asV237
p1747
(lp1748
g44
ag27
asV230
p1749
(lp1750
g1659
asV231
p1751
(lp1752
g198
ag94
ag240
asV232
p1753
(lp1754
g11
asV233
p1755
(lp1756
g474
ag94
asV998
p1757
(lp1758
g32
asV2229
p1759
(lp1760
sV2226
p1761
(lp1762
g118
ag94
ag230
asV2227
p1763
(lp1764
g99
asV2224
p1765
(lp1766
g860
ag728
ag21
asV2225
p1767
(lp1768
g911
ag11
asV2222
p1769
(lp1770
g118
ag99
asV2223
p1771
(lp1772
g94
asV2220
p1773
(lp1774
sV2221
p1775
(lp1776
sV147
p1777
(lp1778
g65
ag11
asV142
p1779
(lp1780
sV140
p1781
(lp1782
g171
asV141
p1783
(lp1784
g212
ag15
asV999
p1785
(lp1786
g110
asV148
p1787
(lp1788
g99
ag21
asV149
p1789
(lp1790
g860
ag164
asV120
p1791
(lp1792
g150
asV2088
p1793
(lp1794
sV2089
p1795
(lp1796
g624
asV2082
p1797
(lp1798
sV2083
p1799
(lp1800
g884
asV2080
p1801
(lp1802
sV2081
p1803
(lp1804
g12
asV2086
p1805
(lp1806
g99
asV2087
p1807
(lp1808
g748
asV2084
p1809
(lp1810
g99
ag884
ag120
asV2085
p1811
(lp1812
g31
asV3342
p1813
(lp1814
sV2538
p1815
(lp1816
g94
asV2539
p1817
(lp1818
g396
ag517
asV1190
p1819
(lp1820
g593
ag8
asV2532
p1821
(lp1822
g459
asV2533
p1823
(lp1824
g125
asV2536
p1825
(lp1826
g371
asV2537
p1827
(lp1828
sV2534
p1829
(lp1830
sV2535
p1831
(lp1832
g31
asV2712
p1833
(lp1834
g174
ag193
asV2713
p1835
(lp1836
g65
ag31
ag251
asV2710
p1837
(lp1838
sV1192
p1839
(lp1840
g863
ag507
ag24
asV2716
p1841
(lp1842
g32
ag1203
ag1206
asV2717
p1843
(lp1844
sV2714
p1845
(lp1846
g16
asV2715
p1847
(lp1848
g27
ag24
asV2718
p1849
(lp1850
g93
ag199
asV3093
p1851
(lp1852
sV3409
p1853
(lp1854
g346
ag11
asV3344
p1855
(lp1856
g625
ag193
asV3408
p1857
(lp1858
g109
asV3345
p1859
(lp1860
g149
ag49
asV1832
p1861
(lp1862
g83
asV1830
p1863
(lp1864
sV1831
p1865
(lp1866
sV1836
p1867
(lp1868
g8
asV1837
p1869
(lp1870
g8
asV1835
p1871
(lp1872
g215
ag193
asV1838
p1873
(lp1874
sV1839
p1875
(lp1876
sV2406
p1877
(lp1878
g118
asV2155
p1879
(lp1880
g545
asV2156
p1881
(lp1882
g250
asV938
p1883
(lp1884
g94
ag8
ag37
asV2402
p1885
(lp1886
g94
ag215
asV2403
p1887
(lp1888
g164
asV2400
p1889
(lp1890
g545
ag507
asV2153
p1891
(lp1892
VCity
p1893
ag150
ag215
ag316
ag317
asV932
p1894
(lp1895
g138
ag304
asV931
p1896
(lp1897
g723
ag304
asV930
p1898
(lp1899
sV2158
p1900
(lp1901
g149
ag1706
asV2159
p1902
(lp1903
g240
asV2408
p1904
(lp1905
g346
asV2409
p1906
(lp1907
g8
asV136
p1908
(lp1909
g20
asV1955
p1910
(lp1911
sV1991
p1912
(lp1913
g94
ag427
ag822
asV1957
p1914
(lp1915
sV1956
p1916
(lp1917
g174
ag230
asV1951
p1918
(lp1919
g32
ag75
asV1950
p1920
(lp1921
g346
ag698
asV1953
p1922
(lp1923
sV1952
p1924
(lp1925
g94
ag8
asV1959
p1926
(lp1927
g396
ag84
asV1958
p1928
(lp1929
g102
ag133
asV3249
p1930
(lp1931
g863
ag94
ag32
asV3248
p1932
(lp1933
g44
asV3243
p1934
(lp1935
g448
ag106
ag199
asV3242
p1936
(lp1937
sV3241
p1938
(lp1939
g27
asV3247
p1940
(lp1941
sV3246
p1942
(lp1943
g560
asV3245
p1944
(lp1945
sV1990
p1946
(lp1947
g125
asV828
p1948
(lp1949
g346
ag31
ag698
ag75
aVview
p1950
asV825
p1951
(lp1952
sV824
p1953
(lp1954
sV827
p1955
(lp1956
sV826
p1957
(lp1958
g32
asV823
p1959
(lp1960
g164
asV822
p1961
(lp1962
g514
ag323
asV1993
p1963
(lp1964
g728
asV1483
p1965
(lp1966
g179
asV1482
p1967
(lp1968
g251
asV1481
p1969
(lp1970
g120
asV1480
p1971
(lp1972
sV1487
p1973
(lp1974
g49
ag507
asV1486
p1975
(lp1976
g31
asV1485
p1977
(lp1978
sV1484
p1979
(lp1980
g626
asV3306
p1981
(lp1982
sV3304
p1983
(lp1984
g150
asV1488
p1985
(lp1986
g15
ag49
ag251
asV3302
p1987
(lp1988
g8
ag115
asV3303
p1989
(lp1990
sV797
p1991
(lp1992
g16
asV1712
p1993
(lp1994
g11
asV1711
p1995
(lp1996
g94
ag12
asV1710
p1997
(lp1998
g94
ag11
ag12
ag748
ag125
asV1717
p1999
(lp2000
g82
asV792
p2001
(lp2002
g340
ag179
asV791
p2003
(lp2004
g75
asV2410
p2005
(lp2006
g355
ag84
asV1719
p2007
(lp2008
sV1718
p2009
(lp2010
g624
ag94
ag8
asV2145
p2011
(lp2012
sV799
p2013
(lp2014
g94
asV798
p2015
(lp2016
sV612
p2017
(lp2018
g52
ag517
ag11
asV2144
p2019
(lp2020
sV1271
p2021
(lp2022
g21
asV2143
p2023
(lp2024
sV1272
p2025
(lp2026
g540
ag94
asV2414
p2027
(lp2028
g99
ag94
ag251
asV1139
p2029
(lp2030
g82
asV1138
p2031
(lp2032
g159
asV2141
p2033
(lp2034
sV1133
p2035
(lp2036
g45
asV1995
p2037
(lp2038
g863
asV1131
p2039
(lp2040
g149
ag95
ag31
ag199
ag1203
asV1130
p2041
(lp2042
g174
ag11
asV225
p2043
(lp2044
sV1275
p2045
(lp2046
sV2792
p2047
(lp2048
sV1276
p2049
(lp2050
g459
ag125
asV2793
p2051
(lp2052
g336
asV1277
p2053
(lp2054
sV2062
p2055
(lp2056
g164
asV3018
p2057
(lp2058
sV3019
p2059
(lp2060
g396
ag340
ag863
ag24
ag199
ag193
asV1994
p2061
(lp2062
g94
asV3012
p2063
(lp2064
g626
ag24
asV3013
p2065
(lp2066
g32
asV3011
p2067
(lp2068
Vsea
p2069
ag120
asV3016
p2070
(lp2071
g277
asV3017
p2072
(lp2073
g52
ag45
ag74
ag11
ag103
asV3014
p2074
(lp2075
sV3015
p2076
(lp2077
g215
ag277
asV519
p2078
(lp2079
g690
ag103
asV518
p2080
(lp2081
g32
ag8
asV2794
p2082
(lp2083
g119
asV1009
p2084
(lp2085
g94
ag8
asV1008
p2086
(lp2087
g30
ag16
ag215
asV1007
p2088
(lp2089
VDim Sum
p2090
aVDim Sum
p2091
asV1006
p2092
(lp2093
g251
ag2090
ag2091
asV1005
p2094
(lp2095
g15
ag251
asV512
p2096
(lp2097
g1723
asV1003
p2098
(lp2099
sV1002
p2100
(lp2101
g94
ag1950
asV1001
p2102
(lp2103
g11
asV1000
p2104
(lp2105
g99
ag167
ag94
asV623
p2106
(lp2107
sV1226
p2108
(lp2109
g182
asV621
p2110
(lp2111
g45
asV620
p2112
(lp2113
g212
ag94
asV627
p2114
(lp2115
g396
ag45
ag75
asV626
p2116
(lp2117
g167
ag11
asV625
p2118
(lp2119
VJekyll
p2120
ag346
ag199
asV624
p2121
(lp2122
sV629
p2123
(lp2124
g624
ag11
asV628
p2125
(lp2126
g167
ag94
ag500
asV1228
p2127
(lp2128
g70
ag1077
asV2882
p2129
(lp2130
sV2883
p2131
(lp2132
sV2880
p2133
(lp2134
g15
ag31
ag251
asV2881
p2135
(lp2136
g82
ag94
ag182
ag663
asV2886
p2137
(lp2138
g94
ag1203
asV2887
p2139
(lp2140
g44
ag94
asV2884
p2141
(lp2142
g205
ag94
asV2885
p2143
(lp2144
sV2888
p2145
(lp2146
sV2889
p2147
(lp2148
sV3276
p2149
(lp2150
g8
asV15
p2151
(lp2152
g83
asV14
p2153
(lp2154
g31
ag11
ag115
asV16
p2155
(lp2156
g396
ag30
ag346
ag698
ag84
asV3274
p2157
(lp2158
g772
ag5
asV1923
p2159
(lp2160
sV2959
p2161
(lp2162
sV3194
p2163
(lp2164
g170
ag94
ag860
ag252
asV928
p2165
(lp2166
g205
ag94
asV929
p2167
(lp2168
g65
ag16
ag1950
asV2742
p2169
(lp2170
sV3192
p2171
(lp2172
sV201
p2173
(lp2174
g94
ag102
ag230
ag103
asV200
p2175
(lp2176
g514
asV202
p2177
(lp2178
sV205
p2179
(lp2180
g8
asV204
p2181
(lp2182
g427
ag106
ag240
ag96
ag75
asV206
p2183
(lp2184
g233
ag94
asV209
p2185
(lp2186
g198
ag11
ag75
asV208
p2187
(lp2188
sV1573
p2189
(lp2190
g199
asV3477
p2191
(lp2192
g93
ag94
ag96
asV836
p2193
(lp2194
sV1571
p2195
(lp2196
sV3471
p2197
(lp2198
sV2239
p2199
(lp2200
g94
ag593
ag459
ag11
asV2238
p2201
(lp2202
sV1570
p2203
(lp2204
g94
ag31
asV3472
p2205
(lp2206
g355
ag75
ag193
asV2230
p2207
(lp2208
g94
asV2233
p2209
(lp2210
g230
asV3473
p2211
(lp2212
sV2235
p2213
(lp2214
g250
ag170
ag31
ag109
asV2234
p2215
(lp2216
sV2237
p2217
(lp2218
g170
asV2236
p2219
(lp2220
g94
asV682
p2221
(lp2222
sV3499
p2223
(lp2224
g74
asV3496
p2225
(lp2226
sV3494
p2227
(lp2228
g49
asV228
p2229
(lp2230
sV3492
p2231
(lp2232
g243
asV3493
p2233
(lp2234
g8
asV3490
p2235
(lp2236
g32
ag663
asV3491
p2237
(lp2238
g94
asV2095
p2239
(lp2240
g171
asV2094
p2241
(lp2242
sV2097
p2243
(lp2244
g212
asV2096
p2245
(lp2246
g251
asV2091
p2247
(lp2248
g1030
asV2090
p2249
(lp2250
g884
asV2093
p2251
(lp2252
sV2092
p2253
(lp2254
sV3654
p2255
(lp2256
g212
ag94
asV3655
p2257
(lp2258
sV2099
p2259
(lp2260
sV2098
p2261
(lp2262
g8
asV3652
p2263
(lp2264
sV3653
p2265
(lp2266
g149
ag860
ag83
asV2525
p2267
(lp2268
g11
ag626
asV2524
p2269
(lp2270
g11
asV2526
p2271
(lp2272
g322
ag355
ag12
asV2521
p2273
(lp2274
g863
ag94
ag8
asV2520
p2275
(lp2276
g11
asV2523
p2277
(lp2278
g94
asV2522
p2279
(lp2280
sV2529
p2281
(lp2282
g396
asV2709
p2283
(lp2284
g109
asV2708
p2285
(lp2286
g94
asV2705
p2287
(lp2288
sV2704
p2289
(lp2290
sV2707
p2291
(lp2292
sV2706
p2293
(lp2294
g5
asV2701
p2295
(lp2296
g474
ag94
asV2700
p2297
(lp2298
g860
ag75
asV2703
p2299
(lp2300
sV2702
p2301
(lp2302
g138
asV1829
p2303
(lp2304
sV1828
p2305
(lp2306
Vpie
p2307
asV1825
p2308
(lp2309
g31
asV1824
p2310
(lp2311
sV1827
p2312
(lp2313
g94
asV1826
p2314
(lp2315
g150
ag15
ag316
ag317
asV1821
p2316
(lp2317
g95
asV1820
p2318
(lp2319
g182
ag11
asV1823
p2320
(lp2321
g49
asV1822
p2322
(lp2323
g230
asV2147
p2324
(lp2325
g174
ag11
asV2146
p2326
(lp2327
g93
ag94
ag182
ag115
asV2413
p2328
(lp2329
g94
asV2412
p2330
(lp2331
g16
asV2415
p2332
(lp2333
g167
ag11
asV2142
p2334
(lp2335
g863
asV2417
p2336
(lp2337
g15
ag48
asV2416
p2338
(lp2339
g250
ag204
ag109
asV920
p2340
(lp2341
g94
asV921
p2342
(lp2343
g11
asV922
p2344
(lp2345
g82
ag8
asV923
p2346
(lp2347
sV924
p2348
(lp2349
g174
ag106
asV925
p2350
(lp2351
g8
asV2149
p2352
(lp2353
g94
asV2148
p2354
(lp2355
sV2411
p2356
(lp2357
g741
asV1920
p2358
(lp2359
g772
ag204
ag773
ag774
asV1921
p2360
(lp2361
g94
ag115
asV1922
p2362
(lp2363
g109
ag8
asV3275
p2364
(lp2365
g341
asV3272
p2366
(lp2367
sV1925
p2368
(lp2369
sV1926
p2370
(lp2371
g204
ag346
asV1927
p2372
(lp2373
sV1928
p2374
(lp2375
sV1929
p2376
(lp2377
g94
ag8
asV3278
p2378
(lp2379
g94
ag20
ag32
asV3279
p2380
(lp2381
g12
ag125
asV832
p2382
(lp2383
g94
asV833
p2384
(lp2385
g96
asV3476
p2386
(lp2387
g11
asV831
p2388
(lp2389
g94
ag1950
asV3470
p2390
(lp2391
g93
asV837
p2392
(lp2393
g205
ag5
asV834
p2394
(lp2395
g82
asV835
p2396
(lp2397
g94
ag164
asV838
p2398
(lp2399
g11
asV839
p2400
(lp2401
g11
asV3478
p2402
(lp2403
sV3479
p2404
(lp2405
sV3
p2406
(lp2407
g863
ag11
ag8
ag115
asV3319
p2408
(lp2409
g598
ag11
ag8
asV3318
p2410
(lp2411
g75
asV3313
p2412
(lp2413
sV3315
p2414
(lp2415
g94
ag230
ag8
asV3314
p2416
(lp2417
g544
ag133
ag1950
asV3317
p2418
(lp2419
g65
ag911
ag1950
asV3316
p2420
(lp2421
g448
asV784
p2422
(lp2423
g514
ag11
ag1017
asV785
p2424
(lp2425
sV780
p2426
(lp2427
sV781
p2428
(lp2429
g11
asV1728
p2430
(lp2431
g11
asV1729
p2432
(lp2433
sV1727
p2434
(lp2435
g753
ag120
asV1724
p2436
(lp2437
g93
ag346
ag822
asV788
p2438
(lp2439
g11
asV1723
p2440
(lp2441
g94
ag507
ag1176
asV1720
p2442
(lp2443
sV1721
p2444
(lp2445
g65
ag346
ag1659
asV153
p2446
(lp2447
g65
ag94
ag31
ag251
aVfood places
p2448
asV3005
p2449
(lp2450
g396
ag24
asV61
p2451
(lp2452
g45
ag167
ag83
ag164
ag96
asV62
p2453
(lp2454
g1074
ag52
asV2438
p2455
(lp2456
sV3001
p2457
(lp2458
g115
asV3000
p2459
(lp2460
g30
asV3003
p2461
(lp2462
g340
ag27
ag1030
ag507
ag2069
ag24
asV3002
p2463
(lp2464
g24
asV1371
p2465
(lp2466
sV406
p2467
(lp2468
sV1582
p2469
(lp2470
sV1583
p2471
(lp2472
sV1580
p2473
(lp2474
g150
ag115
ag316
ag317
asV1581
p2475
(lp2476
g1893
ag199
asV1586
p2477
(lp2478
sV405
p2479
(lp2480
g32
ag2069
ag24
asV1584
p2481
(lp2482
sV1585
p2483
(lp2484
sV159
p2485
(lp2486
g94
asV1038
p2487
(lp2488
g174
ag8
asV1039
p2489
(lp2490
g624
asV508
p2491
(lp2492
g82
ag626
asV509
p2493
(lp2494
g474
asV1032
p2495
(lp2496
g27
ag596
ag20
ag8
asV1375
p2497
(lp2498
sV504
p2499
(lp2500
g94
ag102
ag103
asV1031
p2501
(lp2502
g93
ag94
ag11
ag8
asV502
p2503
(lp2504
g94
ag346
asV503
p2505
(lp2506
g474
asV1034
p2507
(lp2508
g8
ag24
asV501
p2509
(lp2510
g250
ag102
asV1212
p2511
(lp2512
g182
ag11
asV1213
p2513
(lp2514
g322
ag94
ag8
ag626
asV1210
p2515
(lp2516
g48
ag37
asV1211
p2517
(lp2518
g65
asV634
p2519
(lp2520
g94
ag12
ag20
ag8
asV635
p2521
(lp2522
g150
ag316
ag317
asV1214
p2523
(lp2524
g322
ag110
asV637
p2525
(lp2526
g625
ag74
asV638
p2527
(lp2528
g94
ag12
asV639
p2529
(lp2530
sV1218
p2531
(lp2532
g93
ag1706
ag233
ag355
ag11
asV1376
p2533
(lp2534
g1203
asV989
p2535
(lp2536
g8
ag1950
asV782
p2537
(lp2538
g94
ag8
asV2899
p2539
(lp2540
g174
asV2898
p2541
(lp2542
g339
ag233
ag611
asV2895
p2543
(lp2544
g695
ag625
ag30
ag11
ag37
aVdining experience
p2545
asV2894
p2546
(lp2547
g94
ag11
asV2897
p2548
(lp2549
g1893
ag150
ag741
ag624
ag94
ag32
ag316
ag317
asV2896
p2550
(lp2551
g741
ag45
ag94
asV2891
p2552
(lp2553
g625
ag30
ag94
ag20
ag103
ag663
ag2545
asV2890
p2554
(lp2555
g250
ag32
asV2893
p2556
(lp2557
g753
ag514
ag5
ag115
asV2892
p2558
(lp2559
g514
ag598
ag115
asV1454
p2560
(lp2561
g198
ag16
asV1455
p2562
(lp2563
g1893
ag150
ag15
ag32
ag316
ag317
asV1456
p2564
(lp2565
g625
ag30
ag94
ag12
ag109
ag2545
asV1457
p2566
(lp2567
g31
ag215
ag277
asV1102
p2568
(lp2569
g199
asV1103
p2570
(lp2571
g45
ag336
asV1100
p2572
(lp2573
g8
ag193
asV1101
p2574
(lp2575
g74
ag103
asV2419
p2576
(lp2577
sV1458
p2578
(lp2579
g44
ag212
ag15
ag598
asV1459
p2580
(lp2581
g860
ag31
asV1108
p2582
(lp2583
sV1109
p2584
(lp2585
g65
asV1722
p2586
(lp2587
g427
ag822
ag115
ag84
ag125
asV789
p2588
(lp2589
g16
ag336
ag31
asV2418
p2590
(lp2591
sV1576
p2592
(lp2593
g11
asV2136
p2594
(lp2595
sV958
p2596
(lp2597
g31
ag103
asV3070
p2598
(lp2599
sV21
p2600
(lp2601
sV216
p2602
(lp2603
g96
asV217
p2604
(lp2605
g346
asV214
p2606
(lp2607
sV215
p2608
(lp2609
g102
asV212
p2610
(lp2611
g16
ag305
ag120
ag133
asV213
p2612
(lp2613
sV210
p2614
(lp2615
g31
ag32
asV211
p2616
(lp2617
g474
ag94
ag459
ag31
asV218
p2618
(lp2619
sV3094
p2620
(lp2621
sV2138
p2622
(lp2623
sV956
p2624
(lp2625
g94
asV4
p2626
(lp2627
g198
asV1976
p2628
(lp2629
sV3489
p2630
(lp2631
g94
asV3488
p2632
(lp2633
sV3481
p2634
(lp2635
sV3480
p2636
(lp2637
sV3483
p2638
(lp2639
g45
asV3482
p2640
(lp2641
g94
ag75
asV2669
p2642
(lp2643
sV3487
p2644
(lp2645
g250
ag31
ag11
asV3649
p2646
(lp2647
g396
ag83
asV3648
p2648
(lp2649
sV3647
p2650
(lp2651
sV3646
p2652
(lp2653
sV3645
p2654
(lp2655
g83
asV3644
p2656
(lp2657
sV3643
p2658
(lp2659
sV3642
p2660
(lp2661
g94
ag8
asV3641
p2662
(lp2663
g11
asV3640
p2664
(lp2665
g11
asV2550
p2666
(lp2667
sV2551
p2668
(lp2669
sV2553
p2670
(lp2671
g95
ag49
asV2554
p2672
(lp2673
g49
asV2555
p2674
(lp2675
g474
ag49
ag12
ag199
ag125
asV3004
p2676
(lp2677
g150
ag27
ag11
ag71
ag24
ag316
ag317
asV2558
p2678
(lp2679
g49
ag507
ag1176
asV2559
p2680
(lp2681
g2307
asV2396
p2682
(lp2683
g93
ag427
ag11
asV2397
p2684
(lp2685
g45
ag164
ag193
asV2394
p2686
(lp2687
g304
ag84
asV2395
p2688
(lp2689
g84
asV2392
p2690
(lp2691
g170
ag118
ag94
ag252
asV2393
p2692
(lp2693
g304
ag5
asV2390
p2694
(lp2695
g212
ag597
ag31
ag884
asV2391
p2696
(lp2697
g94
asV2398
p2698
(lp2699
g164
asV65
p2700
(lp2701
g663
asV2778
p2702
(lp2703
g339
ag8
asV2779
p2704
(lp2705
g118
ag514
ag748
asV66
p2706
(lp2707
g83
ag5
asV2770
p2708
(lp2709
g11
ag371
asV2771
p2710
(lp2711
g75
asV2772
p2712
(lp2713
g102
ag16
ag32
ag1017
ag125
ag103
asV2773
p2714
(lp2715
g339
ag31
ag690
asV2774
p2716
(lp2717
g474
ag48
ag31
ag230
asV2777
p2718
(lp2719
g339
ag94
asV3166
p2720
(lp2721
g626
asV3076
p2722
(lp2723
sV2803
p2724
(lp2725
sV3165
p2726
(lp2727
sV1851
p2728
(lp2729
g474
asV1852
p2730
(lp2731
g94
asV1853
p2732
(lp2733
g212
ag586
ag230
asV1854
p2734
(lp2735
g94
asV1855
p2736
(lp2737
sV1856
p2738
(lp2739
g74
asV1857
p2740
(lp2741
g517
ag215
asV2172
p2742
(lp2743
sV2173
p2744
(lp2745
g96
asV2170
p2746
(lp2747
g115
asV2171
p2748
(lp2749
g94
asV919
p2750
(lp2751
sV2804
p2752
(lp2753
g250
asV915
p2754
(lp2755
g1371
ag690
asV914
p2756
(lp2757
g199
asV2178
p2758
(lp2759
g1706
ag863
ag15
asV916
p2760
(lp2761
g339
ag99
ag94
asV911
p2762
(lp2763
g82
ag30
ag690
asV910
p2764
(lp2765
g474
asV913
p2766
(lp2767
g32
asV912
p2768
(lp2769
g102
ag690
ag133
asV2604
p2770
(lp2771
g49
ag11
asV2605
p2772
(lp2773
g70
ag598
asV2606
p2774
(lp2775
g860
ag1048
ag49
asV2607
p2776
(lp2777
g911
asV2600
p2778
(lp2779
g695
ag11
asV2601
p2780
(lp2781
sV2602
p2782
(lp2783
g695
asV2608
p2784
(lp2785
g514
ag11
asV2609
p2786
(lp2787
sV1933
p2788
(lp2789
g45
asV1932
p2790
(lp2791
g30
ag346
ag32
asV1931
p2792
(lp2793
g748
asV1930
p2794
(lp2795
g695
ag448
ag31
ag748
asV3265
p2796
(lp2797
g138
ag118
ag340
ag212
ag366
ag174
ag16
ag215
ag277
asV3264
p2798
(lp2799
g507
asV1935
p2800
(lp2801
g198
ag45
ag514
asV3266
p2802
(lp2803
g11
ag611
ag240
asV3268
p2804
(lp2805
g205
asV1939
p2806
(lp2807
g59
asV2051
p2808
(lp2809
g193
asV847
p2810
(lp2811
g150
ag174
ag32
ag106
asV846
p2812
(lp2813
g174
ag16
ag8
ag115
asV845
p2814
(lp2815
g625
ag106
asV844
p2816
(lp2817
g94
asV843
p2818
(lp2819
g93
ag94
ag32
ag8
asV842
p2820
(lp2821
g474
ag11
ag12
asV841
p2822
(lp2823
g336
asV840
p2824
(lp2825
g27
asV849
p2826
(lp2827
sV848
p2828
(lp2829
g30
asV1429
p2830
(lp2831
g586
ag94
asV1428
p2832
(lp2833
g164
ag323
asV459
p2834
(lp2835
g863
ag215
asV1193
p2836
(lp2837
sV3361
p2838
(lp2839
g863
ag16
ag305
asV2407
p2840
(lp2841
sV1739
p2842
(lp2843
g8
asV1738
p2844
(lp2845
g115
asV1731
p2846
(lp2847
sV1730
p2848
(lp2849
g174
ag125
asV1733
p2850
(lp2851
sV1732
p2852
(lp2853
sV1735
p2854
(lp2855
g70
ag5
asV1734
p2856
(lp2857
g474
ag339
asV2404
p2858
(lp2859
g11
asV753
p2860
(lp2861
g218
ag199
asV752
p2862
(lp2863
g94
ag193
asV751
p2864
(lp2865
sV750
p2866
(lp2867
g94
ag8
asV757
p2868
(lp2869
g94
ag593
ag5
ag11
asV756
p2870
(lp2871
sV755
p2872
(lp2873
g32
asV754
p2874
(lp2875
g8
asV759
p2876
(lp2877
g94
asV758
p2878
(lp2879
g149
ag94
ag593
ag251
asV1595
p2880
(lp2881
g250
ag174
ag819
asV3071
p2882
(lp2883
g1017
asV3072
p2884
(lp2885
g474
asV1596
p2886
(lp2887
g65
ag182
ag49
ag32
asV3074
p2888
(lp2889
g625
ag45
ag30
ag2545
asV3075
p2890
(lp2891
g11
asV1593
p2892
(lp2893
g199
asV1592
p2894
(lp2895
g500
asV2954
p2896
(lp2897
g95
ag32
asV3079
p2898
(lp2899
g250
ag15
ag31
ag11
ag109
asV2956
p2900
(lp2901
g193
asV2957
p2902
(lp2903
g94
asV1599
p2904
(lp2905
g49
asV1030
p2906
(lp2907
g8
asV1024
p2908
(lp2909
g517
ag83
ag215
ag11
asV1027
p2910
(lp2911
g543
ag215
ag71
ag24
asV505
p2912
(lp2913
sV1021
p2914
(lp2915
g346
asV1020
p2916
(lp2917
sV1023
p2918
(lp2919
g167
asV1022
p2920
(lp2921
g341
asV1029
p2922
(lp2923
g71
asV1028
p2924
(lp2925
g277
asV1037
p2926
(lp2927
g94
asV500
p2928
(lp2929
sV1035
p2930
(lp2931
sV605
p2932
(lp2933
sV630
p2934
(lp2935
g45
ag167
ag32
asV607
p2936
(lp2937
g83
ag11
asV606
p2938
(lp2939
sV601
p2940
(lp2941
VHyde
p2942
ag2120
ag93
ag94
ag427
ag346
ag32
asV600
p2943
(lp2944
g45
ag75
asV603
p2945
(lp2946
g16
ag8
asV602
p2947
(lp2948
g204
asV1205
p2949
(lp2950
g65
ag24
asV1204
p2951
(lp2952
g772
ag94
ag305
asV1207
p2953
(lp2954
sV1206
p2955
(lp2956
g94
ag11
asV609
p2957
(lp2958
sV1200
p2959
(lp2960
g17
asV1203
p2961
(lp2962
g32
asV633
p2963
(lp2964
sV1216
p2965
(lp2966
g1706
ag11
ag125
asV935
p2967
(lp2968
g21
asV1217
p2969
(lp2970
g11
ag483
asV3108
p2971
(lp2972
g94
asV3105
p2973
(lp2974
g193
asV3106
p2975
(lp2976
g32
asV1215
p2977
(lp2978
g11
asV3100
p2979
(lp2980
g355
asV3101
p2981
(lp2982
sV3102
p2983
(lp2984
g167
asV3103
p2985
(lp2986
g1074
asV1111
p2987
(lp2988
g167
asV1110
p2989
(lp2990
g1074
asV1113
p2991
(lp2992
g65
ag31
ag109
asV1112
p2993
(lp2994
sV1115
p2995
(lp2996
g1030
asV1114
p2997
(lp2998
g115
asV1117
p2999
(lp3000
g119
ag448
ag45
ag30
asV1352
p3001
(lp3002
g340
asV1119
p3003
(lp3004
g16
ag11
asV1118
p3005
(lp3006
sV1351
p3007
(lp3008
sV1449
p3009
(lp3010
sV1448
p3011
(lp3012
sV466
p3013
(lp3014
g82
ag99
asV1357
p3015
(lp3016
g96
asV450
p3017
(lp3018
sV1356
p3019
(lp3020
sV463
p3021
(lp3022
sV489
p3023
(lp3024
g250
ag663
asV488
p3025
(lp3026
sV487
p3027
(lp3028
sV486
p3029
(lp3030
sV485
p3031
(lp3032
g11
asV484
p3033
(lp3034
g94
ag31
ag215
asV483
p3035
(lp3036
g251
ag1077
asV482
p3037
(lp3038
g11
asV481
p3039
(lp3040
sV480
p3041
(lp3042
g8
asV990
p3043
(lp3044
sV2288
p3045
(lp3046
g575
asV199
p3047
(lp3048
g1203
asV198
p3049
(lp3050
g11
asV2289
p3051
(lp3052
g8
asV195
p3053
(lp3054
g75
asV194
p3055
(lp3056
g193
asV197
p3057
(lp3058
g366
ag5
ag193
asV196
p3059
(lp3060
g115
asV191
p3061
(lp3062
g233
asV190
p3063
(lp3064
g695
ag11
asV193
p3065
(lp3066
g94
asV192
p3067
(lp3068
g199
ag193
asV3679
p3069
(lp3070
g11
asV3672
p3071
(lp3072
g396
ag45
ag115
ag24
asV3670
p3073
(lp3074
g138
ag233
ag74
ag215
ag103
asV3671
p3075
(lp3076
g31
ag75
ag159
asV3676
p3077
(lp3078
g103
asV3677
p3079
(lp3080
g70
ag71
ag75
ag84
ag103
asV3675
p3081
(lp3082
sV2547
p3083
(lp3084
sV2546
p3085
(lp3086
g15
ag11
asV2545
p3087
(lp3088
g31
asV2544
p3089
(lp3090
g540
ag95
aVweekend
p3091
asV2549
p3092
(lp3093
g218
asV2548
p3094
(lp3095
g215
asV1104
p3096
(lp3097
g507
asV2381
p3098
(lp3099
sV2380
p3100
(lp3101
g5
ag11
ag323
asV1105
p3102
(lp3103
g95
ag96
ag663
asV2385
p3104
(lp3105
g120
asV2384
p3106
(lp3107
g21
asV2387
p3108
(lp3109
g884
asV2386
p3110
(lp3111
g82
ag884
asV2389
p3112
(lp3113
g212
ag99
ag94
ag277
ag884
asV2388
p3114
(lp3115
sV3580
p3116
(lp3117
g94
asV3581
p3118
(lp3119
g1067
asV3582
p3120
(lp3121
sV2768
p3122
(lp3123
g8
ag1017
asV3584
p3124
(lp3125
sV3585
p3126
(lp3127
g17
ag1077
asV3587
p3128
(lp3129
g94
ag663
asV3588
p3130
(lp3131
g82
ag5
asV3669
p3132
(lp3133
g84
asV2767
p3134
(lp3135
g31
asV2766
p3136
(lp3137
g99
ag94
asV2765
p3138
(lp3139
g102
ag32
ag133
asV3668
p3140
(lp3141
g44
asV902
p3142
(lp3143
g11
asV903
p3144
(lp3145
sV900
p3146
(lp3147
sV901
p3148
(lp3149
g32
ag125
asV906
p3150
(lp3151
g45
asV907
p3152
(lp3153
sV904
p3154
(lp3155
sV905
p3156
(lp3157
g94
ag8
asV1843
p3158
(lp3159
sV1842
p3160
(lp3161
sV908
p3162
(lp3163
g250
ag94
ag31
asV909
p3164
(lp3165
g149
ag16
asV1846
p3166
(lp3167
g94
ag346
ag31
ag626
asV1845
p3168
(lp3169
g8
asV1844
p3170
(lp3171
g624
ag167
ag94
ag5
asV1942
p3172
(lp3173
g5
ag748
asV2169
p3174
(lp3175
sV2168
p3176
(lp3177
sV2165
p3178
(lp3179
g1706
asV2164
p3180
(lp3181
g82
ag59
asV2167
p3182
(lp3183
g1706
ag70
asV2166
p3184
(lp3185
sV2161
p3186
(lp3187
sV2160
p3188
(lp3189
g690
asV2163
p3190
(lp3191
g150
ag199
ag316
ag317
asV2162
p3192
(lp3193
sV2617
p3194
(lp3195
sV2616
p3196
(lp3197
sV2615
p3198
(lp3199
sV2614
p3200
(lp3201
g150
ag11
ag483
ag316
ag317
asV2611
p3202
(lp3203
g1077
asV2610
p3204
(lp3205
g11
asV1946
p3206
(lp3207
g204
ag31
ag251
asV3255
p3208
(lp3209
g16
ag5
ag32
ag125
asV3298
p3210
(lp3211
g94
ag336
ag822
asV3299
p3212
(lp3213
g109
asV1908
p3214
(lp3215
sV1909
p3216
(lp3217
g625
ag30
ag2545
asV1906
p3218
(lp3219
g277
ag240
ag120
asV3295
p3220
(lp3221
g250
ag1950
asV1904
p3222
(lp3223
g93
asV1945
p3224
(lp3225
g94
ag95
ag11
ag8
asV3290
p3226
(lp3227
g30
asV1903
p3228
(lp3229
sV1900
p3230
(lp3231
g753
ag45
ag346
ag754
ag755
asV1901
p3232
(lp3233
g5
asV3452
p3234
(lp3235
g83
asV3453
p3236
(lp3237
g753
ag83
ag346
ag31
ag754
ag755
asV3450
p3238
(lp3239
g119
ag32
asV3451
p3240
(lp3241
g32
ag103
asV3456
p3242
(lp3243
g115
asV3457
p3244
(lp3245
g11
asV3454
p3246
(lp3247
g45
asV3455
p3248
(lp3249
sV3458
p3250
(lp3251
g30
ag84
asV3459
p3252
(lp3253
g170
ag32
ag225
asV858
p3254
(lp3255
g474
ag304
ag698
asV859
p3256
(lp3257
g1074
ag543
asV3293
p3258
(lp3259
sV2463
p3260
(lp3261
sV425
p3262
(lp3263
g230
ag8
asV1184
p3264
(lp3265
sV616
p3266
(lp3267
sV1554
p3268
(lp3269
sV740
p3270
(lp3271
g514
asV741
p3272
(lp3273
sV742
p3274
(lp3275
g93
asV743
p3276
(lp3277
sV744
p3278
(lp3279
g474
asV745
p3280
(lp3281
sV746
p3282
(lp3283
g32
asV747
p3284
(lp3285
sV748
p3286
(lp3287
g336
asV749
p3288
(lp3289
g149
ag11
asV1799
p3290
(lp3291
g218
ag341
asV3063
p3292
(lp3293
sV3062
p3294
(lp3295
sV3061
p3296
(lp3297
g625
ag30
ag593
ag459
ag2545
asV2913
p3298
(lp3299
g149
ag59
ag11
asV3067
p3300
(lp3301
g94
asV926
p3302
(lp3303
sV2949
p3304
(lp3305
g106
asV2948
p3306
(lp3307
g741
asV2947
p3308
(lp3309
g11
asV2946
p3310
(lp3311
g102
ag16
ag115
ag103
asV2945
p3312
(lp3313
g863
ag71
ag106
asV2944
p3314
(lp3315
g597
ag16
ag193
asV2943
p3316
(lp3317
sV2942
p3318
(lp3319
g30
asV2941
p3320
(lp3321
g366
ag690
asV2940
p3322
(lp3323
g448
ag8
ag1017
asV1050
p3324
(lp3325
g8
asV1051
p3326
(lp3327
g109
asV1052
p3328
(lp3329
g70
asV1053
p3330
(lp3331
sV1054
p3332
(lp3333
sV1055
p3334
(lp3335
g125
asV1056
p3336
(lp3337
g230
asV1057
p3338
(lp3339
g8
asV1058
p3340
(lp3341
sV1059
p3342
(lp3343
sV2152
p3344
(lp3345
sV1905
p3346
(lp3347
sV1793
p3348
(lp3349
g167
ag355
asV1692
p3350
(lp3351
g11
asV1693
p3352
(lp3353
sV1690
p3354
(lp3355
g94
asV1691
p3356
(lp3357
g94
asV1791
p3358
(lp3359
g371
asV1698
p3360
(lp3361
g193
asV1699
p3362
(lp3363
sV1278
p3364
(lp3365
g49
asV1279
p3366
(lp3367
sV618
p3368
(lp3369
g11
asV619
p3370
(lp3371
g2942
ag2120
asV1270
p3372
(lp3373
g94
asV613
p3374
(lp3375
g2942
ag2120
asV610
p3376
(lp3377
g94
asV611
p3378
(lp3379
g94
ag277
asV1274
p3380
(lp3381
g1048
asV617
p3382
(lp3383
g483
asV614
p3384
(lp3385
g427
ag593
asV615
p3386
(lp3387
g94
ag277
asV1795
p3388
(lp3389
sV710
p3390
(lp3391
g94
asV1180
p3392
(lp3393
sV3119
p3394
(lp3395
g95
ag31
asV3118
p3396
(lp3397
g167
ag863
asV3117
p3398
(lp3399
g94
asV3116
p3400
(lp3401
sV3115
p3402
(lp3403
g304
asV3114
p3404
(lp3405
g75
ag84
asV3113
p3406
(lp3407
g84
asV3112
p3408
(lp3409
g94
asV3111
p3410
(lp3411
g8
asV1472
p3412
(lp3413
g31
ag109
asV1473
p3414
(lp3415
g49
asV1470
p3416
(lp3417
g49
ag125
asV1471
p3418
(lp3419
sV1477
p3420
(lp3421
g138
ag31
ag215
ag5
ag277
asV1474
p3422
(lp3423
g49
asV1475
p3424
(lp3425
sV1478
p3426
(lp3427
g459
ag31
ag109
asV1479
p3428
(lp3429
g84
asV3336
p3430
(lp3431
sV1304
p3432
(lp3433
g94
ag8
asV1305
p3434
(lp3435
g94
ag16
ag5
ag11
asV1306
p3436
(lp3437
g819
ag199
asV1307
p3438
(lp3439
g82
asV1300
p3440
(lp3441
g860
asV1301
p3442
(lp3443
g94
asV1302
p3444
(lp3445
g94
ag12
ag8
asV1303
p3446
(lp3447
g149
ag251
ag12
asV3334
p3448
(lp3449
g94
ag32
asV1309
p3450
(lp3451
g198
asV2597
p3452
(lp3453
g49
asV498
p3454
(lp3455
sV499
p3456
(lp3457
g52
ag30
ag1077
asV3263
p3458
(lp3459
g94
asV3597
p3460
(lp3461
g32
ag323
ag1203
asV496
p3462
(lp3463
g322
asV497
p3464
(lp3465
g250
ag1594
asV490
p3466
(lp3467
g772
ag250
ag1594
ag30
asV491
p3468
(lp3469
sV492
p3470
(lp3471
g215
ag84
asV493
p3472
(lp3473
g1077
asV24
p3474
(lp3475
sV25
p3476
(lp3477
g748
asV3595
p3478
(lp3479
g94
asV927
p3480
(lp3481
sV28
p3482
(lp3483
g339
asV29
p3484
(lp3485
g106
asV3262
p3486
(lp3487
sV3142
p3488
(lp3489
sV1703
p3490
(lp3491
sV1705
p3492
(lp3493
g94
asV1601
p3494
(lp3495
sV3267
p3496
(lp3497
g94
asV7
p3498
(lp3499
g5
asV3665
p3500
(lp3501
g624
ag32
asV3664
p3502
(lp3503
g32
asV3667
p3504
(lp3505
g863
ag94
ag16
ag230
ag8
asV3666
p3506
(lp3507
g322
ag396
ag1010
ag84
asV3661
p3508
(lp3509
g346
asV3660
p3510
(lp3511
g833
ag109
ag834
ag835
asV3663
p3512
(lp3513
g448
ag544
asV3662
p3514
(lp3515
g212
ag8
asV2280
p3516
(lp3517
g1017
asV2281
p3518
(lp3519
sV2282
p3520
(lp3521
g32
ag483
asV2283
p3522
(lp3523
g32
ag483
asV2284
p3524
(lp3525
g94
ag12
asV2285
p3526
(lp3527
g560
ag94
asV2286
p3528
(lp3529
g109
asV2287
p3530
(lp3531
g21
ag483
asV2578
p3532
(lp3533
sV2579
p3534
(lp3535
sV2576
p3536
(lp3537
g94
ag32
ag545
aVfood restaurant
p3538
asV2577
p3539
(lp3540
g625
ag20
ag32
asV2574
p3541
(lp3542
sV2575
p3543
(lp3544
sV2572
p3545
(lp3546
sV2573
p3547
(lp3548
sV2570
p3549
(lp3550
g911
ag164
asV2571
p3551
(lp3552
sV2059
p3553
(lp3554
sV2378
p3555
(lp3556
g45
ag8
asV2379
p3557
(lp3558
g5
ag323
asV2377
p3559
(lp3560
g94
asV2370
p3561
(lp3562
sV2372
p3563
(lp3564
g695
ag11
asV2594
p3565
(lp3566
sV2595
p3567
(lp3568
g322
asV2596
p3569
(lp3570
sV3590
p3571
(lp3572
g94
ag31
asV2590
p3573
(lp3574
g94
ag109
asV2591
p3575
(lp3576
g199
asV2592
p3577
(lp3578
g753
ag94
ag164
asV2593
p3579
(lp3580
g70
ag49
asV3599
p3581
(lp3582
g70
ag49
asV3598
p3583
(lp3584
sV2598
p3585
(lp3586
sV2599
p3587
(lp3588
g11
ag8
asV1874
p3589
(lp3590
g448
asV1872
p3591
(lp3592
g94
ag5
ag32
asV1873
p3593
(lp3594
g138
ag586
asV1870
p3595
(lp3596
g8
asV1871
p3597
(lp3598
g32
asV1878
p3599
(lp3600
g543
ag83
ag74
ag698
ag690
ag483
ag103
asV1879
p3601
(lp3602
g396
ag75
asV977
p3603
(lp3604
g322
ag109
asV182
p3605
(lp3606
sV974
p3607
(lp3608
g44
ag11
ag32
ag21
ag193
asV973
p3609
(lp3610
sV972
p3611
(lp3612
g125
asV971
p3613
(lp3614
g44
ag99
ag507
asV970
p3615
(lp3616
g27
asV1080
p3617
(lp3618
sV979
p3619
(lp3620
g11
ag8
asV978
p3621
(lp3622
g94
ag663
asV2118
p3623
(lp3624
g1030
asV183
p3625
(lp3626
g911
ag8
asV180
p3627
(lp3628
g626
asV181
p3629
(lp3630
g94
ag84
asV186
p3631
(lp3632
g205
ag164
asV187
p3633
(lp3634
g32
asV184
p3635
(lp3636
sV185
p3637
(lp3638
g94
asV2112
p3639
(lp3640
g860
asV2113
p3641
(lp3642
g11
ag199
asV2114
p3643
(lp3644
g118
ag32
asV2115
p3645
(lp3646
g138
ag593
ag16
aVsection
p3647
asV2116
p3648
(lp3649
sV1559
p3650
(lp3651
sV2622
p3652
(lp3653
g94
ag12
ag8
asV2623
p3654
(lp3655
g11
ag20
asV2620
p3656
(lp3657
g82
ag8
asV2621
p3658
(lp3659
g167
asV2627
p3660
(lp3661
g205
ag8
asV2624
p3662
(lp3663
g11
asV60
p3664
(lp3665
sV1919
p3666
(lp3667
sV1918
p3668
(lp3669
g427
asV3289
p3670
(lp3671
g322
ag11
ag32
asV3288
p3672
(lp3673
sV1911
p3674
(lp3675
g174
ag230
ag500
ag103
asV1910
p3676
(lp3677
g94
asV1913
p3678
(lp3679
g199
asV1912
p3680
(lp3681
sV3282
p3682
(lp3683
g70
ag182
asV3281
p3684
(lp3685
g109
ag125
asV3280
p3686
(lp3687
sV869
p3688
(lp3689
g205
ag8
asV868
p3690
(lp3691
g193
asV189
p3692
(lp3693
g339
ag94
ag545
ag8
ag199
ag84
aVaverage food
p3694
aVaverage food
p3695
asV861
p3696
(lp3697
g860
asV860
p3698
(lp3699
sV863
p3700
(lp3701
g94
asV862
p3702
(lp3703
g624
asV3441
p3704
(lp3705
g230
ag1077
asV3440
p3706
(lp3707
g12
asV3443
p3708
(lp3709
g8
asV3442
p3710
(lp3711
g304
ag698
asV2024
p3712
(lp3713
g32
ag1203
ag1206
asV2025
p3714
(lp3715
g517
asV2026
p3716
(lp3717
g70
ag103
asV2027
p3718
(lp3719
g65
ag251
asV2020
p3720
(lp3721
g45
asV2753
p3722
(lp3723
g340
ag27
ag11
ag20
ag115
ag24
asV2751
p3724
(lp3725
sV2828
p3726
(lp3727
sV2117
p3728
(lp3729
sV2028
p3730
(lp3731
g70
ag83
ag16
ag346
asV2029
p3732
(lp3733
g132
ag698
ag75
asV2829
p3734
(lp3735
sV883
p3736
(lp3737
g44
asV882
p3738
(lp3739
g741
ag93
ag94
ag593
ag8
asV881
p3740
(lp3741
sV880
p3742
(lp3743
g593
ag32
asV887
p3744
(lp3745
g75
asV885
p3746
(lp3747
g94
ag11
ag125
asV884
p3748
(lp3749
sV889
p3750
(lp3751
g11
asV888
p3752
(lp3753
g336
ag31
asV2825
p3754
(lp3755
sV775
p3756
(lp3757
g218
ag1738
ag346
asV774
p3758
(lp3759
g30
asV777
p3760
(lp3761
g118
ag94
ag884
asV776
p3762
(lp3763
g94
asV771
p3764
(lp3765
g322
ag355
ag32
asV770
p3766
(lp3767
g304
ag132
ag84
asV773
p3768
(lp3769
g45
asV772
p3770
(lp3771
g1017
asV779
p3772
(lp3773
g593
ag304
ag698
ag115
asV778
p3774
(lp3775
g8
asV77
p3776
(lp3777
g336
ag8
ag115
ag663
asV76
p3778
(lp3779
g371
asV2978
p3780
(lp3781
g83
ag11
asV2979
p3782
(lp3783
g94
asV72
p3784
(lp3785
g31
ag11
ag109
asV3058
p3786
(lp3787
g95
ag11
asV3059
p3788
(lp3789
g118
asV3056
p3790
(lp3791
g205
ag94
asV2973
p3792
(lp3793
g94
ag8
asV2970
p3794
(lp3795
sV2971
p3796
(lp3797
sV2976
p3798
(lp3799
g544
ag230
ag690
ag37
ag103
asV2977
p3800
(lp3801
g322
ag82
ag94
asV2974
p3802
(lp3803
g596
ag75
asV3051
p3804
(lp3805
g11
asV1041
p3806
(lp3807
g5
ag32
asV1040
p3808
(lp3809
g94
ag427
ag346
asV1047
p3810
(lp3811
sV1046
p3812
(lp3813
sV1045
p3814
(lp3815
g17
asV1044
p3816
(lp3817
g199
asV1049
p3818
(lp3819
g182
asV1681
p3820
(lp3821
sV1680
p3822
(lp3823
g396
ag304
ag32
asV1683
p3824
(lp3825
g94
ag8
asV1684
p3826
(lp3827
g1738
asV1687
p3828
(lp3829
g212
asV1686
p3830
(lp3831
g212
ag164
ag230
asV1689
p3832
(lp3833
g94
ag20
asV1688
p3834
(lp3835
g212
asV1269
p3836
(lp3837
g199
asV1268
p3838
(lp3839
g1030
asV669
p3840
(lp3841
sV668
p3842
(lp3843
g251
ag109
ag483
asV667
p3844
(lp3845
sV666
p3846
(lp3847
g94
ag8
asV665
p3848
(lp3849
g396
ag517
ag199
ag84
asV664
p3850
(lp3851
g115
asV663
p3852
(lp3853
g21
asV662
p3854
(lp3855
g45
asV661
p3856
(lp3857
g84
asV660
p3858
(lp3859
g193
asV2985
p3860
(lp3861
g1067
ag346
asV3095
p3862
(lp3863
sV3020
p3864
(lp3865
g863
ag27
ag21
asV3285
p3866
(lp3867
sV3128
p3868
(lp3869
g1010
asV3129
p3870
(lp3871
sV3122
p3872
(lp3873
g863
ag341
asV3123
p3874
(lp3875
g448
ag215
ag341
asV3120
p3876
(lp3877
g94
asV3121
p3878
(lp3879
g115
asV3126
p3880
(lp3881
g31
ag199
asV3127
p3882
(lp3883
g11
asV1469
p3884
(lp3885
g49
asV1468
p3886
(lp3887
g427
ag32
asV1465
p3888
(lp3889
g514
ag544
ag31
ag8
asV520
p3890
(lp3891
g103
asV1467
p3892
(lp3893
g193
asV1466
p3894
(lp3895
g626
asV1461
p3896
(lp3897
g95
ag109
asV1460
p3898
(lp3899
g624
ag625
asV1462
p3900
(lp3901
g99
asV1317
p3902
(lp3903
g12
asV1316
p3904
(lp3905
g94
ag95
ag32
asV1315
p3906
(lp3907
g250
ag459
ag37
ag663
asV1314
p3908
(lp3909
sV1313
p3910
(lp3911
g339
ag99
ag1203
asV1312
p3912
(lp3913
g11
ag199
asV1311
p3914
(lp3915
g336
asV1310
p3916
(lp3917
sV1319
p3918
(lp3919
g159
asV1318
p3920
(lp3921
g205
ag11
asV3277
p3922
(lp3923
sV528
p3924
(lp3925
sV529
p3926
(lp3927
g94
ag12
asV318
p3928
(lp3929
g93
ag125
ag3091
asV313
p3930
(lp3931
g37
asV865
p3932
(lp3933
g119
ag448
asV317
p3934
(lp3935
sV316
p3936
(lp3937
g52
ag74
ag103
asV315
p3938
(lp3939
g16
ag305
asV864
p3940
(lp3941
g94
ag277
asV867
p3942
(lp3943
sV866
p3944
(lp3945
g115
asV2757
p3946
(lp3947
sV2754
p3948
(lp3949
g27
ag20
asV443
p3950
(lp3951
g250
ag49
asV1334
p3952
(lp3953
g199
asV2752
p3954
(lp3955
g204
ag95
ag109
asV3405
p3956
(lp3957
g94
asV447
p3958
(lp3959
g31
ag49
ag11
asV1330
p3960
(lp3961
g355
ag1010
asV1997
p3962
(lp3963
g182
asV3273
p3964
(lp3965
sV2692
p3966
(lp3967
g205
ag94
ag115
asV3610
p3968
(lp3969
g833
ag11
ag834
ag835
asV3611
p3970
(lp3971
sV2299
p3972
(lp3973
g1893
asV3613
p3974
(lp3975
g540
ag32
asV3617
p3976
(lp3977
g95
asV2293
p3978
(lp3979
g65
ag109
asV3619
p3980
(lp3981
g322
ag663
asV2290
p3982
(lp3983
g149
ag94
asV2297
p3984
(lp3985
g49
asV2296
p3986
(lp3987
sV2295
p3988
(lp3989
g49
ag11
ag60
asV2294
p3990
(lp3991
g138
ag99
ag120
ag125
asV404
p3992
(lp3993
g199
asV2569
p3994
(lp3995
g323
asV2568
p3996
(lp3997
sV2140
p3998
(lp3999
sV288
p4000
(lp4001
g95
asV2560
p4002
(lp4003
g11
asV2563
p4004
(lp4005
g597
ag95
asV1615
p4006
(lp4007
g822
asV2567
p4008
(lp4009
g20
ag37
asV2369
p4010
(lp4011
sV2367
p4012
(lp4013
g32
asV2366
p4014
(lp4015
sV2365
p4016
(lp4017
g448
asV2364
p4018
(lp4019
g11
ag115
ag84
asV2363
p4020
(lp4021
sV2361
p4022
(lp4023
g94
asV2360
p4024
(lp4025
g250
ag514
asV2587
p4026
(lp4027
g371
asV2586
p4028
(lp4029
g11
asV2585
p4030
(lp4031
g8
asV2584
p4032
(lp4033
g1372
asV2582
p4034
(lp4035
sV2581
p4036
(lp4037
g32
asV2580
p4038
(lp4039
g205
ag94
ag8
asV1612
p4040
(lp4041
sV402
p4042
(lp4043
g753
asV2589
p4044
(lp4045
g1048
ag49
ag305
asV2588
p4046
(lp4047
g215
ag32
ag1017
ag193
ag341
asV1861
p4048
(lp4049
sV1860
p4050
(lp4051
sV1865
p4052
(lp4053
g45
ag103
asV2980
p4054
(lp4055
sV1867
p4056
(lp4057
g119
ag448
ag103
asV1866
p4058
(lp4059
g119
ag448
ag1048
ag103
asV1869
p4060
(lp4061
g16
asV1868
p4062
(lp4063
Vice
p4064
asV964
p4065
(lp4066
g115
ag84
asV965
p4067
(lp4068
g31
asV966
p4069
(lp4070
g12
ag20
ag120
asV967
p4071
(lp4072
g94
ag5
ag11
asV960
p4073
(lp4074
g82
ag174
ag32
asV961
p4075
(lp4076
g860
ag32
asV962
p4077
(lp4078
g83
asV1613
p4079
(lp4080
sV401
p4081
(lp4082
g8
asV968
p4083
(lp4084
g593
ag251
ag96
ag483
asV969
p4085
(lp4086
g251
asV2109
p4087
(lp4088
g322
ag93
ag339
ag863
ag8
ag24
ag84
asV2108
p4089
(lp4090
g15
ag31
asV2103
p4091
(lp4092
g75
asV2102
p4093
(lp4094
g560
ag305
ag884
asV2101
p4095
(lp4096
sV2100
p4097
(lp4098
g323
asV2107
p4099
(lp4100
g31
ag24
ag193
asV2105
p4101
(lp4102
sV2104
p4103
(lp4104
g560
ag93
ag884
ag1017
ag84
asV2639
p4105
(lp4106
g106
asV2638
p4107
(lp4108
g174
ag16
asV2635
p4109
(lp4110
sV2634
p4111
(lp4112
sV2637
p4113
(lp4114
g174
asV2636
p4115
(lp4116
g346
asV2631
p4117
(lp4118
g198
ag1723
asV2630
p4119
(lp4120
g83
asV2986
p4121
(lp4122
g125
asV3438
p4123
(lp4124
g205
ag198
ag514
ag8
asV3439
p4125
(lp4126
g12
ag32
asV878
p4127
(lp4128
g174
asV879
p4129
(lp4130
sV876
p4131
(lp4132
sV877
p4133
(lp4134
g323
asV874
p4135
(lp4136
g16
ag1176
asV3433
p4137
(lp4138
g198
ag11
ag96
aVdate spot
p4139
asV872
p4140
(lp4141
g695
ag93
ag11
asV3435
p4142
(lp4143
g32
asV870
p4144
(lp4145
g94
ag12
asV3437
p4146
(lp4147
g1077
asV2741
p4148
(lp4149
g474
ag243
ag611
asV2740
p4150
(lp4151
g30
asV2743
p4152
(lp4153
g11
ag110
asV3091
p4154
(lp4155
g94
ag593
asV2033
p4156
(lp4157
g70
ag103
asV2747
p4158
(lp4159
g138
asV2746
p4160
(lp4161
g27
ag8
asV9
p4162
(lp4163
g341
asV2748
p4164
(lp4165
g32
ag8
ag159
asV2039
p4166
(lp4167
g21
asV2038
p4168
(lp4169
g94
asV891
p4170
(lp4171
g94
ag336
ag8
asV892
p4172
(lp4173
g174
ag500
asV894
p4174
(lp4175
g32
asV895
p4176
(lp4177
sV896
p4178
(lp4179
g52
asV897
p4180
(lp4181
g45
asV898
p4182
(lp4183
g396
ag159
asV899
p4184
(lp4185
g8
asV1530
p4186
(lp4187
g322
ag218
ag625
asV3651
p4188
(lp4189
sV783
p4190
(lp4191
sV1968
p4192
(lp4193
g45
asV3237
p4194
(lp4195
sV3544
p4196
(lp4197
g205
ag198
ag11
asV3545
p4198
(lp4199
g199
asV3546
p4200
(lp4201
g32
asV3547
p4202
(lp4203
g94
ag37
asV1618
p4204
(lp4205
g45
ag517
ag544
asV3542
p4206
(lp4207
g109
asV3543
p4208
(lp4209
g339
ag32
asV3235
p4210
(lp4211
g340
ag115
asV1714
p4212
(lp4213
g250
ag212
ag99
ag507
asV1964
p4214
(lp4215
g138
ag167
asV1965
p4216
(lp4217
g32
ag84
asV1966
p4218
(lp4219
g45
ag83
ag427
ag11
ag75
asV3069
p4220
(lp4221
sV2965
p4222
(lp4223
g514
ag75
asV2964
p4224
(lp4225
g322
ag94
asV2967
p4226
(lp4227
g322
ag94
ag32
ag109
asV769
p4228
(lp4229
g45
ag346
ag1203
asV2961
p4230
(lp4231
g277
asV2960
p4232
(lp4233
g16
asV2963
p4234
(lp4235
g74
ag103
asV2962
p4236
(lp4237
g70
ag545
asV762
p4238
(lp4239
g514
asV763
p4240
(lp4241
g8
asV760
p4242
(lp4243
g251
asV1783
p4244
(lp4245
sV1784
p4246
(lp4247
g24
asV2968
p4248
(lp4249
g741
ag396
ag1074
ag8
asV764
p4250
(lp4251
g44
ag212
asV765
p4252
(lp4253
g230
asV3049
p4254
(lp4255
g94
ag277
asV3048
p4256
(lp4257
g99
ag171
ag75
asV3041
p4258
(lp4259
g45
ag32
ag193
asV3040
p4260
(lp4261
g16
asV3043
p4262
(lp4263
g45
asV3042
p4264
(lp4265
g94
ag174
ag304
asV3045
p4266
(lp4267
sV3044
p4268
(lp4269
g44
ag507
asV3047
p4270
(lp4271
g11
ag115
asV3046
p4272
(lp4273
g11
asV1078
p4274
(lp4275
sV1077
p4276
(lp4277
g250
asV1074
p4278
(lp4279
g149
ag11
ag120
asV1070
p4280
(lp4281
sV1071
p4282
(lp4283
g96
asV1678
p4284
(lp4285
g459
asV1679
p4286
(lp4287
sV1674
p4288
(lp4289
g346
ag1659
asV1675
p4290
(lp4291
g94
ag20
asV1676
p4292
(lp4293
g93
ag251
asV1677
p4294
(lp4295
g115
ag84
asV1670
p4296
(lp4297
g84
asV1671
p4298
(lp4299
g396
ag517
ag304
ag698
ag84
asV1672
p4300
(lp4301
g94
asV1673
p4302
(lp4303
g690
ag103
asV1094
p4304
(lp4305
g94
asV1095
p4306
(lp4307
g94
ag11
ag20
ag32
asV1096
p4308
(lp4309
g741
ag198
ag346
ag96
ag4139
asV1097
p4310
(lp4311
g695
ag12
ag96
asV678
p4312
(lp4313
g233
ag863
ag174
ag346
ag71
asV679
p4314
(lp4315
sV1092
p4316
(lp4317
g83
ag1738
ag346
aVgirls night
p4318
aVgirls night
p4319
asV1093
p4320
(lp4321
g65
ag32
ag109
ag199
asV674
p4322
(lp4323
g30
ag427
ag514
asV675
p4324
(lp4325
g30
ag5
ag690
asV676
p4326
(lp4327
g336
asV677
p4328
(lp4329
sV1098
p4330
(lp4331
g193
asV1099
p4332
(lp4333
g45
asV672
p4334
(lp4335
sV673
p4336
(lp4337
g366
ag171
asV3135
p4338
(lp4339
g598
ag215
asV3134
p4340
(lp4341
g94
ag5
asV3137
p4342
(lp4343
g75
asV3136
p4344
(lp4345
g115
asV3131
p4346
(lp4347
sV3130
p4348
(lp4349
g94
asV3133
p4350
(lp4351
g32
asV3139
p4352
(lp4353
g560
ag74
ag822
ag109
ag884
ag1541
asV3138
p4354
(lp4355
g27
asV645
p4356
(lp4357
sV1418
p4358
(lp4359
sV1419
p4360
(lp4361
sV1410
p4362
(lp4363
g37
asV1411
p4364
(lp4365
g94
asV1412
p4366
(lp4367
g99
asV1413
p4368
(lp4369
g65
ag164
ag1077
asV1414
p4370
(lp4371
sV1415
p4372
(lp4373
g94
ag8
asV1416
p4374
(lp4375
g322
ag12
asV1417
p4376
(lp4377
g193
asV1322
p4378
(lp4379
g31
asV1323
p4380
(lp4381
g109
asV1320
p4382
(lp4383
sV1532
p4384
(lp4385
g625
ag30
ag2545
asV1326
p4386
(lp4387
g94
asV1327
p4388
(lp4389
g99
ag16
asV1324
p4390
(lp4391
sV1325
p4392
(lp4393
g1067
ag174
ag346
asV1328
p4394
(lp4395
g1067
ag159
asV1329
p4396
(lp4397
sV2494
p4398
(lp4399
g170
ag15
ag95
ag11
ag1098
asV5
p4400
(lp4401
g11
asV1531
p4402
(lp4403
sV1917
p4404
(lp4405
g212
ag94
ag277
asV1254
p4406
(lp4407
g170
ag4064
asV1527
p4408
(lp4409
g83
asV1522
p4410
(lp4411
g1738
asV1528
p4412
(lp4413
g94
ag95
asV308
p4414
(lp4415
g371
asV309
p4416
(lp4417
g396
ag8
ag115
asV1916
p4418
(lp4419
sV300
p4420
(lp4421
g860
ag24
asV301
p4422
(lp4423
g75
ag84
asV302
p4424
(lp4425
g11
ag32
asV303
p4426
(lp4427
g45
ag164
ag193
asV304
p4428
(lp4429
g863
ag27
ag125
asV305
p4430
(lp4431
g24
asV306
p4432
(lp4433
g448
asV307
p4434
(lp4435
g11
ag32
ag193
asV2254
p4436
(lp4437
sV75
p4438
(lp4439
sV2399
p4440
(lp4441
g138
ag164
ag277
asV71
p4442
(lp4443
g322
ag625
ag11
ag8
ag103
asV70
p4444
(lp4445
g346
ag11
ag199
asV3415
p4446
(lp4447
sV2972
p4448
(lp4449
sV2474
p4450
(lp4451
g212
ag94
asV3057
p4452
(lp4453
sV1447
p4454
(lp4455
g174
asV3052
p4456
(lp4457
sV3053
p4458
(lp4459
g32
asV3050
p4460
(lp4461
sV78
p4462
(lp4463
g59
ag663
asV3603
p4464
(lp4465
g593
ag49
asV3602
p4466
(lp4467
sV3601
p4468
(lp4469
g250
ag49
ag251
asV3600
p4470
(lp4471
g70
asV3607
p4472
(lp4473
g346
ag31
asV3606
p4474
(lp4475
g49
asV3605
p4476
(lp4477
g624
ag427
ag690
ag8
asV3604
p4478
(lp4479
sV3609
p4480
(lp4481
sV3608
p4482
(lp4483
g125
asV2479
p4484
(lp4485
g16
ag32
ag8
ag1203
ag1206
asV2478
p4486
(lp4487
g99
asV2359
p4488
(lp4489
g82
ag30
asV2350
p4490
(lp4491
sV2356
p4492
(lp4493
sV2355
p4494
(lp4495
g545
asV2991
p4496
(lp4497
g507
asV1899
p4498
(lp4499
sV1894
p4500
(lp4501
g93
ag99
ag11
ag103
asV1890
p4502
(lp4503
g93
asV1891
p4504
(lp4505
g94
ag31
asV1893
p4506
(lp4507
sV959
p4508
(lp4509
g93
ag8
asV2137
p4510
(lp4511
g44
ag2307
ag8
asV2134
p4512
(lp4513
g598
asV2135
p4514
(lp4515
g860
ag32
ag125
asV2132
p4516
(lp4517
g65
ag167
ag94
ag8
asV2133
p4518
(lp4519
g167
ag174
asV2130
p4520
(lp4521
g150
ag316
ag317
asV2131
p4522
(lp4523
sV951
p4524
(lp4525
g167
ag304
ag215
ag748
asV950
p4526
(lp4527
sV953
p4528
(lp4529
g94
ag109
ag8
asV952
p4530
(lp4531
sV955
p4532
(lp4533
sV954
p4534
(lp4535
g45
ag32
asV957
p4536
(lp4537
g94
ag16
ag251
asV2139
p4538
(lp4539
g193
asV2648
p4540
(lp4541
g94
ag611
asV2649
p4542
(lp4543
g45
ag11
ag32
asV2640
p4544
(lp4545
g753
asV2641
p4546
(lp4547
sV2642
p4548
(lp4549
g94
ag16
ag31
ag20
asV2643
p4550
(lp4551
g109
ag545
asV2644
p4552
(lp4553
sV2645
p4554
(lp4555
g170
ag212
ag171
ag251
asV2646
p4556
(lp4557
g52
ag544
ag103
asV2647
p4558
(lp4559
g396
ag115
asV2431
p4560
(lp4561
sV3429
p4562
(lp4563
g30
ag346
asV3428
p4564
(lp4565
sV3423
p4566
(lp4567
g1077
asV3422
p4568
(lp4569
g1893
asV3421
p4570
(lp4571
g45
ag164
asV3420
p4572
(lp4573
g340
ag99
ag32
asV3426
p4574
(lp4575
g31
ag5
ag698
asV3425
p4576
(lp4577
g138
ag507
asV3424
p4578
(lp4579
g611
asV2002
p4580
(lp4581
g625
ag30
ag230
ag32
ag2545
asV2003
p4582
(lp4583
g199
asV2000
p4584
(lp4585
g30
ag5
asV2001
p4586
(lp4587
g543
ag45
ag167
ag723
ag103
aVdinner drinks
p4588
asV2006
p4589
(lp4590
g8
asV2007
p4591
(lp4592
sV2004
p4593
(lp4594
g625
asV2005
p4595
(lp4596
g32
asV2008
p4597
(lp4598
g174
asV2009
p4599
(lp4600
sV1544
p4601
(lp4602
g11
asV3557
p4603
(lp4604
g94
ag20
aVfood quality
p4605
asV3556
p4606
(lp4607
sV3555
p4608
(lp4609
g83
ag11
asV3554
p4610
(lp4611
sV3553
p4612
(lp4613
g1017
asV3551
p4614
(lp4615
sV2069
p4616
(lp4617
sV1145
p4618
(lp4619
sV3558
p4620
(lp4621
g99
asV2176
p4622
(lp4623
sV2997
p4624
(lp4625
sV918
p4626
(lp4627
sV2910
p4628
(lp4629
g149
ag11
ag663
asV2911
p4630
(lp4631
g94
ag16
ag8
ag240
asV2912
p4632
(lp4633
g99
ag4064
asV1798
p4634
(lp4635
g75
ag199
asV2914
p4636
(lp4637
sV2915
p4638
(lp4639
g741
ag94
ag323
ag8
ag115
ag84
asV719
p4640
(lp4641
g118
ag167
ag199
asV718
p4642
(lp4643
g11
ag96
asV717
p4644
(lp4645
g174
ag11
asV1792
p4646
(lp4647
g83
ag115
ag199
asV715
p4648
(lp4649
g170
ag99
ag16
ag575
ag336
ag3647
asV1790
p4650
(lp4651
g150
ag32
ag316
ag317
asV1797
p4652
(lp4653
g11
ag8
asV712
p4654
(lp4655
g198
ag500
ag8
asV711
p4656
(lp4657
g5
asV1794
p4658
(lp4659
g167
ag84
asV716
p4660
(lp4661
sV917
p4662
(lp4663
g474
asV1069
p4664
(lp4665
sV1068
p4666
(lp4667
sV2179
p4668
(lp4669
g83
ag663
asV1061
p4670
(lp4671
g474
asV1060
p4672
(lp4673
g82
asV1063
p4674
(lp4675
sV1062
p4676
(lp4677
g1706
asV1065
p4678
(lp4679
g94
ag230
asV1064
p4680
(lp4681
sV1067
p4682
(lp4683
g1706
asV1066
p4684
(lp4685
g94
asV3023
p4686
(lp4687
sV1669
p4688
(lp4689
g11
asV1668
p4690
(lp4691
sV1667
p4692
(lp4693
g150
ag205
ag94
ag5
ag323
asV1666
p4694
(lp4695
g84
asV1665
p4696
(lp4697
g125
asV1664
p4698
(lp4699
g474
ag94
ag215
ag84
asV1663
p4700
(lp4701
g698
ag75
ag84
asV1662
p4702
(lp4703
g24
asV1661
p4704
(lp4705
sV1660
p4706
(lp4707
g94
ag159
asV1087
p4708
(lp4709
g11
asV590
p4710
(lp4711
g396
asV593
p4712
(lp4713
g150
ag316
ag317
asV592
p4714
(lp4715
g199
ag84
asV595
p4716
(lp4717
sV594
p4718
(lp4719
g205
ag94
ag159
asV597
p4720
(lp4721
g11
asV596
p4722
(lp4723
g336
ag32
asV599
p4724
(lp4725
g94
asV598
p4726
(lp4727
g93
ag94
ag8
asV1089
p4728
(lp4729
g125
asV1088
p4730
(lp4731
g517
ag31
asV3140
p4732
(lp4733
g12
ag884
asV3141
p4734
(lp4735
g94
ag8
ag193
asV714
p4736
(lp4737
sV3144
p4738
(lp4739
g514
ag8
ag75
asV3145
p4740
(lp4741
g2090
ag2091
asV3146
p4742
(lp4743
g45
ag11
ag323
ag2090
ag2091
asV3147
p4744
(lp4745
g32
asV3148
p4746
(lp4747
g21
asV3149
p4748
(lp4749
g212
ag193
asV2826
p4750
(lp4751
sV2827
p4752
(lp4753
g205
ag339
ag94
ag8
asV2822
p4754
(lp4755
g27
ag49
ag545
asV2823
p4756
(lp4757
g205
ag94
ag8
asV3384
p4758
(lp4759
g32
asV3382
p4760
(lp4761
g16
asV3383
p4762
(lp4763
g544
ag103
asV3380
p4764
(lp4765
g336
ag277
ag12
asV3381
p4766
(lp4767
g31
ag5
ag71
asV3388
p4768
(lp4769
g125
asV713
p4770
(lp4771
g459
ag8
asV1409
p4772
(lp4773
g1371
ag164
ag95
ag193
asV1408
p4774
(lp4775
g32
asV426
p4776
(lp4777
sV1403
p4778
(lp4779
g65
ag15
ag32
asV1402
p4780
(lp4781
g94
asV1401
p4782
(lp4783
sV1400
p4784
(lp4785
g11
asV1407
p4786
(lp4787
sV1404
p4788
(lp4789
g12
asV1546
p4790
(lp4791
g1594
ag94
ag5
asV449
p4792
(lp4793
g49
asV448
p4794
(lp4795
sV1339
p4796
(lp4797
g164
asV1338
p4798
(lp4799
g94
ag8
asV1491
p4800
(lp4801
g507
asV693
p4802
(lp4803
g624
ag8
asV1335
p4804
(lp4805
g94
ag8
ag748
asV442
p4806
(lp4807
g132
asV441
p4808
(lp4809
g8
asV440
p4810
(lp4811
g109
asV1331
p4812
(lp4813
g698
asV446
p4814
(lp4815
g250
asV445
p4816
(lp4817
sV444
p4818
(lp4819
sV1545
p4820
(lp4821
g593
asV696
p4822
(lp4823
g94
ag193
asV697
p4824
(lp4825
g833
ag32
ag834
ag835
asV3261
p4826
(lp4827
sV39
p4828
(lp4829
g215
ag341
asV38
p4830
(lp4831
g75
asV694
p4832
(lp4833
sV3260
p4834
(lp4835
g179
asV30
p4836
(lp4837
g1074
asV37
p4838
(lp4839
g396
ag1045
ag115
asV36
p4840
(lp4841
g625
ag30
ag2545
asV35
p4842
(lp4843
sV34
p4844
(lp4845
g396
ag1074
ag5
asV1537
p4846
(lp4847
g30
ag32
asV1536
p4848
(lp4849
g1077
asV1535
p4850
(lp4851
g94
ag215
asV1534
p4852
(lp4853
g459
ag1077
asV1533
p4854
(lp4855
g96
asV644
p4856
(lp4857
g115
asV647
p4858
(lp4859
g233
ag94
asV646
p4860
(lp4861
g336
asV649
p4862
(lp4863
g11
ag199
asV648
p4864
(lp4865
g174
ag459
asV3098
p4866
(lp4867
g167
asV1539
p4868
(lp4869
g16
ag3647
asV1538
p4870
(lp4871
g70
ag1077
asV339
p4872
(lp4873
g24
asV338
p4874
(lp4875
g507
asV335
p4876
(lp4877
g30
ag822
asV334
p4878
(lp4879
g94
ag8
asV337
p4880
(lp4881
g94
asV336
p4882
(lp4883
g32
asV331
p4884
(lp4885
g860
ag32
asV330
p4886
(lp4887
sV333
p4888
(lp4889
sV332
p4890
(lp4891
g250
ag32
ag24
asV2061
p4892
(lp4893
sV1633
p4894
(lp4895
g32
asV543
p4896
(lp4897
sV3467
p4898
(lp4899
g94
asV3195
p4900
(lp4901
sV3464
p4902
(lp4903
g5
ag251
ag323
asV1085
p4904
(lp4905
g199
asV8
p4906
(lp4907
g863
ag5
ag8
ag159
ag84
asV3463
p4908
(lp4909
g93
ag94
asV1496
p4910
(lp4911
g8
asV2119
p4912
(lp4913
g11
asV3462
p4914
(lp4915
g1372
asV3461
p4916
(lp4917
sV3460
p4918
(lp4919
sV2064
p4920
(lp4921
sV2854
p4922
(lp4923
g625
ag8
asV3638
p4924
(lp4925
g70
ag164
ag31
ag49
asV3639
p4926
(lp4927
g544
ag545
asV3636
p4928
(lp4929
g149
ag94
ag125
asV3637
p4930
(lp4931
g5
ag11
asV3634
p4932
(lp4933
g695
ag45
asV3635
p4934
(lp4935
g625
ag30
ag2545
asV3632
p4936
(lp4937
g1723
asV3633
p4938
(lp4939
g8
asV3630
p4940
(lp4941
sV3631
p4942
(lp4943
g49
ag11
asV3469
p4944
(lp4945
sV3468
p4946
(lp4947
g94
ag32
ag3538
asV2347
p4948
(lp4949
g96
ag193
asV2341
p4950
(lp4951
g698
ag199
asV2349
p4952
(lp4953
g545
asV2348
p4954
(lp4955
g45
ag427
asV1350
p4956
(lp4957
sV3708
p4958
(lp4959
g250
asV3709
p4960
(lp4961
sV1889
p4962
(lp4963
sV1888
p4964
(lp4965
g149
ag11
asV1887
p4966
(lp4967
g45
ag11
ag1017
asV3703
p4968
(lp4969
g70
ag133
asV3700
p4970
(lp4971
g5
ag11
asV1884
p4972
(lp4973
g16
asV3706
p4974
(lp4975
g346
asV3707
p4976
(lp4977
g611
asV3704
p4978
(lp4979
sV3705
p4980
(lp4981
g11
asV2121
p4982
(lp4983
sV2120
p4984
(lp4985
sV2123
p4986
(lp4987
sV2122
p4988
(lp4989
g611
ag24
asV2125
p4990
(lp4991
g24
asV2228
p4992
(lp4993
sV2127
p4994
(lp4995
g99
ag16
asV949
p4996
(lp4997
g198
ag748
ag103
asV946
p4998
(lp4999
g167
asV2128
p5000
(lp5001
g8
ag24
ag37
asV944
p5002
(lp5003
g860
asV945
p5004
(lp5005
g8
ag1017
asV942
p5006
(lp5007
g12
asV943
p5008
(lp5009
g103
asV940
p5010
(lp5011
sV941
p5012
(lp5013
g8
asV1594
p5014
(lp5015
g94
asV642
p5016
(lp5017
sV565
p5018
(lp5019
g4064
asV2653
p5020
(lp5021
g82
ag16
ag611
ag12
ag20
ag240
asV2652
p5022
(lp5023
g32
ag96
asV2651
p5024
(lp5025
g45
ag11
asV2650
p5026
(lp5027
g625
ag11
asV2657
p5028
(lp5029
g911
ag3091
asV2656
p5030
(lp5031
g11
asV2655
p5032
(lp5033
g545
asV2654
p5034
(lp5035
g120
asV133
p5036
(lp5037
g93
asV3417
p5038
(lp5039
g16
ag32
asV3414
p5040
(lp5041
g65
ag94
asV130
p5042
(lp5043
g8
asV3412
p5044
(lp5045
g205
ag860
ag11
ag115
ag199
asV3413
p5046
(lp5047
g32
ag115
asV3410
p5048
(lp5049
g118
asV134
p5050
(lp5051
g94
asV139
p5052
(lp5053
g94
ag8
asV138
p5054
(lp5055
g11
asV3418
p5056
(lp5057
g99
asV3419
p5058
(lp5059
sV2019
p5060
(lp5061
g27
asV2018
p5062
(lp5063
g138
asV2015
p5064
(lp5065
g45
ag30
asV2017
p5066
(lp5067
g277
asV2016
p5068
(lp5069
g70
asV2011
p5070
(lp5071
g233
ag16
ag109
asV2010
p5072
(lp5073
g45
ag1738
ag346
ag32
ag1203
ag1206
asV2012
p5074
(lp5075
g94
ag75
asV1591
p5076
(lp5077
sV2926
p5078
(lp5079
sV3562
p5080
(lp5081
g860
ag31
asV3563
p5082
(lp5083
g772
ag833
ag94
ag109
asV3561
p5084
(lp5085
g109
ag663
asV3566
p5086
(lp5087
sV3567
p5088
(lp5089
sV3564
p5090
(lp5091
g31
ag84
asV3565
p5092
(lp5093
g110
asV2903
p5094
(lp5095
g94
ag193
asV2902
p5096
(lp5097
g625
ag366
ag94
ag31
asV2901
p5098
(lp5099
g1893
ag150
ag93
ag94
ag32
ag316
ag317
asV2900
p5100
(lp5101
g448
asV2907
p5102
(lp5103
g132
ag8
ag75
asV709
p5104
(lp5105
g94
ag12
asV2905
p5106
(lp5107
g102
ag215
ag103
asV2904
p5108
(lp5109
g44
ag99
asV704
p5110
(lp5111
g170
ag12
asV705
p5112
(lp5113
g94
ag277
asV706
p5114
(lp5115
g84
asV2908
p5116
(lp5117
sV700
p5118
(lp5119
g230
asV701
p5120
(lp5121
g170
asV702
p5122
(lp5123
g93
ag167
ag94
asV703
p5124
(lp5125
g82
ag514
ag32
ag193
asV89
p5126
(lp5127
g94
ag102
ag109
ag8
ag103
asV82
p5128
(lp5129
g205
ag103
asV83
p5130
(lp5131
g12
asV80
p5132
(lp5133
sV81
p5134
(lp5135
sV87
p5136
(lp5137
g32
ag323
asV84
p5138
(lp5139
g198
asV85
p5140
(lp5141
sV1659
p5142
(lp5143
sV1652
p5144
(lp5145
g93
ag11
ag12
ag8
asV1388
p5146
(lp5147
g11
asV1650
p5148
(lp5149
g24
asV1651
p5150
(lp5151
g71
asV1656
p5152
(lp5153
sV1654
p5154
(lp5155
g150
asV1655
p5156
(lp5157
g11
ag24
asV586
p5158
(lp5159
sV1630
p5160
(lp5161
g243
asV584
p5162
(lp5163
g250
ag93
ag8
asV585
p5164
(lp5165
g75
asV582
p5166
(lp5167
g193
ag663
asV583
p5168
(lp5169
sV580
p5170
(lp5171
g119
asV1987
p5172
(lp5173
g741
ag1372
ag94
ag728
ag20
ag109
ag8
ag120
asV1632
p5174
(lp5175
g544
asV588
p5176
(lp5177
g30
ag94
ag8
asV589
p5178
(lp5179
sV3150
p5180
(lp5181
g336
asV3157
p5182
(lp5183
g1706
ag70
ag863
asV3156
p5184
(lp5185
g1017
asV2839
p5186
(lp5187
g366
ag31
ag32
asV3154
p5188
(lp5189
g1706
ag596
asV1982
p5190
(lp5191
sV2835
p5192
(lp5193
g218
ag514
ag11
ag8
asV2834
p5194
(lp5195
sV2833
p5196
(lp5197
g84
asV2832
p5198
(lp5199
g94
ag8
asV2831
p5200
(lp5201
g625
ag106
asV2830
p5202
(lp5203
sV1436
p5204
(lp5205
g44
ag27
ag16
asV3030
p5206
(lp5207
sV1434
p5208
(lp5209
g44
ag15
ag94
ag11
asV1435
p5210
(lp5211
g44
ag27
ag94
ag230
asV1432
p5212
(lp5213
g250
ag32
asV1433
p5214
(lp5215
g560
ag340
asV1430
p5216
(lp5217
g560
ag94
ag11
ag109
ag37
ag1541
asV1431
p5218
(lp5219
sV1380
p5220
(lp5221
sV1981
p5222
(lp5223
sV1438
p5224
(lp5225
g94
ag11
ag507
asV1439
p5226
(lp5227
g94
ag16
ag3647
asV1541
p5228
(lp5229
sV458
p5230
(lp5231
g32
asV1349
p5232
(lp5233
g83
ag427
asV1340
p5234
(lp5235
g336
asV451
p5236
(lp5237
g174
ag133
asV452
p5238
(lp5239
sV453
p5240
(lp5241
g322
ag663
asV454
p5242
(lp5243
g15
ag31
asV1345
p5244
(lp5245
g507
asV1346
p5246
(lp5247
g45
ag164
asV457
p5248
(lp5249
g45
asV3702
p5250
(lp5251
g70
asV1082
p5252
(lp5253
g16
asV1885
p5254
(lp5255
g94
asV517
p5256
(lp5257
g16
ag31
ag103
asV3701
p5258
(lp5259
sV3368
p5260
(lp5261
sV1883
p5262
(lp5263
sV1882
p5264
(lp5265
g514
asV656
p5266
(lp5267
g695
asV657
p5268
(lp5269
g84
asV654
p5270
(lp5271
sV1501
p5272
(lp5273
g322
asV652
p5274
(lp5275
g459
asV3088
p5276
(lp5277
g199
asV650
p5278
(lp5279
g109
asV651
p5280
(lp5281
sV3085
p5282
(lp5283
g396
ag11
asV3084
p5284
(lp5285
g118
ag94
asV3087
p5286
(lp5287
g150
ag167
ag5
ag159
ag316
ag317
asV1509
p5288
(lp5289
g75
asV3081
p5290
(lp5291
sV3080
p5292
(lp5293
g94
asV658
p5294
(lp5295
g11
asV3082
p5296
(lp5297
g32
asV1886
p5298
(lp5299
g8
asV314
p5300
(lp5301
g65
ag355
ag20
asV2124
p5302
(lp5303
sV1992
p5304
(lp5305
g75
asV948
p5306
(lp5307
sV494
p5308
(lp5309
sV55
p5310
(lp5311
sV2126
p5312
(lp5313
g12
ag8
asV2129
p5314
(lp5315
sV947
p5316
(lp5317
sV495
p5318
(lp5319
sV54
p5320
(lp5321
g911
ag125
asV188
p5322
(lp5323
g94
ag593
ag822
ag20
ag8
ag199
ag4605
asV1081
p5324
(lp5325
g339
ag174
ag1010
asV322
p5326
(lp5327
sV323
p5328
(lp5329
g16
ag500
asV321
p5330
(lp5331
g11
asV327
p5332
(lp5333
g5
ag32
asV324
p5334
(lp5335
sV328
p5336
(lp5337
g911
ag11
asV329
p5338
(lp5339
g474
ag230
asV3629
p5340
(lp5341
g49
asV3628
p5342
(lp5343
sV3621
p5344
(lp5345
g94
asV2819
p5346
(lp5347
sV3623
p5348
(lp5349
g149
ag15
ag31
ag251
asV3622
p5350
(lp5351
sV3625
p5352
(lp5353
g94
ag5
ag371
asV3624
p5354
(lp5355
sV3627
p5356
(lp5357
g95
asV3626
p5358
(lp5359
g250
ag5
ag49
ag11
asV1881
p5360
(lp5361
sV2330
p5362
(lp5363
sV2331
p5364
(lp5365
sV2332
p5366
(lp5367
g94
ag12
asV2333
p5368
(lp5369
g31
ag32
ag626
asV2334
p5370
(lp5371
g45
ag16
ag12
asV2335
p5372
(lp5373
g44
asV2336
p5374
(lp5375
sV2337
p5376
(lp5377
g1371
ag164
asV2338
p5378
(lp5379
sV1341
p5380
(lp5381
g474
asV1597
p5382
(lp5383
g250
ag230
asV3073
p5384
(lp5385
sV1880
p5386
(lp5387
g30
ag5
ag11
ag110
asV2958
p5388
(lp5389
g250
asV1590
p5390
(lp5391
g2942
ag2120
ag199
asV3710
p5392
(lp5393
g1594
ag125
asV3077
p5394
(lp5395
sV3078
p5396
(lp5397
sV2711
p5398
(lp5399
sV2955
p5400
(lp5401
g11
ag323
asV2488
p5402
(lp5403
g753
ag514
ag346
ag754
ag755
asV2486
p5404
(lp5405
sV2487
p5406
(lp5407
g99
ag174
ag31
ag109
asV2484
p5408
(lp5409
g819
ag1203
asV2485
p5410
(lp5411
g212
ag586
ag16
ag277
ag21
asV2482
p5412
(lp5413
g44
asV2483
p5414
(lp5415
g174
asV1598
p5416
(lp5417
sV3252
p5418
(lp5419
sV2248
p5420
(lp5421
sV2249
p5422
(lp5423
g772
ag204
ag94
ag20
ag773
ag774
asV2244
p5424
(lp5425
g170
ag44
ag171
aVThai noodles
p5426
asV2245
p5427
(lp5428
g8
asV2246
p5429
(lp5430
sV2247
p5431
(lp5432
sV2240
p5433
(lp5434
g94
ag507
ag8
asV2241
p5435
(lp5436
g95
asV2242
p5437
(lp5438
g83
ag11
asV2243
p5439
(lp5440
g12
asV2464
p5441
(lp5442
sV2465
p5443
(lp5444
sV997
p5445
(lp5446
g11
asV2467
p5447
(lp5448
g94
ag103
asV991
p5449
(lp5450
g12
asV2461
p5451
(lp5452
sV993
p5453
(lp5454
sV992
p5455
(lp5456
g83
ag598
ag11
asV2468
p5457
(lp5458
g94
asV2469
p5459
(lp5460
g863
ag74
asV3401
p5461
(lp5462
g44
ag1067
asV121
p5463
(lp5464
sV122
p5465
(lp5466
sV123
p5467
(lp5468
sV124
p5469
(lp5470
g94
asV3404
p5471
(lp5472
g94
ag11
asV126
p5473
(lp5474
g5
asV127
p5475
(lp5476
g99
ag575
ag120
asV128
p5477
(lp5478
g44
ag21
asV129
p5479
(lp5480
g560
asV3379
p5481
(lp5482
g94
ag11
asV132
p5483
(lp5484
g94
ag230
ag8
asV1189
p5485
(lp5486
sV131
p5487
(lp5488
sV2068
p5489
(lp5490
g11
asV3377
p5491
(lp5492
g103
asV2798
p5493
(lp5494
g215
asV2799
p5495
(lp5496
g12
asV1187
p5497
(lp5498
sV2060
p5499
(lp5500
g31
ag251
asV137
p5501
(lp5502
g11
asV2790
p5503
(lp5504
g94
asV2063
p5505
(lp5506
g106
asV2796
p5507
(lp5508
g94
asV2797
p5509
(lp5510
g94
ag11
asV2066
p5511
(lp5512
g99
asV2067
p5513
(lp5514
g8
asV3374
p5515
(lp5516
g11
asV135
p5517
(lp5518
g99
ag171
ag230
ag21
asV3373
p5519
(lp5520
g103
asV3411
p5521
(lp5522
g863
ag860
asV1183
p5523
(lp5524
sV1086
p5525
(lp5526
sV3370
p5527
(lp5528
g250
ag31
ag49
asV3579
p5529
(lp5530
g1030
asV3578
p5531
(lp5532
g94
ag5
ag11
ag8
asV3575
p5533
(lp5534
g540
ag748
asV3574
p5535
(lp5536
g355
ag75
asV3577
p5537
(lp5538
sV3576
p5539
(lp5540
g83
asV3571
p5541
(lp5542
g94
ag8
asV3570
p5543
(lp5544
g5
asV3573
p5545
(lp5546
g5
asV3572
p5547
(lp5548
g459
ag748
asV2666
p5549
(lp5550
g30
ag230
asV2667
p5551
(lp5552
g448
ag8
asV2664
p5553
(lp5554
sV2665
p5555
(lp5556
g11
asV2662
p5557
(lp5558
sV2663
p5559
(lp5560
g250
ag11
ag698
ag133
ag1203
asV1748
p5561
(lp5562
g49
ag8
asV2668
p5563
(lp5564
g728
ag748
asV1749
p5565
(lp5566
g84
asV2938
p5567
(lp5568
g540
ag31
ag500
ag8
ag75
asV2939
p5569
(lp5570
g94
ag20
ag109
asV2936
p5571
(lp5572
g120
asV2937
p5573
(lp5574
g346
ag698
asV2934
p5575
(lp5576
sV2935
p5577
(lp5578
g346
ag11
ag626
asV2932
p5579
(lp5580
g748
asV2933
p5581
(lp5582
sV2930
p5583
(lp5584
g11
ag698
asV2931
p5585
(lp5586
g82
ag94
asV1645
p5587
(lp5588
g860
ag31
ag251
ag20
ag24
asV1644
p5589
(lp5590
sV1647
p5591
(lp5592
g1203
asV1646
p5593
(lp5594
sV1641
p5595
(lp5596
g728
ag483
asV1640
p5597
(lp5598
sV1643
p5599
(lp5600
g16
ag21
asV1642
p5601
(lp5602
g132
ag115
ag663
asV1649
p5603
(lp5604
g16
ag11
ag24
asV1648
p5605
(lp5606
sV1742
p5607
(lp5608
sV729
p5609
(lp5610
g93
ag12
asV579
p5611
(lp5612
g212
ag243
asV604
p5613
(lp5614
g52
ag690
asV573
p5615
(lp5616
g8
ag103
asV572
p5617
(lp5618
sV571
p5619
(lp5620
g199
asV570
p5621
(lp5622
sV576
p5623
(lp5624
g860
asV575
p5625
(lp5626
sV574
p5627
(lp5628
g12
asV2808
p5629
(lp5630
g94
asV2809
p5631
(lp5632
g11
asV3168
p5633
(lp5634
g1706
ag125
asV3169
p5635
(lp5636
g339
ag1706
ag11
asV2802
p5637
(lp5638
g45
asV3167
p5639
(lp5640
g1706
ag30
asV2800
p5641
(lp5642
sV2801
p5643
(lp5644
g99
ag611
asV2806
p5645
(lp5646
g322
ag11
ag663
asV2807
p5647
(lp5648
g11
asV3160
p5649
(lp5650
g199
asV3161
p5651
(lp5652
g120
asV1421
p5653
(lp5654
g32
asV1420
p5655
(lp5656
g52
asV1423
p5657
(lp5658
g250
ag31
ag32
asV1425
p5659
(lp5660
g65
ag5
asV3369
p5661
(lp5662
g96
asV1426
p5663
(lp5664
sV3364
p5665
(lp5666
g198
ag96
ag4139
asV3365
p5667
(lp5668
g863
asV3366
p5669
(lp5670
g94
ag49
asV3367
p5671
(lp5672
g179
ag8
asV3360
p5673
(lp5674
sV939
p5675
(lp5676
g94
asV3362
p5677
(lp5678
g179
ag822
asV3363
p5679
(lp5680
g819
asV731
p5681
(lp5682
g30
ag545
ag120
asV730
p5683
(lp5684
g94
asV733
p5685
(lp5686
g164
ag822
ag11
ag483
ag37
asV2157
p5687
(lp5688
g149
asV737
p5689
(lp5690
g459
ag32
ag199
asV736
p5691
(lp5692
g94
ag11
asV739
p5693
(lp5694
g366
ag94
ag174
ag748
ag103
asV2150
p5695
(lp5696
g517
asV2151
p5697
(lp5698
g182
asV1358
p5699
(lp5700
g171
ag230
asV469
p5701
(lp5702
g323
asV468
p5703
(lp5704
g598
ag95
ag11
asV1353
p5705
(lp5706
g170
ag82
ag94
ag8
ag252
asV464
p5707
(lp5708
g741
ag44
ag99
ag94
asV467
p5709
(lp5710
g32
ag483
asV2401
p5711
(lp5712
g11
asV461
p5713
(lp5714
g174
ag115
asV460
p5715
(lp5716
g59
asV1355
p5717
(lp5718
sV608
p5719
(lp5720
g663
asV1273
p5721
(lp5722
g49
asV937
p5723
(lp5724
sV936
p5725
(lp5726
g723
asV1519
p5727
(lp5728
g396
ag115
asV1518
p5729
(lp5730
g396
ag1074
ag167
ag94
ag11
asV1514
p5731
(lp5732
g396
ag182
asV1517
p5733
(lp5734
g322
ag11
ag199
asV934
p5735
(lp5736
sV1004
p5737
(lp5738
g1893
asV3184
p5739
(lp5740
g170
ag94
ag252
asV3185
p5741
(lp5742
g174
ag199
asV3186
p5743
(lp5744
g115
asV3187
p5745
(lp5746
sV3180
p5747
(lp5748
g218
ag459
asV3181
p5749
(lp5750
sV3182
p5751
(lp5752
g1067
asV3183
p5753
(lp5754
g193
asV3188
p5755
(lp5756
g164
asV3189
p5757
(lp5758
g205
ag94
asV3397
p5759
(lp5760
g82
asV1954
p5761
(lp5762
sV355
p5763
(lp5764
sV353
p5765
(lp5766
sV352
p5767
(lp5768
g49
asV351
p5769
(lp5770
g17
asV350
p5771
(lp5772
sV359
p5773
(lp5774
g49
ag75
asV3107
p5775
(lp5776
g75
ag84
asV3612
p5777
(lp5778
g182
asV43
p5779
(lp5780
sV2298
p5781
(lp5782
g115
asV1033
p5783
(lp5784
sV2323
p5785
(lp5786
g1371
ag164
asV2322
p5787
(lp5788
g84
asV2321
p5789
(lp5790
g11
asV2320
p5791
(lp5792
g474
ag5
asV2325
p5793
(lp5794
g99
ag690
asV2324
p5795
(lp5796
sV2329
p5797
(lp5798
g179
asV2328
p5799
(lp5800
g94
ag8
asV289
p5801
(lp5802
g30
ag371
asV3618
p5803
(lp5804
g32
ag626
asV280
p5805
(lp5806
g94
ag8
asV282
p5807
(lp5808
g11
ag75
ag159
asV285
p5809
(lp5810
g277
ag32
ag8
asV284
p5811
(lp5812
g20
ag37
asV287
p5813
(lp5814
g212
asV1441
p5815
(lp5816
sV1440
p5817
(lp5818
g336
asV263
p5819
(lp5820
g32
asV262
p5821
(lp5822
g32
asV261
p5823
(lp5824
g31
ag133
asV260
p5825
(lp5826
g212
asV267
p5827
(lp5828
g396
asV266
p5829
(lp5830
g115
asV265
p5831
(lp5832
sV264
p5833
(lp5834
g94
asV269
p5835
(lp5836
g83
ag59
asV268
p5837
(lp5838
g15
ag31
ag109
asV1290
p5839
(lp5840
sV2499
p5841
(lp5842
sV2498
p5843
(lp5844
g174
ag95
ag31
ag230
asV2491
p5845
(lp5846
g167
ag94
ag8
asV1564
p5847
(lp5848
sV2493
p5849
(lp5850
g30
asV2492
p5851
(lp5852
g44
asV2495
p5853
(lp5854
g170
ag94
ag593
ag11
ag252
asV258
p5855
(lp5856
g31
ag11
ag109
asV2497
p5857
(lp5858
g170
asV2496
p5859
(lp5860
g586
ag1010
ag84
asV2193
p5861
(lp5862
sV1294
p5863
(lp5864
g1048
asV2259
p5865
(lp5866
g396
ag540
ag32
asV2258
p5867
(lp5868
sV2257
p5869
(lp5870
sV2256
p5871
(lp5872
g626
asV1567
p5873
(lp5874
g427
ag593
ag11
asV2253
p5875
(lp5876
sV2252
p5877
(lp5878
sV2251
p5879
(lp5880
sV2250
p5881
(lp5882
sV2477
p5883
(lp5884
g45
asV988
p5885
(lp5886
g94
asV3224
p5887
(lp5888
g863
ag16
asV2473
p5889
(lp5890
sV2472
p5891
(lp5892
sV2471
p5893
(lp5894
g543
ag74
ag230
ag159
ag341
asV982
p5895
(lp5896
g44
ag16
asV983
p5897
(lp5898
g45
ag164
asV980
p5899
(lp5900
sV981
p5901
(lp5902
g624
ag31
ag109
ag115
ag84
asV987
p5903
(lp5904
sV984
p5905
(lp5906
g193
asV985
p5907
(lp5908
g690
asV115
p5909
(lp5910
sV116
p5911
(lp5912
g94
ag12
ag103
ag663
asV110
p5913
(lp5914
g102
ag103
asV2199
p5915
(lp5916
sV3244
p5917
(lp5918
g193
asV119
p5919
(lp5920
g106
asV3432
p5921
(lp5922
g138
asV2785
p5923
(lp5924
g115
asV2784
p5925
(lp5926
g1893
asV2787
p5927
(lp5928
g138
asV2786
p5929
(lp5930
g198
ag164
ag11
asV2781
p5931
(lp5932
g243
asV2780
p5933
(lp5934
sV2783
p5935
(lp5936
g45
ag164
ag11
asV2782
p5937
(lp5938
g339
ag94
asV2789
p5939
(lp5940
g860
asV2788
p5941
(lp5942
sV2177
p5943
(lp5944
sV2079
p5945
(lp5946
g94
ag11
ag115
asV2078
p5947
(lp5948
g164
ag32
ag199
asV2072
p5949
(lp5950
sV2071
p5951
(lp5952
g2069
asV2070
p5953
(lp5954
g94
asV2077
p5955
(lp5956
sV2076
p5957
(lp5958
g138
ag230
ag37
asV2075
p5959
(lp5960
g323
ag193
asV1796
p5961
(lp5962
sV3221
p5963
(lp5964
g250
asV3508
p5965
(lp5966
g102
ag103
asV3504
p5967
(lp5968
g182
asV3505
p5969
(lp5970
g49
asV3506
p5971
(lp5972
g663
asV3507
p5973
(lp5974
g93
asV2671
p5975
(lp5976
g514
ag598
asV2670
p5977
(lp5978
sV2673
p5979
(lp5980
sV2672
p5981
(lp5982
g517
ag31
asV2675
p5983
(lp5984
sV2674
p5985
(lp5986
g346
ag1659
asV2677
p5987
(lp5988
g396
ag32
ag1010
asV2676
p5989
(lp5990
g250
ag833
ag45
ag133
asV1209
p5991
(lp5992
sV3220
p5993
(lp5994
g27
asV2929
p5995
(lp5996
sV2928
p5997
(lp5998
g336
asV2921
p5999
(lp6000
g94
asV2920
p6001
(lp6002
sV2923
p6003
(lp6004
g741
asV2922
p6005
(lp6006
sV2925
p6007
(lp6008
g16
asV2924
p6009
(lp6010
g94
ag545
asV2927
p6011
(lp6012
g772
ag204
ag624
ag598
ag11
ag773
ag774
asV2564
p6013
(lp6014
g346
asV1208
p6015
(lp6016
g31
ag626
asV708
p6017
(lp6018
g11
asV2906
p6019
(lp6020
g52
ag4064
asV1986
p6021
(lp6022
g8
ag159
asV1631
p6023
(lp6024
g102
ag174
ag103
asV3216
p6025
(lp6026
g27
ag21
asV1985
p6027
(lp6028
g339
ag103
asV1634
p6029
(lp6030
g94
ag16
asV3211
p6031
(lp6032
g517
ag5
ag75
ag748
asV1980
p6033
(lp6034
sV3213
p6035
(lp6036
sV1638
p6037
(lp6038
g94
ag12
asV1639
p6039
(lp6040
g102
ag110
ag103
asV3218
p6041
(lp6042
sV3219
p6043
(lp6044
g93
ag94
ag8
asV1988
p6045
(lp6046
sV1989
p6047
(lp6048
g625
ag540
ag5
asV3222
p6049
(lp6050
sV2909
p6051
(lp6052
g448
asV568
p6053
(lp6054
g75
asV569
p6055
(lp6056
g30
asV2817
p6057
(lp6058
g396
asV2811
p6059
(lp6060
sV2810
p6061
(lp6062
sV2812
p6063
(lp6064
g1045
ag179
ag110
asV560
p6065
(lp6066
g45
ag16
asV561
p6067
(lp6068
g819
ag193
asV562
p6069
(lp6070
g45
ag31
ag75
ag748
asV563
p6071
(lp6072
g115
ag75
ag84
asV564
p6073
(lp6074
g75
asV2818
p6075
(lp6076
g94
ag8
ag199
asV566
p6077
(lp6078
g4064
asV567
p6079
(lp6080
g339
asV3178
p6081
(lp6082
g11
asV3171
p6083
(lp6084
sV3170
p6085
(lp6086
sV3173
p6087
(lp6088
sV3172
p6089
(lp6090
g1706
ag30
asV3175
p6091
(lp6092
g8
asV3174
p6093
(lp6094
g8
asV3177
p6095
(lp6096
g170
ag11
ag323
ag1098
asV3176
p6097
(lp6098
sV659
p6099
(lp6100
sV1188
p6101
(lp6102
g94
ag8
asV3378
p6103
(lp6104
g748
asV1186
p6105
(lp6106
g304
ag75
asV3376
p6107
(lp6108
sV3375
p6109
(lp6110
g1203
asV1185
p6111
(lp6112
g45
ag164
ag11
asV1182
p6113
(lp6114
g94
ag230
asV3372
p6115
(lp6116
g199
asV3371
p6117
(lp6118
g150
ag243
ag49
ag109
ag316
ag317
asV1181
p6119
(lp6120
g540
ag94
ag598
ag11
asV726
p6121
(lp6122
sV727
p6123
(lp6124
g94
ag24
asV722
p6125
(lp6126
g205
asV723
p6127
(lp6128
g860
asV720
p6129
(lp6130
g11
asV721
p6131
(lp6132
g110
asV1745
p6133
(lp6134
sV1746
p6135
(lp6136
g593
ag215
asV1747
p6137
(lp6138
g2307
ag115
asV1740
p6139
(lp6140
g819
asV1741
p6141
(lp6142
sV728
p6143
(lp6144
g16
asV1743
p6145
(lp6146
g70
ag49
asV1164
p6147
(lp6148
g94
ag215
ag84
asV1165
p6149
(lp6150
sV1166
p6151
(lp6152
g11
asV1167
p6153
(lp6154
g159
asV1614
p6155
(lp6156
g45
ag15
ag544
asV1161
p6157
(lp6158
g396
asV1162
p6159
(lp6160
g93
asV1163
p6161
(lp6162
g8
asV1168
p6163
(lp6164
g5
ag21
ag75
asV1169
p6165
(lp6166
g3091
asV3092
p6167
(lp6168
sV1489
p6169
(lp6170
sV1366
p6171
(lp6172
g167
ag8
ag115
asV3305
p6173
(lp6174
sV473
p6175
(lp6176
sV46
p6177
(lp6178
g339
ag65
ag94
asV47
p6179
(lp6180
g52
ag11
asV44
p6181
(lp6182
g11
asV45
p6183
(lp6184
g8
ag193
asV42
p6185
(lp6186
sV2034
p6187
(lp6188
g215
ag11
asV40
p6189
(lp6190
g83
asV41
p6191
(lp6192
g94
ag8
asV1568
p6193
(lp6194
g1659
asV1569
p6195
(lp6196
g30
asV1298
p6197
(lp6198
sV1299
p6199
(lp6200
g149
ag251
asV1587
p6201
(lp6202
sV1560
p6203
(lp6204
sV3193
p6205
(lp6206
g5
ag8
asV1562
p6207
(lp6208
g11
asV1563
p6209
(lp6210
g94
asV1296
p6211
(lp6212
g12
ag199
asV1565
p6213
(lp6214
g624
ag459
asV1566
p6215
(lp6216
g94
asV1295
p6217
(lp6218
g8
asV1713
p6219
(lp6220
g93
ag82
ag233
ag94
ag5
asV3191
p6221
(lp6222
sV796
p6223
(lp6224
g94
asV591
p6225
(lp6226
g371
asV3190
p6227
(lp6228
g593
ag5
asV795
p6229
(lp6230
sV1381
p6231
(lp6232
g99
ag15
ag31
asV1716
p6233
(lp6234
g11
asV1715
p6235
(lp6236
sV732
p6237
(lp6238
sV790
p6239
(lp6240
g94
asV472
p6241
(lp6242
g44
ag212
ag31
ag120
asV3196
p6243
(lp6244
sV470
p6245
(lp6246
sV471
p6247
(lp6248
g44
ag243
ag507
ag1176
asV476
p6249
(lp6250
g125
asV1363
p6251
(lp6252
g94
asV474
p6253
(lp6254
g833
ag94
ag459
ag8
asV475
p6255
(lp6256
g149
ag1594
ag30
asV479
p6257
(lp6258
sV2916
p6259
(lp6260
g277
ag230
asV3199
p6261
(lp6262
g336
ag5
asV3198
p6263
(lp6264
g27
as.