(dp0
V643
p1
(dp2
sV344
p3
(dp4
Vpeople
p5
S'neutral'
p6
ssV345
p7
(dp8
Vservice
p9
g6
ssV346
p10
(dp11
Vprices
p12
g6
sVplace
p13
S'negative'
p14
ssV347
p15
(dp16
Vmenu
p17
g14
sVfavorite
p18
g6
sVroll
p19
g6
ssV340
p20
(dp21
Vrice
p22
g14
sVquality
p23
g14
ssV341
p24
(dp25
g22
g14
sVsushi
p26
g14
ssV342
p27
(dp28
Vfish
p29
g6
ssV343
p30
(dp31
Vrestaurant
p32
g14
sVexperience
p33
g14
sVone
p34
g6
ssV348
p35
(dp36
g26
g14
sg33
g6
ssV349
p37
(dp38
Vvalue
p39
g14
ssV2318
p40
(dp41
Vchicken
p42
g6
sVdinner
p43
g6
ssV2316
p44
(dp45
Vjoint
p46
g14
sg43
g6
sVpizza
p47
g6
ssV2317
p48
(dp49
Vbeer
p50
S'positive'
p51
ssV2314
p52
(dp53
g9
g6
ssV2315
p54
(dp55
g13
g14
ssV2312
p56
(dp57
Vpizza place
p58
g6
sg13
g14
sVgem
p59
g14
sg47
g6
ssV2311
p60
(dp61
sV2184
p62
(dp63
sV298
p64
(dp65
Vcity
p66
g14
ssV299
p67
(dp68
g9
g6
ssV296
p69
(dp70
Vcheese
p71
g14
sVplate
p72
g14
ssV297
p73
(dp74
Vglass
p75
g14
sVtable
p76
g14
ssV294
p77
(dp78
g32
g14
ssV295
p79
(dp80
sV292
p81
(dp82
g76
g14
sVbit
p83
g6
sVfriends
p84
g14
sVwait
p85
g6
ssV293
p86
(dp87
sV291
p88
(dp89
sV587
p90
(dp91
sV270
p92
(dp93
Vfood
p94
g14
sVspot
p95
g51
sVatmosphere
p96
g6
sVneighborhood
p97
g6
sg9
g51
ssV271
p98
(dp99
Vdishes
p100
g6
ssV272
p101
(dp102
g94
g14
sVlist
p103
g14
sVwine
p104
g6
ssV273
p105
(dp106
Vroom
p107
g51
ssV274
p108
(dp109
g32
g6
sVstreet
p110
g6
sVrestaurants
p111
g14
sg34
g6
ssV275
p112
(dp113
sV276
p114
(dp115
g17
g6
sVstaff
p116
g6
ssV277
p117
(dp118
Vtaste
p119
g6
sVappetizers
p120
g6
sVchocolate
p121
g6
ssV278
p122
(dp123
g94
g14
ssV279
p124
(dp125
g84
g14
sVway
p126
g14
ssV738
p127
(dp128
g94
g14
sg9
g6
sg33
g14
ssV581
p129
(dp130
sV2268
p131
(dp132
Vproblem
p133
g14
sVtop
p134
g6
sg5
g14
ssV2269
p135
(dp136
sV2262
p137
(dp138
g19
g14
sVappetizer
p139
g14
ssV2263
p140
(dp141
g83
g14
sg9
g6
ssV2260
p142
(dp143
sV2261
p144
(dp145
g103
g14
ssV2267
p146
(dp147
g96
g14
ssV2442
p148
(dp149
VNY
p150
g6
sVNew
p151
g6
ssV2443
p152
(dp153
g94
g14
sg9
g51
ssV2440
p154
(dp155
g9
g51
ssV2441
p156
(dp157
sV2446
p158
(dp159
Vthing
p160
g14
ssV2447
p161
(dp162
sV2444
p163
(dp164
Vlunch
p165
g6
sg17
g14
sg139
g14
ssV2445
p166
(dp167
g165
g14
sVdrinks
p168
g6
ssV2448
p169
(dp170
VThai
p171
g6
sVnoodles
p172
g6
ssV2449
p173
(dp174
Vmeal
p175
g14
ssV2189
p176
(dp177
VService
p178
g6
ssV109
p179
(dp180
sV102
p181
(dp182
Vowner
p183
g14
sg76
g14
ssV103
p184
(dp185
Vhome
p186
g14
ssV101
p187
(dp188
g13
g14
ssV2042
p189
(dp190
g12
g6
ssV2040
p191
(dp192
sV2041
p193
(dp194
g160
g14
ssV1297
p195
(dp196
Vtimes
p197
g6
ssV3155
p198
(dp199
g9
g6
ssV2838
p200
(dp201
Vdate
p202
g6
sg13
g14
sVtime
p203
g14
ssV3159
p204
(dp205
sV3519
p206
(dp207
Vambience
p208
g6
sg12
g14
sVVillage
p209
g6
ssV3518
p210
(dp211
sV3513
p212
(dp213
g46
g14
sg116
g14
sg9
g6
sg32
g6
ssV3512
p214
(dp215
Vdish
p216
g14
sg13
g51
sg111
g14
ssV3511
p217
(dp218
g76
g14
sVorder
p219
g14
ssV3510
p220
(dp221
Vcustomer
p222
g6
sg9
g6
sg33
g14
sg32
g6
ssV3517
p223
(dp224
g94
g14
ssV3516
p225
(dp226
g12
g6
sg165
g6
sg43
g6
ssV3515
p227
(dp228
VThai restaurant
p229
g6
sg171
g6
sg116
g51
sg32
g14
ssV3514
p230
(dp231
sV2688
p232
(dp233
g94
g14
sg17
g14
sVprice
p234
g14
ssV2689
p235
(dp236
Vcourse
p237
g6
ssV2686
p238
(dp239
g202
g14
sg13
g14
sg84
g6
sg9
g6
ssV2687
p240
(dp241
sV2681
p242
(dp243
Vpasta
p244
g14
ssV3391
p245
(dp246
sV1437
p247
(dp248
sV3393
p249
(dp250
Vplaces
p251
g14
sg5
g14
sg94
g14
sVThai food
p252
g6
sVNYC
p253
g6
sg171
g6
ssV98
p254
(dp255
g94
g14
ssV3392
p256
(dp257
sV91
p258
(dp259
sV90
p260
(dp261
g17
g14
sg23
g6
ssV93
p262
(dp263
g84
g6
sg203
g14
ssV92
p264
(dp265
g13
g14
ssV95
p266
(dp267
g150
g6
ssV94
p268
(dp269
g96
g14
sg9
g14
sg100
g14
ssV97
p270
(dp271
g103
g14
sg104
g6
ssV96
p272
(dp273
sV1623
p274
(dp275
g103
g14
sg104
g6
ssV1622
p276
(dp277
Vportions
p278
g6
ssV1621
p279
(dp280
g94
g51
sg9
g14
ssV3204
p281
(dp282
g202
g6
sg95
g14
ssV1627
p283
(dp284
g9
g6
ssV1626
p285
(dp286
g203
g51
ssV1625
p287
(dp288
g160
g14
ssV1624
p289
(dp290
g94
g14
sg160
g51
sg9
g14
ssV1998
p291
(dp292
sV3396
p293
(dp294
sV3209
p295
(dp296
g32
g14
ssV3208
p297
(dp298
sV1293
p299
(dp300
sV2860
p301
(dp302
sV2861
p303
(dp304
g116
g14
ssV2862
p305
(dp306
g100
g14
sg32
g6
sVrest
p307
g14
sg34
g14
sg76
g14
sg197
g14
sVminutes
p308
g14
sg219
g14
ssV2863
p309
(dp310
sV2864
p311
(dp312
g59
g6
ssV558
p313
(dp314
g33
g14
ssV555
p315
(dp316
g13
g14
ssV554
p317
(dp318
g151
g6
sVNew York
p319
g6
sg5
g14
ssV557
p320
(dp321
g9
g6
ssV556
p322
(dp323
g96
g14
sg9
g14
sVarea
p324
g14
sg103
g14
sVreviews
p325
g14
sg13
g14
sg12
g14
sg104
g51
ssV551
p326
(dp327
g85
g6
ssV550
p328
(dp329
g94
g14
sg104
g6
sg13
g14
sg9
g6
sg197
g14
ssV553
p330
(dp331
g9
g14
ssV552
p332
(dp333
g75
g14
sg104
g6
ssV1199
p334
(dp335
sV1198
p336
(dp337
Vnothing
p338
g6
sg29
g6
ssV1191
p339
(dp340
Vchef
p341
g14
sVaverage
p342
g6
sVwaitress
p343
g14
ssV3343
p344
(dp345
g94
g14
ssV3340
p346
(dp347
g43
g6
sg32
g14
sVnight
p348
g6
ssV3341
p349
(dp350
g341
g14
sg237
g14
sg116
g6
ssV1195
p351
(dp352
g12
g6
sg342
g14
sg26
g14
ssV1194
p353
(dp354
g197
g6
ssV1197
p355
(dp356
Vhour
p357
g6
ssV1196
p358
(dp359
g76
g14
sg9
g6
sg203
g14
ssV1759
p360
(dp361
g186
g6
ssV1756
p362
(dp363
g234
g14
ssV1755
p364
(dp365
g47
g14
ssV1750
p366
(dp367
Vend
p368
g14
ssV1177
p369
(dp370
sV1176
p371
(dp372
Vreview
p373
g6
sg34
g6
ssV1175
p374
(dp375
g94
g14
sg72
g14
ssV1174
p376
(dp377
g13
g14
sg203
g14
ssV1173
p378
(dp379
sV1171
p380
(dp381
g119
g14
sg253
g6
ssV1170
p382
(dp383
g342
g6
sg197
g14
ssV1179
p384
(dp385
g34
g14
ssV1178
p386
(dp387
sV511
p388
(dp389
sV510
p390
(dp391
sV513
p392
(dp393
g76
g14
ssV1285
p394
(dp395
sV1287
p396
(dp397
g84
g6
sg97
g6
sVbar
p398
g6
ssV1286
p399
(dp400
g95
g51
sg203
g51
ssV1281
p401
(dp402
g83
g51
ssV1280
p403
(dp404
sV1283
p405
(dp406
sV1282
p407
(dp408
g348
g6
ssV1289
p409
(dp410
g150
g6
sg47
g6
sg46
g14
ssV1288
p411
(dp412
g47
g14
ssV514
p413
(dp414
g203
g14
ssV1579
p415
(dp416
g278
g14
ssV1578
p417
(dp418
g94
g14
ssV689
p419
(dp420
sV688
p421
(dp422
g95
g14
ssV3431
p423
(dp424
sV685
p425
(dp426
g94
g14
sg97
g14
ssV1572
p427
(dp428
Vfun
p429
g14
sg251
g6
sg34
g14
ssV687
p430
(dp431
g9
g14
ssV686
p432
(dp433
g197
g14
ssV1577
p434
(dp435
sV680
p436
(dp437
g110
g14
sg307
g14
sg32
g14
ssV1575
p438
(dp439
g32
g6
ssV1574
p440
(dp441
g429
g6
sg13
g14
ssV1227
p442
(dp443
sV875
p444
(dp445
g32
g14
ssV622
p446
(dp447
g13
g14
ssV3434
p448
(dp449
Vdessert
p450
g14
ssV1240
p451
(dp452
sV873
p453
(dp454
g325
g14
sg32
g14
ssV3436
p455
(dp456
g17
g14
sg100
g6
ssV871
p457
(dp458
g17
g14
ssV2037
p459
(dp460
g94
g14
sVmoney
p461
g6
sg13
g14
ssV2036
p462
(dp463
g216
g6
sg119
g51
sg133
g51
sg219
g14
sg100
g14
ssV1243
p464
(dp465
sV2035
p466
(dp467
g94
g6
sg278
g14
sg34
g14
sg5
g14
sg168
g6
ssV1371
p468
(dp469
sV1370
p470
(dp471
g94
g6
ssV1373
p472
(dp473
g119
g6
sg307
g14
ssV1372
p474
(dp475
g208
g14
sg178
g6
ssV403
p476
(dp477
g342
g6
sg348
g14
ssV1374
p478
(dp479
g32
g14
ssV1377
p480
(dp481
g95
g6
sg348
g51
ssV400
p482
(dp483
Vtown
p484
g6
sg13
g6
ssV1379
p485
(dp486
sV1378
p487
(dp488
g9
g14
ssV409
p489
(dp490
g234
g6
sg26
g6
ssV408
p491
(dp492
g29
g6
sg22
g14
ssV1343
p493
(dp494
g29
g6
ssV1242
p495
(dp496
g22
g14
ssV1344
p497
(dp498
sV2030
p499
(dp500
g94
g6
sg71
g6
sg104
g14
sg76
g14
sVserver
p501
g6
ssV1245
p502
(dp503
sV379
p504
(dp505
g12
g6
ssV378
p506
(dp507
g29
g6
sVsauce
p508
g14
ssV3194
p509
(dp510
g94
g14
sg171
g6
sg252
g6
sVfriend
p511
g14
ssV370
p512
(dp513
sV375
p514
(dp515
g244
g6
sg107
g6
sg100
g14
ssV377
p516
(dp517
Vgroup
p518
g51
ssV1244
p519
(dp520
g171
g6
sVdrink
p521
g6
sg84
g6
ssV391
p522
(dp523
g484
g6
sg84
g14
sg26
g6
sg398
g14
ssV390
p524
(dp525
g203
g14
ssV397
p526
(dp527
g19
g14
ssV396
p528
(dp529
g66
g14
sg26
g6
sg18
g6
sg34
g14
sg59
g14
sg111
g6
ssV395
p530
(dp531
g17
g14
ssV394
p532
(dp533
g341
g14
sg29
g6
ssV2309
p534
(dp535
sV2308
p536
(dp537
sV2301
p538
(dp539
sV2300
p540
(dp541
g85
g6
sg203
g14
ssV2303
p542
(dp543
Vdoor
p544
g14
ssV2302
p545
(dp546
Vsalad
p547
g14
sVhouse
p548
g6
sg18
g6
sVbottle
p549
g14
sg104
g6
sg175
g6
sg47
g14
ssV2305
p550
(dp551
g219
g14
sg197
g14
ssV2304
p552
(dp553
sV2307
p554
(dp555
Vsize
p556
g14
ssV2306
p557
(dp558
g94
g14
ssV247
p559
(dp560
g94
g14
sg32
g14
ssV246
p561
(dp562
sV241
p563
(dp564
VChinatown
p565
g6
sg111
g6
ssV240
p566
(dp567
g151
g6
sg319
g6
sg13
g51
ssV249
p568
(dp569
g110
g14
sg13
g14
ssV248
p570
(dp571
g325
g6
sg565
g6
sg203
g14
ssV2275
p572
(dp573
g13
g14
sg565
g6
ssV2274
p574
(dp575
g234
g51
sg19
g14
ssV2277
p576
(dp577
sV2276
p578
(dp579
g17
g14
sg42
g14
sVnoodle
p580
g6
sg518
g51
sg100
g14
ssV2271
p581
(dp582
g94
g14
sg110
g14
sg85
g6
ssV2273
p583
(dp584
g26
g14
ssV2272
p585
(dp586
g17
g14
sg168
g14
ssV2279
p587
(dp588
g12
g6
sg13
g14
sg565
g6
ssV2278
p589
(dp590
g119
g14
sg17
g6
sVflavor
p591
g14
ssV2459
p592
(dp593
sV2458
p594
(dp595
g398
g14
sg5
g6
sg94
g6
sg32
g14
sg150
g6
sVlot
p596
g14
sg168
g6
ssV2156
p597
(dp598
g253
g6
ssV2455
p599
(dp600
Vkind
p601
g6
sg398
g14
sg17
g14
sVfix
p602
g6
sVitem
p603
g6
sg116
g14
sg168
g14
ssV2454
p604
(dp605
sV2457
p606
(dp607
g116
g14
ssV2456
p608
(dp609
g203
g14
ssV2451
p610
(dp611
g12
g6
ssV2450
p612
(dp613
g216
g14
ssV2453
p614
(dp615
g237
g14
sVportion
p616
g14
sg278
g6
ssV2452
p617
(dp618
g32
g14
sg5
g6
ssV179
p619
(dp620
g178
g6
ssV178
p621
(dp622
g94
g14
sg343
g14
ssV177
p623
(dp624
g518
g14
ssV176
p625
(dp626
g13
g14
ssV175
p627
(dp628
g202
g6
sVdining
p629
g6
sVdecor
p630
g14
sVside
p631
g14
ssV174
p632
(dp633
g165
g6
sg133
g14
sg219
g14
sg203
g14
ssV173
p634
(dp635
g631
g6
ssV3698
p636
(dp637
g17
g14
ssV3699
p638
(dp639
sV2053
p640
(dp641
sV2052
p642
(dp643
sV2054
p644
(dp645
sV2057
p646
(dp647
g94
g14
ssV3690
p648
(dp649
g121
g14
ssV2058
p650
(dp651
sV3692
p652
(dp653
g13
g6
sg219
g6
ssV3693
p654
(dp655
sV3694
p656
(dp657
sV3695
p658
(dp659
sV3696
p660
(dp661
g253
g6
sg616
g6
sg234
g6
sg251
g14
ssV3697
p662
(dp663
g251
g51
ssV655
p664
(dp665
g94
g14
sg119
g14
sVyears
p666
g14
sg32
g14
ssV3089
p667
(dp668
sV3088
p669
(dp670
g203
g51
ssV1367
p671
(dp672
sV3526
p673
(dp674
sV3527
p675
(dp676
g94
g14
sg17
g6
sg338
g14
ssV3524
p677
(dp678
g120
g51
ssV3525
p679
(dp680
g76
g6
sg116
g14
ssV3520
p681
(dp682
g630
g14
sg43
g51
ssV3521
p683
(dp684
sV1508
p685
(dp686
g368
g14
sg9
g6
ssV3541
p687
(dp688
g43
g14
ssV3086
p689
(dp690
g13
g14
sg596
g14
sg168
g6
ssV3081
p691
(dp692
sV3225
p693
(dp694
Vselection
p695
g14
ssV3083
p696
(dp697
g94
g14
sg85
g6
sg116
g14
ssV2699
p698
(dp699
Vanyone
p700
g6
sg13
g14
ssV2698
p701
(dp702
Vreservation
p703
g14
sg9
g6
sg203
g14
ssV2697
p704
(dp705
g591
g6
ssV2696
p706
(dp707
g94
g51
sg17
g14
sg325
g6
ssV2695
p708
(dp709
sV2694
p710
(dp711
sV2693
p712
(dp713
g175
g14
sg547
g14
ssV1603
p714
(dp715
g13
g6
ssV2691
p716
(dp717
g175
g14
sg33
g6
ssV2690
p718
(dp719
sV1602
p720
(dp721
g178
g6
ssV1973
p722
(dp723
g234
g6
ssV1972
p724
(dp725
Vglasses
p726
g14
ssV1607
p727
(dp728
g9
g6
sg666
g14
sg43
g14
sg348
g51
sg76
g14
sg83
g6
ssV1606
p729
(dp730
Vhand
p731
g14
ssV1362
p732
(dp733
sV3232
p734
(dp735
sV3233
p736
(dp737
g197
g14
ssV3230
p738
(dp739
g17
g6
sg103
g14
sg104
g6
ssV3236
p740
(dp741
g32
g14
sg33
g14
sg5
g14
ssV1969
p742
(dp743
g695
g14
sVambiance
p744
g6
sg9
g14
sg104
g6
ssV3234
p745
(dp746
g94
g14
sg33
g14
ssV1619
p747
(dp748
g76
g14
sg549
g14
sg726
g14
ssV1616
p749
(dp750
Vwaiter
p751
g14
sg17
g6
sg100
g14
ssV1617
p752
(dp753
g17
g14
sg100
g14
sg5
g14
ssV1614
p754
(dp755
g548
g14
sg43
g6
sg18
g6
ssV3239
p756
(dp757
g703
g6
ssV1960
p758
(dp759
g703
g14
sg308
g14
sg203
g6
ssV1961
p760
(dp761
g76
g6
sg9
g14
ssV1610
p762
(dp763
g47
g14
ssV1611
p764
(dp765
sV1749
p766
(dp767
g85
g14
ssV2872
p768
(dp769
g116
g14
ssV2871
p770
(dp771
g96
g51
sVEast
p772
g6
sVEast Village
p773
g6
sg59
g14
sg209
g6
ssV2877
p774
(dp775
sV2876
p776
(dp777
g33
g14
sg197
g6
ssV2875
p778
(dp779
g12
g51
sg104
g14
ssV2879
p780
(dp781
g94
g14
sg12
g6
sg9
g6
ssV2878
p782
(dp783
g772
g6
sg13
g14
sg773
g6
sg209
g6
ssV3355
p784
(dp785
g450
g6
sg83
g6
sg121
g6
ssV3354
p786
(dp787
sV3353
p788
(dp789
g134
g6
sg547
g6
sg47
g14
ssV3352
p790
(dp791
g32
g14
sg47
g6
ssV3359
p792
(dp793
g47
g14
ssV3358
p794
(dp795
sV1768
p796
(dp797
sV1769
p798
(dp799
sV1760
p800
(dp801
sV1766
p802
(dp803
sV1767
p804
(dp805
sV1765
p806
(dp807
sV1140
p808
(dp809
g94
g14
sg110
g14
sg97
g51
sg203
g14
ssV1146
p810
(dp811
g203
g14
ssV1147
p812
(dp813
sV1144
p814
(dp815
Vmonth
p816
g14
ssV1789
p817
(dp818
g484
g6
sVpart
p819
g14
sg13
g14
ssV1148
p820
(dp821
g84
g6
sg111
g6
ssV1149
p822
(dp823
sV768
p824
(dp825
g744
g14
ssV2966
p826
(dp827
sV692
p828
(dp829
g151
g6
sVSmith Street
p830
g6
sVStreet
p831
g6
sg319
g6
sg203
g14
ssV1547
p832
(dp833
g183
g14
ssV690
p834
(dp835
g12
g14
sg96
g14
ssV691
p836
(dp837
g94
g14
sg450
g6
sg278
g14
ssV1542
p838
(dp839
g94
g14
ssV1543
p840
(dp841
g107
g14
ssV1540
p842
(dp843
g308
g14
ssV695
p844
(dp845
g85
g14
ssV698
p846
(dp847
sV699
p848
(dp849
g103
g14
sg104
g6
ssV1548
p850
(dp851
g94
g14
ssV1549
p852
(dp853
g94
g51
sg13
g14
ssV542
p854
(dp855
g150
g6
sg511
g6
ssV1780
p856
(dp857
g94
g6
sVeverything
p858
g51
sg17
g14
ssV540
p859
(dp860
sV541
p861
(dp862
sV547
p863
(dp864
g165
g6
sg85
g6
sg13
g14
sg197
g14
ssV544
p865
(dp866
g95
g6
ssV1781
p867
(dp868
sV548
p869
(dp870
g13
g14
ssV549
p871
(dp872
sV1782
p873
(dp874
sV761
p875
(dp876
sV1784
p877
(dp878
g26
g14
ssV2968
p879
(dp880
g398
g6
sg744
g14
sg9
g14
sVbartender
p881
g14
ssV1786
p882
(dp883
g234
g6
sg19
g14
ssV1787
p884
(dp885
sV414
p886
(dp887
g94
g14
sg171
g6
sg252
g6
ssV415
p888
(dp889
g94
g6
sg357
g14
sg34
g6
ssV416
p890
(dp891
g94
g14
sg22
g6
ssV417
p892
(dp893
g229
g6
sg171
g6
sg22
g6
sg43
g6
sg32
g14
ssV410
p894
(dp895
VSaturday night
p896
g6
sVSaturday
p897
g6
sg348
g14
ssV411
p898
(dp899
sV412
p900
(dp901
g29
g6
sg591
g6
ssV413
p902
(dp903
g13
g14
sg103
g14
ssV1384
p904
(dp905
g32
g14
sg94
g14
sg234
g6
sg229
g6
sg171
g6
sVday
p906
g51
ssV1385
p907
(dp908
g119
g14
sg630
g14
sg178
g6
ssV1386
p909
(dp910
g94
g14
sg171
g6
ssV1387
p911
(dp912
g33
g51
ssV418
p913
(dp914
g94
g14
sg308
g14
ssV419
p915
(dp916
g511
g14
sg348
g6
ssV1382
p917
(dp918
sV1383
p919
(dp920
g219
g14
sg32
g14
ssV2769
p921
(dp922
sV3583
p923
(dp924
sV2099
p925
(dp926
sV368
p927
(dp928
g76
g14
sg549
g14
sg104
g6
ssV369
p929
(dp930
g450
g6
sg17
g14
ssV366
p931
(dp932
g751
g14
ssV367
p933
(dp934
g348
g6
ssV364
p935
(dp936
g751
g14
sg237
g14
ssV365
p937
(dp938
g71
g51
sg94
g6
sg751
g14
sg244
g14
sg104
g6
sg175
g14
sg726
g14
ssV362
p939
(dp940
g630
g14
sg32
g14
ssV363
p941
(dp942
g94
g14
sg103
g14
sg9
g6
sg104
g6
ssV3214
p943
(dp944
sV380
p945
(dp946
sV381
p947
(dp948
g171
g6
ssV382
p949
(dp950
g172
g14
sg508
g14
ssV385
p951
(dp952
g13
g14
ssV386
p953
(dp954
sV387
p955
(dp956
sV388
p957
(dp958
g12
g14
sg66
g6
sg630
g14
sg13
g14
ssV3215
p959
(dp960
sV2065
p961
(dp962
sV2190
p963
(dp964
sV2191
p965
(dp966
sV258
p967
(dp968
g111
g14
sg13
g14
sg34
g6
ssV259
p969
(dp970
g94
g6
sg373
g14
sg203
g14
sg9
g6
sg32
g6
ssV2194
p971
(dp972
g13
g14
ssV2195
p973
(dp974
g9
g6
ssV2196
p975
(dp976
sV2197
p977
(dp978
g26
g14
sg13
g14
ssV2198
p979
(dp980
sV2199
p981
(dp982
sV250
p983
(dp984
g744
g6
sg9
g14
sg324
g14
ssV256
p985
(dp986
g819
g14
sg126
g14
ssV257
p987
(dp988
g338
g6
ssV254
p989
(dp990
g126
g6
sg32
g14
ssV255
p991
(dp992
g429
g14
ssV2200
p993
(dp994
g96
g6
ssV2201
p995
(dp996
g104
g6
ssV2202
p997
(dp998
sV2203
p999
(dp1000
sV2204
p1001
(dp1002
g222
g6
sg9
g14
sVseat
p1003
g14
ssV2205
p1004
(dp1005
g94
g14
sg13
g14
ssV2206
p1006
(dp1007
g76
g6
sg308
g14
ssV2207
p1008
(dp1009
Vtables
p1010
g6
ssV2208
p1011
(dp1012
sV2209
p1013
(dp1014
g94
g14
sg819
g6
sg13
g14
sg32
g14
ssV2428
p1015
(dp1016
g94
g6
sg66
g14
sg95
g14
sg348
g6
ssV2429
p1017
(dp1018
g110
g14
sg13
g51
ssV2420
p1019
(dp1020
g13
g14
ssV2421
p1021
(dp1022
g94
g14
sVpiece
p1023
g14
ssV2422
p1024
(dp1025
g94
g14
sg631
g14
ssV2423
p1026
(dp1027
g596
g14
ssV2424
p1028
(dp1029
g13
g14
ssV2425
p1030
(dp1031
sV2426
p1032
(dp1033
g342
g6
sg34
g6
ssV2427
p1034
(dp1035
g23
g51
sg234
g51
sg13
g14
sg39
g6
ssV2432
p1036
(dp1037
Vguy
p1038
g51
sg13
g14
ssV2791
p1039
(dp1040
g244
g6
sVmushroom
p1041
g6
ssV168
p1042
(dp1043
sV169
p1044
(dp1045
g197
g51
sg32
g14
ssV164
p1046
(dp1047
g13
g14
ssV165
p1048
(dp1049
g94
g14
sg338
g14
sg120
g6
ssV166
p1050
(dp1051
g700
g6
sg601
g14
sg9
g14
ssV167
p1052
(dp1053
sV160
p1054
(dp1055
g751
g14
sg450
g6
sg33
g14
ssV161
p1056
(dp1057
g511
g14
sg32
g14
ssV162
p1058
(dp1059
g202
g14
sVgirlfriend
p1060
g14
sg120
g6
sg511
g14
sg168
g14
ssV163
p1061
(dp1062
g219
g14
sg343
g14
sg203
g6
ssV3689
p1063
(dp1064
g71
g6
sg139
g14
ssV3688
p1065
(dp1066
g1010
g14
sg96
g14
sg881
g14
sg32
g6
sg751
g14
sg398
g14
ssV3683
p1067
(dp1068
Vsandwich
p1069
g6
ssV3682
p1070
(dp1071
g484
g14
sg85
g6
sg116
g14
ssV3681
p1072
(dp1073
g94
g14
sg13
g14
ssV3680
p1074
(dp1075
g96
g14
sg373
g6
ssV3687
p1076
(dp1077
g34
g6
ssV3686
p1078
(dp1079
g96
g14
sg33
g14
ssV3685
p1080
(dp1081
g461
g14
ssV3684
p1082
(dp1083
g631
g6
ssV2514
p1084
(dp1085
g97
g6
sg126
g14
ssV2515
p1086
(dp1087
g151
g6
sg319
g6
sg13
g14
sg197
g6
ssV2516
p1088
(dp1089
g253
g6
sg171
g6
sg13
g14
sVThai place
p1090
g6
ssV2517
p1091
(dp1092
g94
g14
sg544
g14
sg9
g6
ssV2511
p1093
(dp1094
sV2512
p1095
(dp1096
g94
g14
sg12
g14
sg9
g51
ssV2513
p1097
(dp1098
g75
g14
sg104
g14
ssV2734
p1099
(dp1100
g94
g14
sg150
g6
sg591
g6
sg9
g6
ssV2735
p1101
(dp1102
g13
g6
ssV2736
p1103
(dp1104
g97
g6
sg18
g6
sg13
g14
ssV2737
p1105
(dp1106
g94
g14
sg630
g14
sg278
g14
sg9
g6
ssV2730
p1107
(dp1108
g111
g6
ssV2733
p1109
(dp1110
g43
g6
sg203
g14
ssV2738
p1111
(dp1112
g66
g14
sg32
g14
ssV2739
p1113
(dp1114
sV3531
p1115
(dp1116
g94
g14
sg119
g6
sg511
g14
ssV3530
p1117
(dp1118
g42
g14
sg508
g14
ssV3533
p1119
(dp1120
g13
g14
ssV3532
p1121
(dp1122
g32
g14
ssV3535
p1123
(dp1124
g94
g14
sg12
g14
sg630
g14
ssV3534
p1125
(dp1126
g461
g14
ssV3537
p1127
(dp1128
g32
g6
sg13
g14
sg33
g14
sg178
g6
sg34
g6
ssV3536
p1129
(dp1130
g165
g14
ssV3539
p1131
(dp1132
g43
g14
sg544
g14
sg111
g6
ssV3538
p1133
(dp1134
g325
g14
sg84
g14
sg32
g14
ssV1814
p1135
(dp1136
sV1815
p1137
(dp1138
sV1816
p1139
(dp1140
g95
g6
ssV1817
p1141
(dp1142
sV1811
p1143
(dp1144
g84
g6
sg33
g51
ssV1818
p1145
(dp1146
g178
g51
ssV1819
p1147
(dp1148
sV2795
p1149
(dp1150
sV671
p1151
(dp1152
g75
g6
sg172
g14
sg76
g14
sg22
g14
ssV1609
p1153
(dp1154
g178
g6
ssV1608
p1155
(dp1156
g165
g6
sg13
g14
sVlunch place
p1157
g6
sg47
g14
ssV3229
p1158
(dp1159
sV3228
p1160
(dp1161
g13
g14
ssV1979
p1162
(dp1163
g1023
g6
ssV1977
p1164
(dp1165
g85
g14
ssV1600
p1166
(dp1167
Vtomato
p1168
g6
sg71
g14
sg34
g14
sg150
g6
sg508
g14
sg47
g14
ssV3227
p1169
(dp1170
g484
g14
sg43
g14
sg32
g6
sg348
g6
ssV3226
p1171
(dp1172
g237
g14
sg602
g14
sg104
g14
sg175
g14
sg726
g14
ssV1605
p1173
(dp1174
g197
g6
sg47
g14
sg547
g6
sg139
g14
ssV1604
p1175
(dp1176
g43
g14
ssV3223
p1177
(dp1178
g32
g14
ssV1970
p1179
(dp1180
g591
g14
sg126
g51
sg34
g51
ssV1555
p1181
(dp1182
sV809
p1183
(dp1184
g234
g14
ssV808
p1185
(dp1186
sV803
p1187
(dp1188
g94
g14
sg13
g14
sg84
g6
ssV802
p1189
(dp1190
g547
g6
ssV801
p1191
(dp1192
g237
g14
ssV800
p1193
(dp1194
g94
g14
sVweek
p1195
g14
ssV1532
p1196
(dp1197
g629
g6
sVdining experience
p1198
g6
sg33
g14
ssV804
p1199
(dp1200
g1195
g6
sVrestaurant week
p1201
g6
sg32
g6
ssV2848
p1202
(dp1203
g94
g14
sg17
g14
ssV2849
p1204
(dp1205
sV2846
p1206
(dp1207
g94
g14
ssV2847
p1208
(dp1209
g751
g14
sg450
g14
sg116
g51
sg72
g14
ssV2844
p1210
(dp1211
g253
g6
sg18
g6
sg32
g14
ssV2845
p1212
(dp1213
g111
g6
sg34
g14
ssV2842
p1214
(dp1215
g629
g6
sg34
g14
ssV2843
p1216
(dp1217
g341
g6
sg450
g51
sg508
g14
ssV2840
p1218
(dp1219
sV2841
p1220
(dp1221
g94
g6
sg150
g14
sg83
g14
sg33
g6
sg666
g14
ssV3320
p1222
(dp1223
g94
g14
sg12
g51
sg630
g14
ssV3321
p1224
(dp1225
g133
g14
ssV3322
p1226
(dp1227
g9
g6
ssV3323
p1228
(dp1229
sV3324
p1230
(dp1231
g34
g14
ssV3325
p1232
(dp1233
g9
g6
ssV3326
p1234
(dp1235
sV3327
p1236
(dp1237
g94
g14
sg13
g14
ssV3328
p1238
(dp1239
g94
g14
ssV1777
p1240
(dp1241
sV1771
p1242
(dp1243
g26
g14
ssV1770
p1244
(dp1245
g26
g14
ssV1779
p1246
(dp1247
g183
g14
sg744
g14
sg116
g6
ssV1778
p1248
(dp1249
g338
g14
sg96
g14
ssV2998
p1250
(dp1251
g94
g14
sg13
g14
ssV1159
p1252
(dp1253
g202
g14
sg150
g6
sg43
g6
sg34
g14
ssV1158
p1254
(dp1255
g202
g14
sg94
g14
sg83
g51
sg32
g14
ssV2999
p1256
(dp1257
g46
g6
sg97
g14
ssV1155
p1258
(dp1259
g13
g14
ssV1154
p1260
(dp1261
sV1157
p1262
(dp1263
g66
g14
ssV1156
p1264
(dp1265
Vnight spot
p1266
g6
sg95
g6
sg348
g6
ssV1151
p1267
(dp1268
g13
g14
ssV1150
p1269
(dp1270
sV1153
p1271
(dp1272
sV1152
p1273
(dp1274
g549
g6
ssV59
p1275
(dp1276
g96
g14
ssV3039
p1277
(dp1278
g165
g6
sg32
g14
ssV1551
p1279
(dp1280
g83
g14
sg116
g6
ssV1550
p1281
(dp1282
g94
g6
ssV1553
p1283
(dp1284
g34
g6
ssV1552
p1285
(dp1286
g13
g14
ssV3038
p1287
(dp1288
g119
g14
ssV58
p1289
(dp1290
g94
g14
sg50
g51
sg398
g14
ssV1557
p1291
(dp1292
sV1556
p1293
(dp1294
g34
g14
ssV2990
p1295
(dp1296
g34
g6
ssV3035
p1297
(dp1298
g119
g14
sg32
g14
ssV2992
p1299
(dp1300
g13
g14
sg203
g14
ssV56
p1301
(dp1302
g13
g14
ssV51
p1303
(dp1304
g253
g6
sg84
g14
sg251
g51
sg34
g14
ssV2995
p1305
(dp1306
sV53
p1307
(dp1308
g94
g14
sg17
g14
sg398
g6
sVbar food
p1309
g6
sg34
g6
ssV3033
p1310
(dp1311
g591
g14
ssV537
p1312
(dp1313
g97
g6
sg18
g51
ssV3034
p1314
(dp1315
g461
g6
sg203
g14
ssV2804
p1316
(dp1317
g253
g6
ssV533
p1318
(dp1319
g695
g14
ssV532
p1320
(dp1321
g72
g14
ssV531
p1322
(dp1323
g94
g14
sg666
g6
ssV530
p1324
(dp1325
g197
g51
ssV57
p1326
(dp1327
g253
g6
sg32
g14
ssV539
p1328
(dp1329
g76
g6
sg32
g14
ssV538
p1330
(dp1331
g203
g14
ssV1976
p1332
(dp1333
sV1558
p1334
(dp1335
g72
g6
sg22
g14
sg32
g6
ssV2994
p1336
(dp1337
g85
g6
sg116
g51
ssV3294
p1338
(dp1339
sV1907
p1340
(dp1341
g94
g14
sg104
g6
sg343
g14
sg726
g14
ssV52
p1342
(dp1343
g13
g14
ssV3296
p1344
(dp1345
g203
g14
ssV1975
p1346
(dp1347
sV3297
p1348
(dp1349
sV536
p1350
(dp1351
sV1902
p1352
(dp1353
sV3291
p1354
(dp1355
sV429
p1356
(dp1357
g94
g6
sg171
g6
sg252
g6
ssV428
p1358
(dp1359
g94
g6
sg171
g6
sg34
g14
sg252
g6
sg324
g6
ssV3292
p1360
(dp1361
g134
g6
sg178
g6
ssV1399
p1362
(dp1363
g94
g14
sg183
g14
sg666
g6
ssV1398
p1364
(dp1365
g96
g6
sg9
g51
sg94
g14
sVbuffet
p1366
g14
sVchoice
p1367
g14
sg165
g6
sg43
g14
ssV423
p1368
(dp1369
g66
g14
sg171
g6
sg251
g14
ssV1394
p1370
(dp1371
g96
g14
ssV1393
p1372
(dp1373
g216
g14
sg580
g6
sg100
g14
ssV1392
p1374
(dp1375
g229
g6
sg171
g6
sg32
g14
ssV427
p1376
(dp1377
g94
g14
ssV426
p1378
(dp1379
sV854
p1380
(dp1381
g46
g14
ssV855
p1382
(dp1383
sV856
p1384
(dp1385
g341
g6
sg29
g6
sg100
g6
ssV857
p1386
(dp1387
g341
g14
sg1041
g6
ssV850
p1388
(dp1389
sV1971
p1390
(dp1391
sV3474
p1392
(dp1393
sV1424
p1394
(dp1395
g94
g6
sg84
g6
sg34
g14
ssV3475
p1396
(dp1397
g521
g6
ssV2183
p1398
(dp1399
g42
g14
sg19
g14
ssV2187
p1400
(dp1401
g695
g14
sg104
g6
sg168
g6
ssV2186
p1402
(dp1403
g18
g6
sg32
g14
ssV229
p1404
(dp1405
g5
g14
ssV228
p1406
(dp1407
sV227
p1408
(dp1409
sV226
p1410
(dp1411
g700
g6
ssV225
p1412
(dp1413
sV224
p1414
(dp1415
g94
g14
sg9
g51
ssV223
p1416
(dp1417
sV222
p1418
(dp1419
g32
g14
ssV221
p1420
(dp1421
g253
g6
ssV220
p1422
(dp1423
g700
g6
sg134
g6
sg9
g14
ssV2213
p1424
(dp1425
g13
g14
ssV2212
p1426
(dp1427
g171
g51
sg13
g14
ssV2211
p1428
(dp1429
sV2210
p1430
(dp1431
g216
g14
sg94
g14
sg591
g14
sg197
g14
ssV2217
p1432
(dp1433
sV2216
p1434
(dp1435
g13
g51
sg234
g6
sg308
g14
sg85
g14
ssV2215
p1436
(dp1437
g208
g14
sg94
g14
sg134
g6
sg429
g14
sg12
g6
ssV2214
p1438
(dp1439
g66
g14
sg511
g6
sg32
g14
ssV2219
p1440
(dp1441
sV2218
p1442
(dp1443
g94
g14
sg234
g14
sg544
g14
sg906
g6
ssV151
p1444
(dp1445
g94
g14
sg630
g14
sg13
g14
sg234
g14
ssV150
p1446
(dp1447
g13
g14
ssV2439
p1448
(dp1449
g461
g14
sg13
g6
sg39
g6
ssV152
p1450
(dp1451
g9
g51
ssV154
p1452
(dp1453
sV2433
p1454
(dp1455
g94
g6
sg85
g14
sg197
g14
ssV158
p1456
(dp1457
g219
g14
sg139
g6
ssV2431
p1458
(dp1459
sV2437
p1460
(dp1461
sV2436
p1462
(dp1463
sV2435
p1464
(dp1465
sV2434
p1466
(dp1467
g13
g51
ssV2508
p1468
(dp1469
sV2507
p1470
(dp1471
g94
g14
ssV2506
p1472
(dp1473
g34
g14
ssV2503
p1474
(dp1475
g13
g14
sg348
g6
ssV2502
p1476
(dp1477
g83
g6
ssV2501
p1478
(dp1479
g178
g6
ssV2500
p1480
(dp1481
g858
g51
sg17
g14
ssV2727
p1482
(dp1483
g631
g14
ssV2726
p1484
(dp1485
sV2723
p1486
(dp1487
sV2722
p1488
(dp1489
sV2721
p1490
(dp1491
g253
g6
sg175
g6
ssV1712
p1492
(dp1493
g13
g14
ssV125
p1494
(dp1495
sV1805
p1496
(dp1497
g197
g6
ssV1804
p1498
(dp1499
sV1803
p1500
(dp1501
g32
g51
ssV1800
p1502
(dp1503
g107
g51
sg307
g51
sg357
g6
sg324
g14
ssV1808
p1504
(dp1505
g119
g14
sg9
g14
ssV3258
p1506
(dp1507
g97
g6
sg18
g6
sg111
g51
ssV3259
p1508
(dp1509
g94
g6
ssV1948
p1510
(dp1511
g341
g6
sg151
g6
sg319
g6
sg94
g14
sg666
g14
ssV1949
p1512
(dp1513
g398
g6
sg209
g6
ssV3250
p1514
(dp1515
g703
g14
ssV3251
p1516
(dp1517
sV1940
p1518
(dp1519
g116
g51
ssV1941
p1520
(dp1521
sV3254
p1522
(dp1523
g94
g14
sg197
g51
ssV1947
p1524
(dp1525
g94
g14
sg744
g14
sg116
g14
ssV3256
p1526
(dp1527
VChinatown restaurants
p1528
g6
sg565
g6
sg111
g6
ssV1945
p1529
(dp1530
g94
g14
sg13
g14
sg97
g6
sg9
g51
ssV818
p1531
(dp1532
g13
g14
sg398
g6
ssV810
p1533
(dp1534
g43
g14
sg84
g6
sg348
g14
ssV811
p1535
(dp1536
g13
g14
ssV812
p1537
(dp1538
g94
g14
sg751
g14
sg357
g14
ssV813
p1539
(dp1540
g244
g14
sg120
g6
ssV814
p1541
(dp1542
g94
g14
ssV817
p1543
(dp1544
g751
g14
ssV2859
p1545
(dp1546
g341
g6
ssV3207
p1547
(dp1548
g175
g14
ssV1250
p1549
(dp1550
g42
g14
sg511
g14
ssV3206
p1551
(dp1552
g484
g6
ssV2851
p1553
(dp1554
sV2850
p1555
(dp1556
g208
g14
sg94
g14
sg9
g6
ssV2853
p1557
(dp1558
g13
g14
ssV2852
p1559
(dp1560
sV2855
p1561
(dp1562
g94
g14
sg9
g6
ssV3205
p1563
(dp1564
g29
g14
sg744
g14
sg9
g51
ssV2856
p1565
(dp1566
g1010
g6
ssV1490
p1567
(dp1568
sV3332
p1569
(dp1570
g75
g6
sg544
g6
ssV1492
p1571
(dp1572
g13
g14
ssV1493
p1573
(dp1574
g183
g14
sg1038
g14
sg47
g14
ssV1494
p1575
(dp1576
g17
g14
sg100
g14
sg85
g14
ssV1495
p1577
(dp1578
Vdeli
p1579
g14
ssV3335
p1580
(dp1581
g94
g14
sg508
g14
ssV1497
p1582
(dp1583
g343
g6
ssV3203
p1584
(dp1585
g858
g6
sg26
g6
sg32
g14
ssV3339
p1586
(dp1587
g32
g14
ssV1395
p1588
(dp1589
sV3202
p1590
(dp1591
g26
g6
sg1367
g14
ssV1700
p1592
(dp1593
g32
g14
ssV1701
p1594
(dp1595
g116
g14
ssV1702
p1596
(dp1597
g94
g14
sg234
g14
ssV422
p1598
(dp1599
g13
g14
ssV1704
p1600
(dp1601
g94
g14
ssV3201
p1602
(dp1603
g94
g14
sg9
g6
ssV1706
p1604
(dp1605
g518
g51
sg84
g6
sg203
g14
ssV1707
p1606
(dp1607
g13
g6
sg43
g6
sg84
g14
ssV1708
p1608
(dp1609
g46
g6
sg43
g14
sg34
g6
ssV1709
p1610
(dp1611
g94
g14
ssV3200
p1612
(dp1613
sV424
p1614
(dp1615
g858
g6
ssV3658
p1616
(dp1617
sV3659
p1618
(dp1619
g32
g6
ssV1128
p1620
(dp1621
sV1129
p1622
(dp1623
g94
g14
ssV1120
p1624
(dp1625
g171
g6
sg172
g6
sg126
g14
sg100
g6
ssV1123
p1626
(dp1627
g183
g14
sg896
g6
sg897
g6
sg348
g6
ssV1124
p1628
(dp1629
g343
g14
ssV1125
p1630
(dp1631
g197
g6
ssV1126
p1632
(dp1633
sV1127
p1634
(dp1635
g94
g14
sg32
g14
ssV2989
p1636
(dp1637
g450
g6
sg521
g14
ssV2988
p1638
(dp1639
g219
g14
sg343
g14
sg203
g14
ssV3029
p1640
(dp1641
Vyear
p1642
g6
ssV2983
p1643
(dp1644
g96
g6
sg9
g6
ssV3026
p1645
(dp1646
g630
g14
sg9
g6
ssV3025
p1647
(dp1648
sV3024
p1649
(dp1650
g26
g14
sg203
g6
ssV2987
p1651
(dp1652
g94
g14
sg96
g14
ssV3022
p1653
(dp1654
g83
g14
sg631
g6
sg32
g14
ssV3021
p1655
(dp1656
g116
g14
ssV2984
p1657
(dp1658
g43
g6
ssV524
p1659
(dp1660
g96
g14
ssV527
p1661
(dp1662
g43
g6
sg95
g14
sg168
g14
ssV1018
p1663
(dp1664
g94
g6
sg9
g14
ssV1019
p1665
(dp1666
sV523
p1667
(dp1668
g103
g14
sg104
g6
ssV1014
p1669
(dp1670
g96
g14
ssV1015
p1671
(dp1672
g13
g14
sg84
g6
sg168
g51
ssV1017
p1673
(dp1674
g94
g14
sg9
g51
ssV1010
p1675
(dp1676
sV1011
p1677
(dp1678
g94
g6
sg110
g14
ssV1012
p1679
(dp1680
sV1013
p1681
(dp1682
g150
g6
sg13
g14
ssV1236
p1683
(dp1684
g601
g14
sg133
g6
ssV1237
p1685
(dp1686
g695
g6
ssV1231
p1687
(dp1688
Vbagel
p1689
g6
sg66
g14
ssV1232
p1690
(dp1691
g94
g6
sg165
g6
ssV1233
p1692
(dp1693
sV1238
p1694
(dp1695
sV1239
p1696
(dp1697
sV438
p1698
(dp1699
g47
g14
ssV439
p1700
(dp1701
sV433
p1702
(dp1703
sV430
p1704
(dp1705
g94
g6
sg237
g6
sg252
g6
sVmom
p1706
g6
sg171
g6
sg111
g14
ssV1966
p1707
(dp1708
g429
g6
sg13
g14
sg43
g14
sg84
g6
sg76
g6
ssV559
p1709
(dp1710
g357
g6
sg203
g6
ssV1967
p1711
(dp1712
g150
g14
sg666
g14
ssV3162
p1713
(dp1714
g1689
g14
sg484
g6
ssV994
p1715
(dp1716
sV3064
p1717
(dp1718
sV2466
p1719
(dp1720
g13
g14
sVgirls
p1721
g6
sg348
g14
ssV238
p1722
(dp1723
g94
g14
ssV239
p1724
(dp1725
g237
g6
ssV2460
p1726
(dp1727
sV236
p1728
(dp1729
g151
g6
sg461
g6
ssV237
p1730
(dp1731
g42
g51
sg29
g14
ssV230
p1732
(dp1733
g1642
g14
ssV231
p1734
(dp1735
g202
g14
sg94
g6
sg556
g6
ssV232
p1736
(dp1737
g13
g14
ssV233
p1738
(dp1739
g94
g6
sg178
g6
ssV909
p1740
(dp1741
g150
g6
sg17
g14
ssV2228
p1742
(dp1743
sV2229
p1744
(dp1745
sV2226
p1746
(dp1747
g94
g6
sg234
g14
sg120
g14
ssV2227
p1748
(dp1749
g100
g6
ssV2224
p1750
(dp1751
g22
g14
sg511
g14
sg731
g6
ssV2225
p1752
(dp1753
g13
g14
sg906
g6
ssV2222
p1754
(dp1755
g120
g6
sg100
g14
ssV2223
p1756
(dp1757
g94
g14
ssV2220
p1758
(dp1759
sV2221
p1760
(dp1761
sV3217
p1762
(dp1763
g26
g51
ssV147
p1764
(dp1765
g66
g14
sg13
g14
ssV142
p1766
(dp1767
sV140
p1768
(dp1769
g172
g14
ssV141
p1770
(dp1771
g216
g14
sg18
g14
ssV999
p1772
(dp1773
g110
g14
ssV148
p1774
(dp1775
g22
g6
sg100
g14
ssV149
p1776
(dp1777
g165
g14
sg511
g6
ssV120
p1778
(dp1779
g151
g6
ssV2088
p1780
(dp1781
sV2089
p1782
(dp1783
g630
g51
ssV121
p1784
(dp1785
sV2082
p1786
(dp1787
sV2083
p1788
(dp1789
Vsum
p1790
g14
ssV2080
p1791
(dp1792
sV2081
p1793
(dp1794
g12
g6
ssV2086
p1795
(dp1796
g100
g14
ssV2087
p1797
(dp1798
g751
g6
ssV2084
p1799
(dp1800
g119
g14
sg1790
g14
sg100
g6
ssV2085
p1801
(dp1802
g34
g14
ssV3342
p1803
(dp1804
sV2538
p1805
(dp1806
g94
g14
ssV2539
p1807
(dp1808
g521
g6
sg398
g14
ssV1190
p1809
(dp1810
g9
g14
sg596
g6
ssV2532
p1811
(dp1812
g461
g14
ssV2533
p1813
(dp1814
g126
g14
ssV2536
p1815
(dp1816
g373
g14
ssV1193
p1817
(dp1818
sV2534
p1819
(dp1820
sV2535
p1821
(dp1822
g34
g6
ssV2712
p1823
(dp1824
g175
g14
sg197
g6
ssV2713
p1825
(dp1826
g66
g14
sg251
g14
sg34
g14
ssV2710
p1827
(dp1828
sV1192
p1829
(dp1830
g858
g6
sg26
g14
sg508
g14
ssV2716
p1831
(dp1832
g1195
g14
sg1201
g6
sg32
g6
ssV2717
p1833
(dp1834
sV2714
p1835
(dp1836
g17
g14
ssV2715
p1837
(dp1838
g29
g6
sg26
g14
ssV2718
p1839
(dp1840
g96
g6
sg203
g14
ssV3093
p1841
(dp1842
sV130
p1843
(dp1844
g9
g6
ssV3409
p1845
(dp1846
g13
g14
sg348
g14
ssV3344
p1847
(dp1848
g629
g14
sg197
g14
ssV3408
p1849
(dp1850
g111
g6
ssV3345
p1851
(dp1852
g150
g6
sg47
g14
ssV1832
p1853
(dp1854
g84
g6
ssV1830
p1855
(dp1856
sV1831
p1857
(dp1858
sV1836
p1859
(dp1860
g9
g6
ssV1837
p1861
(dp1862
g9
g14
ssV1835
p1863
(dp1864
g219
g14
sg197
g6
ssV1838
p1865
(dp1866
sV1839
p1867
(dp1868
sV2154
p1869
(dp1870
sV2155
p1871
(dp1872
g547
g14
ssV2404
p1873
(dp1874
g13
g14
ssV2405
p1875
(dp1876
g94
g14
sg12
g51
ssV2150
p1877
(dp1878
g521
g6
ssV2403
p1879
(dp1880
g165
g6
ssV2400
p1881
(dp1882
g508
g14
sg547
g14
ssV2153
p1883
(dp1884
VCity
p1885
g6
sg319
g6
sg219
g14
sg151
g6
ssV932
p1886
(dp1887
g308
g14
sg139
g14
ssV931
p1888
(dp1889
g308
g14
sg726
g14
ssV930
p1890
(dp1891
sV2158
p1892
(dp1893
g1689
g6
sg150
g6
ssV2159
p1894
(dp1895
g556
g6
ssV2408
p1896
(dp1897
g348
g6
ssV2409
p1898
(dp1899
g9
g6
ssV136
p1900
(dp1901
g23
g6
ssV1955
p1902
(dp1903
sV1991
p1904
(dp1905
g94
g14
sg429
g14
sg819
g14
ssV1957
p1906
(dp1907
sV1956
p1908
(dp1909
g234
g51
sg175
g14
ssV1951
p1910
(dp1911
g76
g6
sg32
g14
ssV1950
p1912
(dp1913
g703
g14
sg348
g14
ssV1953
p1914
(dp1915
sV1952
p1916
(dp1917
g94
g14
sg9
g6
ssV1959
p1918
(dp1919
g398
g14
sg85
g14
ssV1958
p1920
(dp1921
g134
g14
sg103
g14
ssV3249
p1922
(dp1923
g94
g14
sg858
g14
sg32
g14
ssV3248
p1924
(dp1925
g42
g14
ssV3243
p1926
(dp1927
g450
g6
sg107
g6
sg203
g14
ssV3242
p1928
(dp1929
sV3241
p1930
(dp1931
g29
g14
ssV3247
p1932
(dp1933
sV3246
p1934
(dp1935
g565
g6
ssV3245
p1936
(dp1937
sV1990
p1938
(dp1939
g126
g51
ssV828
p1940
(dp1941
g703
g14
sVview
p1942
g6
sg34
g14
sg76
g14
sg348
g14
ssV825
p1943
(dp1944
sV824
p1945
(dp1946
sV827
p1947
(dp1948
sV826
p1949
(dp1950
g32
g14
ssV823
p1951
(dp1952
g165
g6
ssV822
p1953
(dp1954
g325
g51
sg518
g51
ssV1993
p1955
(dp1956
g731
g51
ssV1483
p1957
(dp1958
g183
g14
ssV1482
p1959
(dp1960
g251
g51
ssV1481
p1961
(dp1962
g119
g14
ssV1480
p1963
(dp1964
sV1487
p1965
(dp1966
g508
g14
sg47
g14
ssV1486
p1967
(dp1968
g34
g6
ssV1485
p1969
(dp1970
sV1484
p1971
(dp1972
g631
g6
ssV3306
p1973
(dp1974
sV3304
p1975
(dp1976
g151
g6
ssV1488
p1977
(dp1978
g18
g14
sg251
g14
sg47
g51
ssV3302
p1979
(dp1980
g9
g6
sg116
g14
ssV3303
p1981
(dp1982
sV797
p1983
(dp1984
g17
g14
ssV928
p1985
(dp1986
g208
g6
sg94
g14
ssV1711
p1987
(dp1988
g94
g14
sg12
g14
ssV1710
p1989
(dp1990
g94
g14
sg12
g6
sg13
g14
sg751
g14
sg126
g14
ssV1717
p1991
(dp1992
g83
g6
ssV792
p1993
(dp1994
g341
g14
sg183
g6
ssV791
p1995
(dp1996
g76
g14
ssV2410
p1997
(dp1998
g357
g14
sg85
g14
ssV1719
p1999
(dp2000
sV1718
p2001
(dp2002
g94
g14
sg630
g14
sg9
g14
ssV2413
p2003
(dp2004
g94
g14
ssV799
p2005
(dp2006
g94
g14
ssV798
p2007
(dp2008
sV612
p2009
(dp2010
g50
g6
sg521
g6
sg13
g14
ssV2412
p2011
(dp2012
g17
g6
ssV1271
p2013
(dp2014
g22
g14
ssV2415
p2015
(dp2016
g13
g14
sg168
g6
ssV1272
p2017
(dp2018
g94
g14
sg544
g6
ssV2414
p2019
(dp2020
g94
g6
sg251
g6
sg100
g51
ssV1139
p2021
(dp2022
g83
g6
ssV1138
p2023
(dp2024
g160
g14
ssV2141
p2025
(dp2026
sV3051
p2027
(dp2028
g13
g14
ssV1133
p2029
(dp2030
g43
g14
ssV1995
p2031
(dp2032
g858
g6
ssV1131
p2033
(dp2034
g1195
g6
sg150
g6
sg203
g6
sg97
g6
sg34
g6
ssV1130
p2035
(dp2036
g13
g14
sg175
g14
ssV1275
p2037
(dp2038
sV2419
p2039
(dp2040
sV1276
p2041
(dp2042
g461
g51
sg126
g14
ssV2418
p2043
(dp2044
sV1277
p2045
(dp2046
sV2062
p2047
(dp2048
g165
g6
ssV3018
p2049
(dp2050
sV3019
p2051
(dp2052
g398
g14
sg26
g6
sg197
g14
sg341
g6
sg858
g6
sg203
g14
ssV1994
p2053
(dp2054
g94
g51
ssV3012
p2055
(dp2056
g26
g14
sg631
g14
ssV3013
p2057
(dp2058
g32
g14
ssV3011
p2059
(dp2060
g119
g6
sVsea
p2061
g6
ssV3016
p2062
(dp2063
g278
g6
ssV3017
p2064
(dp2065
g75
g14
sg50
g6
sg13
g14
sg43
g14
sg104
g6
ssV3014
p2066
(dp2067
sV3015
p2068
(dp2069
g278
g6
sg219
g14
ssV519
p2070
(dp2071
g695
g14
sg104
g14
ssV518
p2072
(dp2073
g9
g51
sg32
g6
ssV926
p2074
(dp2075
sV1009
p2076
(dp2077
g94
g14
sg9
g6
ssV1008
p2078
(dp2079
g17
g6
sg219
g14
sg33
g14
ssV1007
p2080
(dp2081
VDim Sum
p2082
g6
ssV1006
p2083
(dp2084
g2082
g6
sg251
g6
ssV1005
p2085
(dp2086
g18
g6
sg251
g51
ssV512
p2087
(dp2088
g1706
g51
ssV1003
p2089
(dp2090
sV1002
p2091
(dp2092
g94
g14
sg1942
g14
ssV1001
p2093
(dp2094
g13
g14
ssV1000
p2095
(dp2096
g94
g14
sg100
g14
sg168
g6
ssV623
p2097
(dp2098
sV1226
p2099
(dp2100
g186
g6
ssV621
p2101
(dp2102
g43
g14
ssV620
p2103
(dp2104
g216
g14
sg94
g14
ssV627
p2105
(dp2106
g76
g6
sg43
g6
sg398
g14
ssV626
p2107
(dp2108
g13
g14
sg168
g51
ssV625
p2109
(dp2110
VJekyll
p2111
g6
sg203
g14
sg348
g14
ssV624
p2112
(dp2113
sV629
p2114
(dp2115
g630
g14
sg13
g14
ssV628
p2116
(dp2117
g94
g14
sg501
g14
sg168
g6
ssV1228
p2118
(dp2119
g71
g6
sg1069
g14
ssV2882
p2120
(dp2121
sV2883
p2122
(dp2123
sV2880
p2124
(dp2125
g18
g6
sg251
g51
sg34
g14
ssV2881
p2126
(dp2127
g94
g14
sg186
g6
sg83
g6
sg666
g14
ssV2886
p2128
(dp2129
g94
g14
sg1195
g14
ssV2887
p2130
(dp2131
g94
g6
sg42
g6
ssV2884
p2132
(dp2133
g208
g14
sg94
g14
ssV2885
p2134
(dp2135
sV2888
p2136
(dp2137
sV2889
p2138
(dp2139
sV3276
p2140
(dp2141
g9
g6
ssV15
p2142
(dp2143
g84
g6
ssV14
p2144
(dp2145
g116
g6
sg13
g14
sg34
g14
ssV16
p2146
(dp2147
g703
g6
sg85
g14
sg398
g14
sg33
g14
sg348
g6
ssV3274
p2148
(dp2149
g772
g6
sg5
g14
ssV1923
p2150
(dp2151
sV2959
p2152
(dp2153
sV1925
p2154
(dp2155
sV929
p2156
(dp2157
g66
g14
sg1942
g14
sg17
g14
ssV2742
p2158
(dp2159
sV3192
p2160
(dp2161
sV201
p2162
(dp2163
g94
g14
sg234
g14
sg103
g6
sg104
g6
ssV200
p2164
(dp2165
g518
g6
ssV202
p2166
(dp2167
sV205
p2168
(dp2169
g9
g6
ssV204
p2170
(dp2171
g429
g6
sg76
g14
sg95
g51
sg107
g6
sg556
g14
ssV206
p2172
(dp2173
g94
g14
sg237
g14
ssV209
p2174
(dp2175
g202
g51
sg76
g6
sg13
g14
ssV208
p2176
(dp2177
sV1573
p2178
(dp2179
g203
g14
ssV3477
p2180
(dp2181
g94
g6
sg96
g51
sg95
g14
ssV836
p2182
(dp2183
sV1571
p2184
(dp2185
sV3471
p2186
(dp2187
sV2239
p2188
(dp2189
g94
g14
sg461
g14
sg13
g14
sg596
g14
ssV2238
p2190
(dp2191
sV1570
p2192
(dp2193
g94
g14
sg34
g6
ssV3472
p2194
(dp2195
g76
g14
sg357
g14
sg197
g51
ssV998
p2196
(dp2197
g32
g14
ssV2230
p2198
(dp2199
g94
g14
ssV2233
p2200
(dp2201
g234
g14
ssV3473
p2202
(dp2203
sV2235
p2204
(dp2205
g253
g6
sg171
g6
sg111
g6
sg34
g14
ssV2234
p2206
(dp2207
sV2237
p2208
(dp2209
g171
g6
ssV2236
p2210
(dp2211
g94
g14
ssV682
p2212
(dp2213
sV3499
p2214
(dp2215
g75
g14
ssV3496
p2216
(dp2217
sV3494
p2218
(dp2219
g47
g51
ssV3495
p2220
(dp2221
sV3492
p2222
(dp2223
g244
g14
ssV3493
p2224
(dp2225
g9
g6
ssV3490
p2226
(dp2227
g666
g14
sg32
g14
ssV3491
p2228
(dp2229
g94
g14
ssV2095
p2230
(dp2231
g172
g51
ssV2094
p2232
(dp2233
sV2097
p2234
(dp2235
g216
g6
ssV2096
p2236
(dp2237
g251
g14
ssV2091
p2238
(dp2239
g1023
g14
ssV2090
p2240
(dp2241
g1790
g6
ssV2093
p2242
(dp2243
sV2092
p2244
(dp2245
sV3654
p2246
(dp2247
g216
g14
sg94
g14
ssV3655
p2248
(dp2249
sV3650
p2250
(dp2251
sV2098
p2252
(dp2253
g9
g6
ssV3652
p2254
(dp2255
sV3653
p2256
(dp2257
g150
g6
sg84
g6
sg511
g6
ssV2525
p2258
(dp2259
g13
g14
sg631
g14
ssV2524
p2260
(dp2261
g13
g14
ssV2526
p2262
(dp2263
g12
g6
sg357
g6
sg324
g14
ssV2521
p2264
(dp2265
g94
g14
sg858
g6
sg9
g6
ssV2520
p2266
(dp2267
g13
g14
ssV2523
p2268
(dp2269
g94
g14
ssV2522
p2270
(dp2271
sV2529
p2272
(dp2273
g398
g14
ssV2709
p2274
(dp2275
g111
g6
ssV2708
p2276
(dp2277
g94
g14
ssV2705
p2278
(dp2279
sV2704
p2280
(dp2281
sV2707
p2282
(dp2283
sV2706
p2284
(dp2285
g5
g6
ssV2701
p2286
(dp2287
g94
g6
sg178
g6
ssV2700
p2288
(dp2289
g76
g6
sg511
g6
ssV2703
p2290
(dp2291
sV2702
p2292
(dp2293
g139
g14
ssV1829
p2294
(dp2295
sV1828
p2296
(dp2297
Vpie
p2298
g51
ssV1825
p2299
(dp2300
g34
g6
ssV1824
p2301
(dp2302
sV1827
p2303
(dp2304
g94
g14
ssV1826
p2305
(dp2306
g151
g6
sg319
g6
sg18
g51
ssV1821
p2307
(dp2308
g97
g14
ssV1820
p2309
(dp2310
g186
g14
sg13
g6
ssV1823
p2311
(dp2312
g47
g14
ssV1822
p2313
(dp2314
g234
g14
ssV2147
p2315
(dp2316
g13
g14
sg175
g14
ssV2146
p2317
(dp2318
g94
g14
sg186
g6
sg96
g14
sg116
g14
ssV2145
p2319
(dp2320
sV2144
p2321
(dp2322
sV2143
p2323
(dp2324
sV2142
p2325
(dp2326
g858
g6
ssV2417
p2327
(dp2328
g46
g14
sg18
g51
ssV2416
p2329
(dp2330
g253
g6
sg111
g14
sg209
g6
ssV920
p2331
(dp2332
g94
g14
ssV921
p2333
(dp2334
g13
g14
ssV922
p2335
(dp2336
g83
g6
sg9
g6
ssV923
p2337
(dp2338
sV924
p2339
(dp2340
g175
g6
sg107
g51
ssV925
p2341
(dp2342
g9
g6
ssV2149
p2343
(dp2344
g94
g14
ssV2148
p2345
(dp2346
sV3669
p2347
(dp2348
g85
g6
ssV2411
p2349
(dp2350
g744
g14
ssV1920
p2351
(dp2352
g772
g6
sg773
g6
sg209
g6
ssV1921
p2353
(dp2354
g94
g14
sg116
g6
ssV1922
p2355
(dp2356
g9
g14
sg111
g6
ssV3275
p2357
(dp2358
g343
g14
ssV3272
p2359
(dp2360
sV3273
p2361
(dp2362
sV1926
p2363
(dp2364
g348
g14
sg209
g6
ssV1927
p2365
(dp2366
sV1928
p2367
(dp2368
sV1929
p2369
(dp2370
g94
g14
sg9
g6
ssV3278
p2371
(dp2372
g94
g14
sg23
g6
sg32
g14
ssV3279
p2373
(dp2374
g12
g6
sg126
g14
ssV832
p2375
(dp2376
g94
g6
ssV833
p2377
(dp2378
g95
g51
ssV3476
p2379
(dp2380
g13
g14
ssV831
p2381
(dp2382
g94
g14
sg1942
g14
ssV3470
p2383
(dp2384
g96
g14
ssV837
p2385
(dp2386
g208
g14
sg5
g6
ssV834
p2387
(dp2388
g83
g6
ssV835
p2389
(dp2390
g94
g14
sg165
g6
ssV838
p2391
(dp2392
g13
g14
ssV839
p2393
(dp2394
g13
g14
ssV3478
p2395
(dp2396
sV3479
p2397
(dp2398
sV3
p2399
(dp2400
g858
g14
sg13
g14
sg9
g6
sg116
g14
ssV2937
p2401
(dp2402
g703
g14
sg348
g14
ssV3319
p2403
(dp2404
g601
g14
sg13
g6
sg9
g6
ssV3318
p2405
(dp2406
g76
g6
ssV3313
p2407
(dp2408
sV3315
p2409
(dp2410
g94
g14
sg234
g51
sg9
g14
ssV3314
p2411
(dp2412
g548
g14
sg134
g14
sg1942
g6
ssV3317
p2413
(dp2414
g66
g6
sg906
g6
sg1942
g14
ssV3316
p2415
(dp2416
g450
g14
ssV784
p2417
(dp2418
g13
g14
sg518
g51
sg1010
g14
ssV785
p2419
(dp2420
sV780
p2421
(dp2422
sV781
p2423
(dp2424
g13
g14
ssV1728
p2425
(dp2426
g13
g14
ssV1729
p2427
(dp2428
sV1727
p2429
(dp2430
g119
g14
sg897
g6
ssV1724
p2431
(dp2432
g96
g6
sg819
g14
sg348
g14
ssV788
p2433
(dp2434
g13
g6
ssV1723
p2435
(dp2436
g94
g14
sg1168
g6
sg508
g14
ssV1720
p2437
(dp2438
sV1721
p2439
(dp2440
g66
g14
sg1642
g14
sg348
g14
ssV153
p2441
(dp2442
g94
g6
sg66
g14
sVfood places
p2443
g6
sg251
g14
sg34
g14
ssV3005
p2444
(dp2445
g26
g6
sg398
g14
ssV61
p2446
(dp2447
g165
g14
sg43
g6
sg84
g14
sg95
g51
sg168
g14
ssV62
p2448
(dp2449
g50
g14
sg881
g14
ssV2438
p2450
(dp2451
sV3001
p2452
(dp2453
g116
g14
ssV3000
p2454
(dp2455
g33
g14
ssV3003
p2456
(dp2457
g29
g6
sg26
g6
sg341
g14
sg2061
g6
sg1023
g14
sg508
g14
ssV3002
p2458
(dp2459
g26
g14
ssV407
p2460
(dp2461
g26
g14
ssV406
p2462
(dp2463
sV1582
p2464
(dp2465
sV1583
p2466
(dp2467
sV1580
p2468
(dp2469
g151
g6
sg319
g6
sg116
g14
ssV1581
p2470
(dp2471
g1885
g6
sg203
g6
ssV1586
p2472
(dp2473
sV405
p2474
(dp2475
g26
g14
sg2061
g6
sg32
g14
ssV1584
p2476
(dp2477
sV1585
p2478
(dp2479
sV159
p2480
(dp2481
g94
g14
ssV1038
p2482
(dp2483
g175
g51
sg9
g6
ssV1039
p2484
(dp2485
g630
g14
ssV508
p2486
(dp2487
g83
g14
sg631
g14
ssV509
p2488
(dp2489
g178
g6
ssV1032
p2490
(dp2491
g29
g51
sg23
g6
sg602
g6
sg9
g14
ssV1375
p2492
(dp2493
sV504
p2494
(dp2495
g94
g14
sg103
g14
sg104
g6
ssV1031
p2496
(dp2497
g94
g14
sg96
g6
sg13
g14
sg9
g51
ssV502
p2498
(dp2499
g94
g14
sg348
g6
ssV503
p2500
(dp2501
g178
g6
ssV1034
p2502
(dp2503
g26
g14
sg9
g6
ssV501
p2504
(dp2505
g253
g6
sg103
g14
ssV1212
p2506
(dp2507
g186
g6
sg13
g14
ssV1213
p2508
(dp2509
g94
g14
sg631
g6
sg9
g6
sg324
g14
ssV1210
p2510
(dp2511
g46
g14
sg39
g6
ssV1211
p2512
(dp2513
g66
g14
ssV634
p2514
(dp2515
g94
g6
sg12
g6
sg23
g6
sg9
g14
ssV635
p2516
(dp2517
g151
g6
sg319
g6
ssV1214
p2518
(dp2519
g110
g14
sg324
g51
ssV637
p2520
(dp2521
g629
g6
sg75
g14
ssV638
p2522
(dp2523
g94
g14
sg12
g6
ssV639
p2524
(dp2525
sV1218
p2526
(dp2527
g1689
g6
sg237
g6
sg96
g14
sg13
g14
sg357
g6
ssV1376
p2528
(dp2529
g1195
g14
ssV989
p2530
(dp2531
g9
g6
sg1942
g14
ssV782
p2532
(dp2533
g94
g14
sg9
g51
ssV2899
p2534
(dp2535
g175
g14
ssV2898
p2536
(dp2537
g237
g14
sg342
g6
sg616
g6
ssV2895
p2538
(dp2539
g39
g14
sg700
g14
sg629
g6
sg13
g14
sg33
g14
sg1198
g6
ssV2894
p2540
(dp2541
g94
g14
sg13
g14
ssV2897
p2542
(dp2543
g1885
g6
sg630
g6
sg32
g14
sg94
g14
sg744
g6
sg319
g6
sg151
g6
ssV2896
p2544
(dp2545
g94
g14
sg43
g14
sg744
g14
ssV2891
p2546
(dp2547
g94
g6
sg1198
g6
sg33
g6
sg666
g14
sg629
g6
sg23
g6
sg104
g6
ssV2890
p2548
(dp2549
g253
g6
sg32
g14
ssV2893
p2550
(dp2551
g116
g14
sg518
g14
sg897
g6
sg5
g14
ssV2892
p2552
(dp2553
g601
g6
sg518
g6
sg116
g14
ssV1454
p2554
(dp2555
g202
g14
sg17
g6
ssV1455
p2556
(dp2557
g1885
g6
sg32
g14
sg18
g6
sg319
g6
sg151
g6
ssV1456
p2558
(dp2559
g94
g6
sg33
g14
sg629
g6
sg12
g51
sg1198
g6
sg111
g14
ssV1457
p2560
(dp2561
g278
g14
sg219
g14
sg34
g6
ssV1102
p2562
(dp2563
g203
g14
ssV1103
p2564
(dp2565
g338
g6
sg43
g14
ssV1100
p2566
(dp2567
g9
g6
sg197
g51
ssV1101
p2568
(dp2569
g75
g14
sg104
g6
ssV1458
p2570
(dp2571
g216
g14
sg42
g6
sg18
g6
sg601
g6
ssV1459
p2572
(dp2573
g511
g14
sg34
g51
ssV1108
p2574
(dp2575
sV1109
p2576
(dp2577
g66
g14
ssV1722
p2578
(dp2579
g429
g6
sg819
g14
sg126
g6
sg85
g6
sg116
g14
ssV789
p2580
(dp2581
g338
g14
sg17
g14
sg34
g14
ssV1357
p2582
(dp2583
g95
g51
ssV1576
p2584
(dp2585
g13
g14
ssV2136
p2586
(dp2587
sV958
p2588
(dp2589
g104
g6
sg34
g14
ssV2794
p2590
(dp2591
g121
g6
ssV3070
p2592
(dp2593
sV216
p2594
(dp2595
g95
g14
ssV217
p2596
(dp2597
g348
g14
ssV214
p2598
(dp2599
sV215
p2600
(dp2601
g103
g14
ssV212
p2602
(dp2603
g119
g14
sg17
g14
sg134
g14
sg307
g14
ssV213
p2604
(dp2605
sV210
p2606
(dp2607
g32
g14
sg34
g14
ssV211
p2608
(dp2609
g94
g6
sg461
g6
sg178
g14
sg34
g14
ssV218
p2610
(dp2611
sV3094
p2612
(dp2613
sV2138
p2614
(dp2615
sV956
p2616
(dp2617
g94
g14
ssV4
p2618
(dp2619
g202
g6
ssV3489
p2620
(dp2621
g94
g14
ssV3488
p2622
(dp2623
sV3481
p2624
(dp2625
sV3480
p2626
(dp2627
sV3483
p2628
(dp2629
g43
g14
ssV3482
p2630
(dp2631
g94
g14
sg76
g6
ssV3487
p2632
(dp2633
g253
g6
sg13
g14
sg34
g6
ssV938
p2634
(dp2635
g94
g14
sg39
g6
sg9
g6
ssV3649
p2636
(dp2637
g84
g14
sg398
g6
ssV3648
p2638
(dp2639
sV3647
p2640
(dp2641
sV3646
p2642
(dp2643
sV3645
p2644
(dp2645
g84
g6
ssV3644
p2646
(dp2647
sV3643
p2648
(dp2649
sV3642
p2650
(dp2651
g94
g14
sg9
g6
ssV3641
p2652
(dp2653
g13
g14
ssV3640
p2654
(dp2655
g13
g14
ssV2550
p2656
(dp2657
sV2551
p2658
(dp2659
sV2553
p2660
(dp2661
g97
g6
sg47
g14
ssV2554
p2662
(dp2663
g47
g14
ssV2555
p2664
(dp2665
g12
g6
sg203
g14
sg126
g14
sg178
g6
sg47
g6
ssV3004
p2666
(dp2667
g72
g14
sg29
g14
sg26
g51
sg319
g6
sg13
g14
sg151
g6
ssV2558
p2668
(dp2669
g1168
g6
sg508
g6
sg47
g14
ssV2559
p2670
(dp2671
g2298
g6
ssV2396
p2672
(dp2673
g429
g6
sg96
g14
sg13
g14
ssV2397
p2674
(dp2675
g165
g6
sg43
g6
sg197
g14
ssV2394
p2676
(dp2677
g308
g14
sg85
g6
ssV2395
p2678
(dp2679
g85
g14
ssV2392
p2680
(dp2681
g94
g14
sg171
g6
sg120
g6
sg252
g6
ssV2393
p2682
(dp2683
g308
g14
sg5
g14
ssV2390
p2684
(dp2685
g216
g14
sg603
g51
sg1790
g6
sg34
g14
ssV2391
p2686
(dp2687
g94
g14
ssV2398
p2688
(dp2689
g165
g6
ssV65
p2690
(dp2691
g666
g6
ssV2778
p2692
(dp2693
g342
g6
sg9
g6
ssV2779
p2694
(dp2695
g751
g14
sg120
g51
sg518
g14
ssV66
p2696
(dp2697
g84
g6
sg5
g51
ssV2770
p2698
(dp2699
g373
g6
sg13
g14
ssV2771
p2700
(dp2701
g76
g14
ssV2772
p2702
(dp2703
g1010
g6
sg32
g14
sg17
g14
sg103
g14
sg126
g6
sg104
g6
ssV2773
p2704
(dp2705
g342
g6
sg695
g14
sg34
g6
ssV2774
p2706
(dp2707
g46
g14
sg234
g6
sg178
g6
sg34
g6
ssV2777
p2708
(dp2709
g94
g14
sg342
g6
ssV3166
p2710
(dp2711
g631
g14
ssV3076
p2712
(dp2713
sV2803
p2714
(dp2715
sV1428
p2716
(dp2717
g325
g6
sg165
g6
ssV3165
p2718
(dp2719
sV1851
p2720
(dp2721
g178
g6
ssV1852
p2722
(dp2723
g94
g14
ssV1853
p2724
(dp2725
g216
g14
sg591
g6
sg234
g6
ssV1854
p2726
(dp2727
g94
g14
ssV1855
p2728
(dp2729
sV1856
p2730
(dp2731
g75
g14
ssV1857
p2732
(dp2733
g521
g14
sg219
g14
ssV2172
p2734
(dp2735
sV2173
p2736
(dp2737
g95
g51
ssV2170
p2738
(dp2739
g116
g14
ssV2171
p2740
(dp2741
g94
g6
ssV919
p2742
(dp2743
sV918
p2744
(dp2745
sV915
p2746
(dp2747
g695
g14
sg1366
g14
ssV914
p2748
(dp2749
g203
g14
ssV2178
p2750
(dp2751
g1689
g14
sg858
g6
sg18
g6
ssV916
p2752
(dp2753
g94
g14
sg342
g6
sg100
g51
ssV911
p2754
(dp2755
g83
g6
sg695
g14
sg33
g6
ssV910
p2756
(dp2757
g178
g6
ssV913
p2758
(dp2759
g32
g14
ssV912
p2760
(dp2761
g134
g14
sg695
g14
sg103
g6
ssV2604
p2762
(dp2763
g13
g14
sg47
g14
ssV2605
p2764
(dp2765
g71
g14
sg601
g6
ssV2606
p2766
(dp2767
g1041
g6
sg511
g14
sg47
g14
ssV2607
p2768
(dp2769
g906
g51
ssV2600
p2770
(dp2771
g700
g6
sg13
g14
ssV2601
p2772
(dp2773
sV2602
p2774
(dp2775
g700
g6
ssV2608
p2776
(dp2777
g13
g14
sg518
g6
ssV2609
p2778
(dp2779
sV1933
p2780
(dp2781
g43
g14
ssV1932
p2782
(dp2783
g32
g14
sg33
g14
sg348
g14
ssV1931
p2784
(dp2785
g751
g51
ssV1930
p2786
(dp2787
g700
g6
sg450
g14
sg751
g14
sg34
g6
ssV3265
p2788
(dp2789
g368
g14
sg17
g14
sg120
g14
sg139
g14
sg341
g14
sg216
g14
sg278
g14
sg219
g14
sg175
g14
ssV3264
p2790
(dp2791
g508
g51
ssV1935
p2792
(dp2793
g202
g14
sg43
g51
sg518
g6
ssV3266
p2794
(dp2795
g616
g6
sg13
g14
sg556
g14
ssV3268
p2796
(dp2797
g208
g14
ssV1939
p2798
(dp2799
g59
g14
ssV2051
p2800
(dp2801
g197
g14
ssV847
p2802
(dp2803
g151
g6
sg107
g14
sg175
g14
sg32
g14
ssV846
p2804
(dp2805
g17
g14
sg175
g14
sg9
g6
sg116
g14
ssV845
p2806
(dp2807
g629
g6
sg107
g6
ssV844
p2808
(dp2809
g94
g14
ssV843
p2810
(dp2811
g94
g14
sg96
g51
sg9
g14
sg32
g51
ssV842
p2812
(dp2813
g12
g14
sg13
g6
sg178
g6
ssV841
p2814
(dp2815
g338
g6
ssV840
p2816
(dp2817
g29
g6
ssV849
p2818
(dp2819
sV848
p2820
(dp2821
g33
g14
ssV1429
p2822
(dp2823
g94
g14
sg591
g51
ssV2406
p2824
(dp2825
g120
g6
ssV459
p2826
(dp2827
g858
g6
sg219
g14
ssV3361
p2828
(dp2829
g858
g14
sg307
g14
sg17
g14
ssV2407
p2830
(dp2831
sV1739
p2832
(dp2833
g9
g14
ssV1738
p2834
(dp2835
g116
g14
ssV1731
p2836
(dp2837
sV1730
p2838
(dp2839
g175
g14
sg126
g14
ssV1733
p2840
(dp2841
sV1732
p2842
(dp2843
sV1735
p2844
(dp2845
g71
g51
sg5
g6
ssV1734
p2846
(dp2847
g342
g6
sg178
g6
ssV753
p2848
(dp2849
g222
g51
sg203
g14
ssV752
p2850
(dp2851
g94
g6
sg197
g14
ssV751
p2852
(dp2853
sV750
p2854
(dp2855
g94
g14
sg9
g6
ssV757
p2856
(dp2857
g94
g14
sg13
g14
sg596
g14
sg5
g51
ssV756
p2858
(dp2859
sV755
p2860
(dp2861
g32
g14
ssV754
p2862
(dp2863
g9
g14
ssV759
p2864
(dp2865
g94
g14
ssV758
p2866
(dp2867
g94
g14
sg150
g6
sg251
g14
sg596
g14
ssV1595
p2868
(dp2869
g253
g6
sg175
g51
sg816
g6
ssV3071
p2870
(dp2871
g1010
g14
ssV3072
p2872
(dp2873
g178
g6
ssV1596
p2874
(dp2875
g66
g14
sg32
g6
sg47
g6
sg186
g6
ssV2958
p2876
(dp2877
g253
g14
ssV3075
p2878
(dp2879
g13
g14
ssV1593
p2880
(dp2881
g203
g14
ssV1592
p2882
(dp2883
g501
g14
ssV2954
p2884
(dp2885
g97
g6
sg32
g6
ssV3079
p2886
(dp2887
g253
g6
sg111
g14
sg18
g6
sg13
g14
sg34
g14
ssV2956
p2888
(dp2889
g197
g51
ssV2957
p2890
(dp2891
g94
g14
ssV1599
p2892
(dp2893
g47
g14
ssV1030
p2894
(dp2895
g9
g6
ssV1024
p2896
(dp2897
g13
g6
sg521
g14
sg84
g6
sg219
g6
ssV1027
p2898
(dp2899
g72
g14
sg26
g6
sg219
g14
sg549
g14
ssV505
p2900
(dp2901
sV1021
p2902
(dp2903
g348
g6
ssV1974
p2904
(dp2905
sV1023
p2906
(dp2907
g168
g14
ssV1022
p2908
(dp2909
g343
g14
ssV1029
p2910
(dp2911
g72
g51
ssV1028
p2912
(dp2913
g278
g6
ssV1037
p2914
(dp2915
g94
g14
ssV500
p2916
(dp2917
sV1035
p2918
(dp2919
sV605
p2920
(dp2921
sV630
p2922
(dp2923
g43
g14
sg32
g14
sg168
g6
ssV607
p2924
(dp2925
g13
g14
sg84
g6
ssV606
p2926
(dp2927
sV601
p2928
(dp2929
g96
g14
sg32
g14
sg94
g14
sg2111
g6
sVHyde
p2930
g6
sg348
g6
sg429
g6
ssV600
p2931
(dp2932
g76
g6
sg43
g6
ssV603
p2933
(dp2934
g17
g6
sg9
g6
ssV602
p2935
(dp2936
g209
g6
ssV1205
p2937
(dp2938
g66
g14
sg26
g14
ssV1204
p2939
(dp2940
g94
g14
sg772
g6
sg307
g14
ssV1207
p2941
(dp2942
sV1206
p2943
(dp2944
g94
g14
sg13
g14
ssV609
p2945
(dp2946
sV1200
p2947
(dp2948
g19
g14
ssV1203
p2949
(dp2950
g32
g14
ssV633
p2951
(dp2952
sV1216
p2953
(dp2954
g1689
g14
sg13
g14
sg126
g14
ssV935
p2955
(dp2956
g22
g14
ssV1217
p2957
(dp2958
g484
g14
sg13
g14
ssV3108
p2959
(dp2960
g94
g14
ssV3105
p2961
(dp2962
g197
g6
ssV3106
p2963
(dp2964
g32
g14
ssV1215
p2965
(dp2966
g13
g6
ssV3100
p2967
(dp2968
g357
g51
ssV3101
p2969
(dp2970
sV3102
p2971
(dp2972
g168
g6
ssV3103
p2973
(dp2974
g881
g14
ssV1111
p2975
(dp2976
g168
g6
ssV1110
p2977
(dp2978
g881
g14
ssV1113
p2979
(dp2980
g66
g14
sg111
g14
sg34
g14
ssV1112
p2981
(dp2982
sV1115
p2983
(dp2984
g1023
g6
ssV1114
p2985
(dp2986
g116
g14
ssV1117
p2987
(dp2988
g450
g14
sg43
g6
sg33
g14
sg121
g14
ssV1116
p2989
(dp2990
sV1119
p2991
(dp2992
g17
g14
sg13
g14
ssV1118
p2993
(dp2994
sV1351
p2995
(dp2996
sV1449
p2997
(dp2998
sV1448
p2999
(dp3000
sV466
p3001
(dp3002
g83
g6
sg100
g51
ssV2401
p3003
(dp3004
g13
g14
ssV1356
p3005
(dp3006
sV463
p3007
(dp3008
sV489
p3009
(dp3010
g253
g6
sg666
g14
ssV488
p3011
(dp3012
sV487
p3013
(dp3014
sV486
p3015
(dp3016
sV485
p3017
(dp3018
g13
g14
ssV484
p3019
(dp3020
g94
g14
sg219
g14
sg34
g6
ssV483
p3021
(dp3022
g1069
g14
sg251
g6
ssV482
p3023
(dp3024
g13
g6
ssV481
p3025
(dp3026
sV480
p3027
(dp3028
g9
g6
ssV990
p3029
(dp3030
sV1567
p3031
(dp3032
g429
g6
sg13
g14
sg596
g14
ssV2288
p3033
(dp3034
g580
g6
ssV199
p3035
(dp3036
g1195
g14
ssV198
p3037
(dp3038
g13
g14
ssV2289
p3039
(dp3040
g9
g6
ssV195
p3041
(dp3042
g76
g14
ssV194
p3043
(dp3044
g197
g14
ssV197
p3045
(dp3046
g197
g14
sg368
g14
sg5
g6
ssV196
p3047
(dp3048
g116
g14
ssV191
p3049
(dp3050
g237
g6
ssV190
p3051
(dp3052
g700
g6
sg13
g14
ssV193
p3053
(dp3054
g94
g14
ssV192
p3055
(dp3056
g197
g14
sg203
g14
ssV3679
p3057
(dp3058
g13
g14
ssV3672
p3059
(dp3060
g43
g6
sg26
g6
sg398
g6
sg116
g14
ssV3670
p3061
(dp3062
g237
g14
sg104
g6
sg219
g14
sg75
g6
sg139
g14
ssV3671
p3063
(dp3064
g76
g14
sg160
g14
sg34
g14
ssV3676
p3065
(dp3066
g104
g14
ssV3677
p3067
(dp3068
g71
g6
sg85
g14
sg76
g6
sg104
g14
sg72
g14
ssV3675
p3069
(dp3070
sV2547
p3071
(dp3072
sV2546
p3073
(dp3074
g13
g6
sg18
g6
ssV2545
p3075
(dp3076
g34
g6
ssV2544
p3077
(dp3078
g97
g6
sg544
g14
sVweekend
p3079
g6
ssV2549
p3080
(dp3081
g222
g6
ssV2548
p3082
(dp3083
g219
g51
ssV1104
p3084
(dp3085
g508
g6
ssV2381
p3086
(dp3087
sV2380
p3088
(dp3089
g325
g6
sg13
g6
sg5
g14
ssV2382
p3090
(dp3091
sV2385
p3092
(dp3093
g119
g14
ssV2384
p3094
(dp3095
g22
g14
ssV2387
p3096
(dp3097
g1790
g6
ssV2386
p3098
(dp3099
g83
g6
sg1790
g6
ssV2389
p3100
(dp3101
g216
g14
sg94
g14
sg1790
g6
sg278
g14
sg100
g14
ssV2388
p3102
(dp3103
sV3580
p3104
(dp3105
g94
g14
ssV3581
p3106
(dp3107
g1060
g14
ssV3582
p3108
(dp3109
sV2768
p3110
(dp3111
g1010
g6
sg9
g6
ssV3584
p3112
(dp3113
sV3585
p3114
(dp3115
g1069
g6
sg19
g6
ssV3587
p3116
(dp3117
g94
g6
sg666
g6
ssV3588
p3118
(dp3119
g83
g14
sg5
g6
ssV3589
p3120
(dp3121
sV2060
p3122
(dp3123
g251
g14
sg34
g14
ssV2767
p3124
(dp3125
g34
g6
ssV2766
p3126
(dp3127
g94
g14
sg100
g6
ssV2765
p3128
(dp3129
g134
g14
sg103
g14
sg32
g6
ssV2764
p3130
(dp3131
sV902
p3132
(dp3133
g13
g14
ssV903
p3134
(dp3135
sV900
p3136
(dp3137
sV901
p3138
(dp3139
g126
g6
sg32
g14
ssV906
p3140
(dp3141
g43
g14
ssV907
p3142
(dp3143
sV904
p3144
(dp3145
sV905
p3146
(dp3147
g94
g6
sg9
g6
ssV1843
p3148
(dp3149
sV1842
p3150
(dp3151
sV1841
p3152
(dp3153
sV1840
p3154
(dp3155
sV1846
p3156
(dp3157
g94
g6
sg34
g14
sg631
g51
sg348
g14
ssV1845
p3158
(dp3159
g9
g6
ssV1844
p3160
(dp3161
g94
g14
sg630
g14
sg5
g14
sg168
g6
ssV1942
p3162
(dp3163
g751
g51
sg5
g14
ssV2169
p3164
(dp3165
sV2168
p3166
(dp3167
sV2165
p3168
(dp3169
g1689
g14
ssV2164
p3170
(dp3171
g83
g14
sg59
g14
ssV2167
p3172
(dp3173
g1689
g14
sg71
g14
ssV2166
p3174
(dp3175
sV2161
p3176
(dp3177
sV2160
p3178
(dp3179
g695
g14
ssV2163
p3180
(dp3181
g151
g6
sg319
g6
sg203
g14
ssV2162
p3182
(dp3183
sV2617
p3184
(dp3185
sV2616
p3186
(dp3187
sV2615
p3188
(dp3189
sV2614
p3190
(dp3191
g484
g6
sg151
g6
sg319
g6
sg13
g14
ssV2611
p3192
(dp3193
g1069
g14
ssV2610
p3194
(dp3195
g13
g14
ssV1946
p3196
(dp3197
g34
g14
sg251
g6
sg209
g6
ssV3255
p3198
(dp3199
g17
g14
sg32
g14
sg126
g14
sg5
g14
ssV3298
p3200
(dp3201
g94
g14
sg338
g14
sg819
g14
ssV3299
p3202
(dp3203
g111
g6
ssV1908
p3204
(dp3205
sV1909
p3206
(dp3207
g629
g6
sg1198
g6
sg33
g14
ssV1906
p3208
(dp3209
g119
g6
sg278
g14
sg556
g6
ssV3295
p3210
(dp3211
g253
g6
sg1942
g14
ssV1904
p3212
(dp3213
g96
g14
ssV1905
p3214
(dp3215
sV3290
p3216
(dp3217
g33
g14
ssV1903
p3218
(dp3219
sV1900
p3220
(dp3221
g896
g6
sg43
g14
sg897
g6
sg348
g6
ssV1901
p3222
(dp3223
g5
g6
ssV3452
p3224
(dp3225
g84
g6
ssV3453
p3226
(dp3227
g896
g6
sg34
g14
sg84
g51
sg897
g14
sg348
g6
ssV3450
p3228
(dp3229
g32
g14
sg121
g6
ssV3451
p3230
(dp3231
g104
g6
sg32
g14
ssV3456
p3232
(dp3233
g116
g14
ssV3457
p3234
(dp3235
g13
g14
ssV3454
p3236
(dp3237
g43
g6
ssV3455
p3238
(dp3239
sV3458
p3240
(dp3241
g33
g51
sg85
g14
ssV3459
p3242
(dp3243
g229
g6
sg171
g6
sg32
g6
ssV858
p3244
(dp3245
g703
g14
sg308
g14
sg178
g6
ssV859
p3246
(dp3247
g881
g14
sg549
g14
ssV3293
p3248
(dp3249
sV2463
p3250
(dp3251
sV425
p3252
(dp3253
g234
g14
sg9
g6
ssV1184
p3254
(dp3255
sV1554
p3256
(dp3257
sV740
p3258
(dp3259
g518
g6
ssV741
p3260
(dp3261
sV742
p3262
(dp3263
g96
g14
ssV743
p3264
(dp3265
sV744
p3266
(dp3267
g178
g6
ssV745
p3268
(dp3269
sV746
p3270
(dp3271
g32
g14
ssV747
p3272
(dp3273
sV748
p3274
(dp3275
g338
g6
ssV749
p3276
(dp3277
g150
g6
sg13
g14
ssV1799
p3278
(dp3279
g222
g6
sg343
g14
ssV3063
p3280
(dp3281
sV3062
p3282
(dp3283
sV3061
p3284
(dp3285
g629
g6
sg1198
g6
sg596
g14
sg33
g6
sg461
g6
ssV3060
p3286
(dp3287
sV3067
p3288
(dp3289
g94
g14
ssV2949
p3290
(dp3291
g107
g14
ssV2948
p3292
(dp3293
g744
g51
ssV2947
p3294
(dp3295
g13
g14
ssV2946
p3296
(dp3297
g17
g51
sg104
g6
sg103
g14
sg116
g51
ssV2945
p3298
(dp3299
g858
g6
sg107
g51
sg72
g14
ssV2944
p3300
(dp3301
g603
g14
sg197
g14
sg17
g14
ssV2943
p3302
(dp3303
sV2942
p3304
(dp3305
g33
g14
ssV2941
p3306
(dp3307
g695
g14
sg368
g51
ssV2940
p3308
(dp3309
g450
g14
sg9
g14
sg1010
g51
ssV1050
p3310
(dp3311
g9
g51
ssV1051
p3312
(dp3313
g111
g6
ssV1052
p3314
(dp3315
g71
g14
ssV1053
p3316
(dp3317
sV1054
p3318
(dp3319
sV1055
p3320
(dp3321
g126
g14
ssV1056
p3322
(dp3323
g234
g51
ssV1057
p3324
(dp3325
g9
g6
ssV1058
p3326
(dp3327
sV1059
p3328
(dp3329
sV2152
p3330
(dp3331
sV1793
p3332
(dp3333
g357
g14
sg168
g6
ssV1692
p3334
(dp3335
g13
g14
ssV1693
p3336
(dp3337
sV1690
p3338
(dp3339
g94
g14
ssV1691
p3340
(dp3341
g94
g14
ssV1791
p3342
(dp3343
g373
g51
ssV1698
p3344
(dp3345
g197
g6
ssV1699
p3346
(dp3347
sV1278
p3348
(dp3349
g47
g14
ssV1279
p3350
(dp3351
sV618
p3352
(dp3353
g13
g14
ssV619
p3354
(dp3355
g2111
g6
sg2930
g6
ssV1270
p3356
(dp3357
g94
g14
ssV613
p3358
(dp3359
g2111
g6
sg2930
g6
ssV610
p3360
(dp3361
g94
g14
ssV611
p3362
(dp3363
g94
g14
sg278
g14
ssV616
p3364
(dp3365
sV617
p3366
(dp3367
g484
g6
ssV614
p3368
(dp3369
g429
g14
sg596
g14
ssV615
p3370
(dp3371
g94
g14
sg278
g14
ssV1795
p3372
(dp3373
sV710
p3374
(dp3375
g94
g14
ssV1180
p3376
(dp3377
sV3119
p3378
(dp3379
g97
g6
sg34
g14
ssV3118
p3380
(dp3381
g858
g6
sg168
g6
ssV3117
p3382
(dp3383
g94
g14
ssV3116
p3384
(dp3385
sV3115
p3386
(dp3387
g308
g14
ssV3114
p3388
(dp3389
g76
g14
sg85
g14
ssV3113
p3390
(dp3391
g85
g14
ssV3112
p3392
(dp3393
g94
g14
ssV3111
p3394
(dp3395
g9
g6
ssV1472
p3396
(dp3397
g111
g6
sg34
g14
ssV1473
p3398
(dp3399
g47
g14
ssV1470
p3400
(dp3401
g126
g14
sg47
g14
ssV1471
p3402
(dp3403
sV1477
p3404
(dp3405
g278
g6
sg34
g6
sg5
g14
sg219
g14
sg139
g14
ssV1474
p3406
(dp3407
g47
g14
ssV1475
p3408
(dp3409
sV1478
p3410
(dp3411
g461
g14
sg111
g14
sg34
g14
ssV1479
p3412
(dp3413
g85
g14
ssV3336
p3414
(dp3415
sV1304
p3416
(dp3417
g94
g6
sg9
g6
ssV1305
p3418
(dp3419
g94
g14
sg17
g14
sg13
g14
sg5
g14
ssV1306
p3420
(dp3421
g203
g14
sg816
g6
ssV1307
p3422
(dp3423
g83
g6
ssV1300
p3424
(dp3425
g511
g6
ssV1301
p3426
(dp3427
g94
g14
ssV1302
p3428
(dp3429
g94
g6
sg12
g14
sg9
g6
ssV1303
p3430
(dp3431
g12
g51
sg150
g6
sg251
g51
ssV3334
p3432
(dp3433
g94
g14
sg32
g6
ssV1309
p3434
(dp3435
g202
g14
ssV2597
p3436
(dp3437
g47
g14
ssV498
p3438
(dp3439
sV499
p3440
(dp3441
g50
g6
sg1069
g14
sg33
g14
ssV494
p3442
(dp3443
sV3597
p3444
(dp3445
g325
g6
sg1195
g14
sg32
g14
ssV496
p3446
(dp3447
g324
g14
ssV497
p3448
(dp3449
g1579
g6
sg253
g6
ssV490
p3450
(dp3451
g1579
g14
sg253
g6
sg772
g6
sg33
g14
ssV491
p3452
(dp3453
sV492
p3454
(dp3455
g219
g14
sg85
g14
ssV493
p3456
(dp3457
g1069
g14
ssV24
p3458
(dp3459
sV25
p3460
(dp3461
g751
g14
ssV21
p3462
(dp3463
sV927
p3464
(dp3465
sV28
p3466
(dp3467
g342
g51
ssV29
p3468
(dp3469
g107
g6
ssV3262
p3470
(dp3471
sV1703
p3472
(dp3473
sV1705
p3474
(dp3475
g94
g14
ssV1601
p3476
(dp3477
sV3267
p3478
(dp3479
g94
g6
ssV7
p3480
(dp3481
g5
g14
ssV3665
p3482
(dp3483
g630
g14
sg32
g14
ssV3664
p3484
(dp3485
g32
g14
ssV3667
p3486
(dp3487
g94
g14
sg858
g14
sg234
g14
sg9
g14
sg17
g14
ssV3666
p3488
(dp3489
g1003
g14
sg398
g14
sg85
g14
sg324
g51
ssV3661
p3490
(dp3491
g348
g6
ssV3660
p3492
(dp3493
g830
g6
sg831
g6
sg111
g14
ssV3663
p3494
(dp3495
g450
g14
sg548
g14
ssV3662
p3496
(dp3497
g216
g6
sg9
g6
ssV2280
p3498
(dp3499
g1010
g14
ssV2281
p3500
(dp3501
sV2282
p3502
(dp3503
g484
g6
sg32
g14
ssV2283
p3504
(dp3505
g484
g6
sg32
g14
ssV2284
p3506
(dp3507
g94
g14
sg12
g6
ssV2285
p3508
(dp3509
g94
g6
sg565
g6
ssV2286
p3510
(dp3511
g111
g14
ssV2287
p3512
(dp3513
g484
g6
sg22
g6
ssV2578
p3514
(dp3515
sV2579
p3516
(dp3517
sV2576
p3518
(dp3519
g94
g6
sVfood restaurant
p3520
g6
sg547
g14
sg32
g14
ssV2577
p3521
(dp3522
g629
g51
sg23
g14
sg32
g6
ssV2574
p3523
(dp3524
sV2575
p3525
(dp3526
sV2572
p3527
(dp3528
sV2573
p3529
(dp3530
sV2570
p3531
(dp3532
g165
g6
sg906
g14
ssV2571
p3533
(dp3534
sV2059
p3535
(dp3536
sV2378
p3537
(dp3538
g43
g6
sg9
g6
ssV2379
p3539
(dp3540
g325
g14
sg5
g6
ssV2377
p3541
(dp3542
g94
g14
ssV2370
p3543
(dp3544
sV2372
p3545
(dp3546
g700
g6
sg13
g14
ssV2594
p3547
(dp3548
sV2595
p3549
(dp3550
g324
g14
ssV2596
p3551
(dp3552
sV3590
p3553
(dp3554
g94
g14
sg34
g6
ssV2590
p3555
(dp3556
g94
g14
sg111
g6
ssV2591
p3557
(dp3558
g203
g14
ssV2592
p3559
(dp3560
g94
g14
sg165
g6
sg897
g6
ssV2593
p3561
(dp3562
g71
g14
sg47
g14
ssV3599
p3563
(dp3564
g71
g14
sg47
g14
ssV3598
p3565
(dp3566
sV2598
p3567
(dp3568
sV2599
p3569
(dp3570
g13
g14
sg9
g6
ssV1874
p3571
(dp3572
g450
g6
ssV1872
p3573
(dp3574
g94
g14
sg32
g6
sg5
g6
ssV1873
p3575
(dp3576
g591
g14
sg139
g6
ssV1870
p3577
(dp3578
g9
g6
ssV1871
p3579
(dp3580
g32
g14
ssV1878
p3581
(dp3582
g484
g6
sg695
g14
sg75
g14
sg549
g6
sg703
g6
sg84
g6
sg104
g6
ssV1879
p3583
(dp3584
g76
g14
sg398
g6
ssV977
p3585
(dp3586
g111
g14
sg324
g14
ssV182
p3587
(dp3588
sV974
p3589
(dp3590
g42
g14
sg22
g6
sg13
g14
sg197
g14
sg32
g14
ssV973
p3591
(dp3592
sV972
p3593
(dp3594
g126
g6
ssV971
p3595
(dp3596
g42
g6
sg508
g14
sg100
g14
ssV970
p3597
(dp3598
g29
g51
ssV1080
p3599
(dp3600
sV979
p3601
(dp3602
g13
g14
sg9
g6
ssV978
p3603
(dp3604
g94
g14
sg666
g6
ssV2118
p3605
(dp3606
g1023
g14
ssV183
p3607
(dp3608
g906
g6
sg9
g6
ssV180
p3609
(dp3610
g631
g6
ssV181
p3611
(dp3612
g94
g14
sg85
g14
ssV186
p3613
(dp3614
g208
g14
sg165
g14
ssV187
p3615
(dp3616
g32
g14
ssV184
p3617
(dp3618
sV185
p3619
(dp3620
g94
g6
ssV2112
p3621
(dp3622
g511
g14
ssV2113
p3623
(dp3624
g13
g14
sg203
g14
ssV2114
p3625
(dp3626
g120
g6
sg32
g14
ssV2115
p3627
(dp3628
g17
g14
sVsection
p3629
g14
sg596
g14
sg139
g6
ssV2116
p3630
(dp3631
sV1559
p3632
(dp3633
sV2622
p3634
(dp3635
g94
g14
sg12
g14
sg9
g14
ssV2623
p3636
(dp3637
g23
g14
sg13
g14
ssV2620
p3638
(dp3639
g83
g6
sg9
g6
ssV2621
p3640
(dp3641
g168
g14
ssV2627
p3642
(dp3643
g208
g14
sg9
g6
ssV2624
p3644
(dp3645
g13
g14
ssV60
p3646
(dp3647
sV1919
p3648
(dp3649
sV1918
p3650
(dp3651
g429
g6
ssV3289
p3652
(dp3653
g32
g14
sg13
g14
sg324
g14
ssV3288
p3654
(dp3655
sV1911
p3656
(dp3657
g234
g6
sg104
g6
sg175
g51
sg501
g14
ssV1910
p3658
(dp3659
g94
g14
ssV1913
p3660
(dp3661
g203
g14
ssV1912
p3662
(dp3663
sV3282
p3664
(dp3665
g71
g14
sg186
g6
ssV3281
p3666
(dp3667
g126
g51
sg111
g6
ssV3280
p3668
(dp3669
sV869
p3670
(dp3671
g208
g14
sg9
g51
ssV868
p3672
(dp3673
g197
g14
ssV189
p3674
(dp3675
g547
g14
sg9
g14
sg94
g6
sg342
g6
sVaverage food
p3676
g6
sg203
g14
sg85
g6
ssV861
p3677
(dp3678
g511
g6
ssV860
p3679
(dp3680
sV863
p3681
(dp3682
g94
g14
ssV862
p3683
(dp3684
g630
g14
ssV3441
p3685
(dp3686
g234
g14
sg1069
g14
ssV3440
p3687
(dp3688
g12
g6
ssV3443
p3689
(dp3690
g9
g6
ssV3442
p3691
(dp3692
g703
g14
sg308
g14
ssV2024
p3693
(dp3694
g1195
g14
sg1201
g6
sg32
g6
ssV2025
p3695
(dp3696
g521
g14
ssV2026
p3697
(dp3698
g71
g6
sg104
g14
ssV2027
p3699
(dp3700
g66
g14
sg251
g6
ssV2020
p3701
(dp3702
g43
g14
ssV2753
p3703
(dp3704
g29
g14
sg26
g6
sg341
g14
sg13
g14
sg23
g6
sg116
g6
ssV2751
p3705
(dp3706
sV2828
p3707
(dp3708
sV2117
p3709
(dp3710
sV2028
p3711
(dp3712
g71
g6
sg348
g14
sg84
g6
sg17
g14
ssV2029
p3713
(dp3714
g703
g14
sg133
g14
sg76
g14
ssV2829
p3715
(dp3716
sV883
p3717
(dp3718
g42
g14
ssV882
p3719
(dp3720
g94
g6
sg96
g6
sg744
g14
sg9
g6
sg596
g6
ssV881
p3721
(dp3722
sV880
p3723
(dp3724
g596
g14
sg32
g14
ssV887
p3725
(dp3726
g76
g14
ssV885
p3727
(dp3728
g94
g14
sg13
g14
sg126
g14
ssV884
p3729
(dp3730
sV889
p3731
(dp3732
g13
g14
ssV888
p3733
(dp3734
g338
g6
sg34
g14
ssV1340
p3735
(dp3736
g338
g6
ssV2825
p3737
(dp3738
sV775
p3739
(dp3740
g222
g6
sg1721
g14
sg348
g14
ssV774
p3741
(dp3742
g33
g14
ssV777
p3743
(dp3744
g94
g14
sg1790
g14
sg120
g14
ssV776
p3745
(dp3746
g94
g14
ssV771
p3747
(dp3748
g32
g14
sg357
g14
sg324
g14
ssV770
p3749
(dp3750
g133
g14
sg308
g14
sg85
g6
ssV773
p3751
(dp3752
g43
g6
ssV772
p3753
(dp3754
g1010
g6
ssV779
p3755
(dp3756
g703
g6
sg308
g14
sg596
g14
sg116
g14
ssV778
p3757
(dp3758
g9
g6
ssV77
p3759
(dp3760
g338
g14
sg666
g6
sg9
g14
sg116
g14
ssV76
p3761
(dp3762
g373
g14
ssV2978
p3763
(dp3764
g13
g14
sg84
g6
ssV2979
p3765
(dp3766
g94
g14
ssV72
p3767
(dp3768
g111
g14
sg13
g14
sg34
g6
ssV3058
p3769
(dp3770
g13
g51
sg97
g6
ssV3059
p3771
(dp3772
g120
g6
ssV3056
p3773
(dp3774
g208
g14
sg94
g14
ssV2973
p3775
(dp3776
g94
g14
sg9
g6
ssV2970
p3777
(dp3778
sV2971
p3779
(dp3780
sV2976
p3781
(dp3782
g548
g6
sg234
g14
sg695
g14
sg39
g14
sg104
g6
ssV2977
p3783
(dp3784
g94
g14
sg83
g6
sg324
g14
ssV2974
p3785
(dp3786
g76
g14
sg602
g14
ssV78
p3787
(dp3788
g59
g14
sg666
g14
ssV1041
p3789
(dp3790
g32
g14
sg5
g14
ssV1040
p3791
(dp3792
g94
g14
sg429
g6
sg348
g6
ssV1047
p3793
(dp3794
sV1046
p3795
(dp3796
sV1045
p3797
(dp3798
g19
g14
ssV1044
p3799
(dp3800
g203
g14
ssV1049
p3801
(dp3802
g186
g14
ssV1681
p3803
(dp3804
sV1680
p3805
(dp3806
g308
g14
sg398
g14
sg32
g14
ssV1683
p3807
(dp3808
g94
g14
sg9
g6
ssV1684
p3809
(dp3810
g1721
g6
ssV1687
p3811
(dp3812
g216
g14
ssV1686
p3813
(dp3814
g216
g14
sg165
g14
sg234
g14
ssV1689
p3815
(dp3816
g94
g14
sg23
g14
ssV1688
p3817
(dp3818
g216
g14
ssV1269
p3819
(dp3820
g203
g14
ssV1268
p3821
(dp3822
g1023
g14
ssV669
p3823
(dp3824
sV668
p3825
(dp3826
g484
g6
sg251
g6
sg111
g14
ssV667
p3827
(dp3828
sV666
p3829
(dp3830
g94
g14
sg9
g14
ssV665
p3831
(dp3832
g521
g14
sg398
g14
sg85
g6
sg203
g14
ssV664
p3833
(dp3834
g116
g14
ssV663
p3835
(dp3836
g22
g14
ssV662
p3837
(dp3838
g43
g6
ssV661
p3839
(dp3840
g85
g6
ssV660
p3841
(dp3842
g197
g14
ssV2985
p3843
(dp3844
g1060
g14
sg348
g6
ssV3095
p3845
(dp3846
sV3020
p3847
(dp3848
g858
g6
sg29
g14
sg22
g14
ssV3285
p3849
(dp3850
sV3128
p3851
(dp3852
g1003
g6
ssV3129
p3853
(dp3854
sV3122
p3855
(dp3856
g858
g6
sg343
g14
ssV3123
p3857
(dp3858
g450
g14
sg219
g6
sg343
g14
ssV3120
p3859
(dp3860
g94
g14
ssV3121
p3861
(dp3862
g116
g14
ssV3126
p3863
(dp3864
g203
g6
sg34
g14
ssV3127
p3865
(dp3866
g13
g14
ssV1469
p3867
(dp3868
g47
g14
ssV1468
p3869
(dp3870
g429
g6
sg32
g14
ssV1465
p3871
(dp3872
g548
g14
sg518
g14
sg9
g6
sg34
g6
ssV520
p3873
(dp3874
g104
g14
ssV1467
p3875
(dp3876
g197
g14
ssV1466
p3877
(dp3878
g631
g14
ssV1461
p3879
(dp3880
g97
g6
sg111
g6
ssV1460
p3881
(dp3882
g629
g6
sg630
g14
ssV1462
p3883
(dp3884
g100
g14
ssV1317
p3885
(dp3886
g12
g6
ssV1316
p3887
(dp3888
g94
g14
sg97
g6
sg32
g14
ssV1315
p3889
(dp3890
g253
g6
sg666
g14
sg39
g51
sg461
g6
ssV1314
p3891
(dp3892
sV1313
p3893
(dp3894
g1195
g14
sg342
g51
sg100
g14
ssV1312
p3895
(dp3896
g13
g14
sg203
g51
ssV1311
p3897
(dp3898
g338
g14
ssV1310
p3899
(dp3900
sV1319
p3901
(dp3902
g160
g14
ssV1318
p3903
(dp3904
g208
g14
sg13
g14
ssV3277
p3905
(dp3906
sV528
p3907
(dp3908
sV529
p3909
(dp3910
g94
g14
sg12
g51
ssV318
p3911
(dp3912
g96
g14
sg3079
g6
sg126
g51
ssV313
p3913
(dp3914
g39
g14
ssV865
p3915
(dp3916
g450
g6
sg121
g6
ssV317
p3917
(dp3918
sV316
p3919
(dp3920
g75
g6
sg50
g14
sg104
g14
ssV315
p3921
(dp3922
g17
g14
sg307
g6
ssV864
p3923
(dp3924
g94
g14
sg278
g6
ssV867
p3925
(dp3926
sV866
p3927
(dp3928
g116
g14
ssV2757
p3929
(dp3930
sV2754
p3931
(dp3932
g29
g6
sg23
g6
ssV443
p3933
(dp3934
g253
g6
sg47
g14
ssV1334
p3935
(dp3936
g203
g14
ssV2752
p3937
(dp3938
g111
g51
sg97
g6
sg209
g6
ssV3405
p3939
(dp3940
g94
g14
ssV447
p3941
(dp3942
g47
g14
sg13
g14
sg34
g6
ssV1330
p3943
(dp3944
g357
g6
sg1003
g14
ssV2320
p3945
(dp3946
g178
g6
sg5
g14
ssV1997
p3947
(dp3948
g186
g14
ssV2692
p3949
(dp3950
g208
g14
sg94
g6
sg116
g14
ssV3610
p3951
(dp3952
g830
g6
sg831
g14
sg13
g6
ssV3611
p3953
(dp3954
sV2299
p3955
(dp3956
g1885
g6
ssV3613
p3957
(dp3958
g544
g14
sg32
g6
ssV3617
p3959
(dp3960
g97
g6
ssV2293
p3961
(dp3962
g66
g14
sg111
g14
ssV3619
p3963
(dp3964
g666
g14
sg324
g14
ssV2290
p3965
(dp3966
g94
g14
sg150
g6
ssV2297
p3967
(dp3968
g47
g14
ssV2296
p3969
(dp3970
sV2295
p3971
(dp3972
g58
g6
sg13
g14
sg47
g6
ssV2294
p3973
(dp3974
g119
g14
sg126
g14
sg100
g14
sg139
g6
ssV404
p3975
(dp3976
g203
g6
ssV2569
p3977
(dp3978
g325
g6
ssV2568
p3979
(dp3980
sV2140
p3981
(dp3982
sV288
p3983
(dp3984
g97
g6
ssV2560
p3985
(dp3986
g13
g14
ssV2563
p3987
(dp3988
g603
g14
sg97
g6
ssV1615
p3989
(dp3990
g819
g14
ssV2567
p3991
(dp3992
g23
g6
sg39
g14
ssV908
p3993
(dp3994
g94
g14
sg253
g6
sg34
g14
ssV2369
p3995
(dp3996
sV2367
p3997
(dp3998
g32
g14
ssV2366
p3999
(dp4000
sV2365
p4001
(dp4002
g450
g14
ssV2364
p4003
(dp4004
g85
g6
sg13
g6
sg116
g14
ssV2363
p4005
(dp4006
sV2361
p4007
(dp4008
g94
g14
ssV2360
p4009
(dp4010
g253
g6
sg518
g51
ssV2587
p4011
(dp4012
g373
g14
ssV2586
p4013
(dp4014
g13
g51
ssV2585
p4015
(dp4016
g9
g6
ssV2584
p4017
(dp4018
g1367
g14
ssV2582
p4019
(dp4020
sV2581
p4021
(dp4022
g32
g6
ssV2580
p4023
(dp4024
g208
g14
sg94
g14
sg9
g14
ssV1612
p4025
(dp4026
sV402
p4027
(dp4028
g897
g6
ssV2589
p4029
(dp4030
g307
g14
sg1041
g6
sg47
g14
ssV2588
p4031
(dp4032
g1010
g14
sg197
g14
sg219
g14
sg343
g14
sg32
g6
ssV1861
p4033
(dp4034
sV1860
p4035
(dp4036
sV1865
p4037
(dp4038
g43
g14
sg104
g6
ssV2980
p4039
(dp4040
sV1867
p4041
(dp4042
g450
g6
sg104
g14
sg121
g6
ssV1866
p4043
(dp4044
g450
g6
sg104
g14
sg1041
g6
sg121
g6
ssV1869
p4045
(dp4046
g17
g6
ssV1868
p4047
(dp4048
Vice
p4049
g6
ssV964
p4050
(dp4051
g85
g6
sg116
g14
ssV965
p4052
(dp4053
g34
g6
ssV966
p4054
(dp4055
g12
g6
sg119
g6
sg23
g14
ssV967
p4056
(dp4057
g94
g14
sg13
g14
sg5
g14
ssV960
p4058
(dp4059
g83
g6
sg175
g14
sg32
g14
ssV961
p4060
(dp4061
g511
g6
sg32
g14
ssV962
p4062
(dp4063
g84
g14
ssV1613
p4064
(dp4065
sV401
p4066
(dp4067
g9
g6
ssV968
p4068
(dp4069
g484
g14
sg95
g6
sg251
g14
sg596
g6
ssV969
p4070
(dp4071
g251
g6
ssV2109
p4072
(dp4073
g96
g14
sg9
g6
sg324
g14
sg342
g14
sg26
g14
sg858
g6
sg85
g6
ssV2108
p4074
(dp4075
g18
g6
sg34
g14
ssV2103
p4076
(dp4077
g76
g14
ssV2102
p4078
(dp4079
g1790
g14
sg565
g6
sg307
g14
ssV2101
p4080
(dp4081
sV2100
p4082
(dp4083
g325
g6
ssV2107
p4084
(dp4085
g197
g6
sg26
g14
sg34
g6
ssV2105
p4086
(dp4087
sV2104
p4088
(dp4089
g1010
g6
sg96
g14
sg565
g6
sg1790
g6
sg85
g6
ssV2639
p4090
(dp4091
g107
g6
ssV2638
p4092
(dp4093
g17
g14
sg175
g14
ssV2635
p4094
(dp4095
sV2634
p4096
(dp4097
sV2637
p4098
(dp4099
g175
g14
ssV2636
p4100
(dp4101
g348
g14
ssV2631
p4102
(dp4103
g202
g6
sg1706
g51
ssV2630
p4104
(dp4105
g84
g6
ssV2986
p4106
(dp4107
g126
g14
ssV3438
p4108
(dp4109
g208
g6
sg202
g51
sg518
g6
sg9
g6
ssV3439
p4110
(dp4111
g12
g14
sg32
g14
ssV878
p4112
(dp4113
g175
g51
ssV879
p4114
(dp4115
sV876
p4116
(dp4117
sV877
p4118
(dp4119
g325
g6
ssV874
p4120
(dp4121
g1168
g6
sg17
g14
ssV3433
p4122
(dp4123
g202
g6
sg95
g14
sg13
g14
sVdate spot
p4124
g6
ssV872
p4125
(dp4126
g700
g14
sg96
g14
sg13
g14
ssV3435
p4127
(dp4128
g32
g14
ssV870
p4129
(dp4130
g94
g14
sg12
g6
ssV3437
p4131
(dp4132
g1069
g14
ssV2741
p4133
(dp4134
g244
g6
sg616
g6
sg178
g6
ssV2740
p4135
(dp4136
g33
g14
ssV2743
p4137
(dp4138
g110
g14
sg13
g14
ssV3091
p4139
(dp4140
g94
g14
sg596
g6
ssV2033
p4141
(dp4142
g71
g6
sg104
g14
ssV2747
p4143
(dp4144
g139
g14
ssV2746
p4145
(dp4146
g29
g6
sg9
g6
ssV9
p4147
(dp4148
g343
g14
ssV2748
p4149
(dp4150
g160
g14
sg9
g6
sg32
g14
ssV2039
p4151
(dp4152
g22
g6
ssV2038
p4153
(dp4154
g94
g14
ssV891
p4155
(dp4156
g94
g51
sg338
g51
sg9
g6
ssV892
p4157
(dp4158
g175
g14
sg501
g14
ssV894
p4159
(dp4160
g32
g14
ssV895
p4161
(dp4162
sV896
p4163
(dp4164
g50
g14
ssV897
p4165
(dp4166
g43
g14
ssV898
p4167
(dp4168
g160
g14
sg398
g14
ssV899
p4169
(dp4170
g9
g6
ssV646
p4171
(dp4172
g338
g6
ssV3651
p4173
(dp4174
sV783
p4175
(dp4176
sV1968
p4177
(dp4178
g43
g14
ssV3237
p4179
(dp4180
sV3544
p4181
(dp4182
g208
g14
sg202
g6
sg13
g14
ssV3545
p4183
(dp4184
g203
g51
ssV3546
p4185
(dp4186
g32
g51
ssV3547
p4187
(dp4188
g94
g14
sg39
g14
ssV1618
p4189
(dp4190
g548
g14
sg43
g6
sg521
g14
ssV3542
p4191
(dp4192
g111
g6
ssV3543
p4193
(dp4194
g342
g14
sg32
g14
ssV3235
p4195
(dp4196
g341
g14
sg116
g14
ssV1714
p4197
(dp4198
g216
g14
sg253
g6
sg508
g14
sg100
g6
ssV1964
p4199
(dp4200
g168
g6
sg139
g6
ssV1965
p4201
(dp4202
g85
g6
sg32
g6
ssV3238
p4203
(dp4204
g896
g6
sg897
g6
sg348
g14
ssV3069
p4205
(dp4206
sV2965
p4207
(dp4208
g76
g51
sg518
g14
ssV2964
p4209
(dp4210
g94
g14
sg324
g14
ssV2967
p4211
(dp4212
g94
g14
sg32
g14
sg111
g6
sg324
g14
ssV769
p4213
(dp4214
g1195
g6
sg43
g14
sg348
g6
ssV2961
p4215
(dp4216
g278
g51
ssV2960
p4217
(dp4218
g17
g51
ssV2963
p4219
(dp4220
g75
g14
sg104
g6
ssV2962
p4221
(dp4222
g71
g14
sg547
g6
ssV762
p4223
(dp4224
g518
g14
ssV763
p4225
(dp4226
g9
g6
ssV760
p4227
(dp4228
g251
g14
ssV1783
p4229
(dp4230
sV2969
p4231
(dp4232
sV1785
p4233
(dp4234
g22
g14
sg19
g14
sg556
g6
ssV764
p4235
(dp4236
g216
g6
sg42
g6
ssV765
p4237
(dp4238
g234
g14
ssV3049
p4239
(dp4240
g94
g14
sg278
g6
ssV3048
p4241
(dp4242
g76
g14
sg172
g14
sg100
g6
ssV3041
p4243
(dp4244
g43
g6
sg197
g14
sg32
g14
ssV3040
p4245
(dp4246
g17
g14
ssV3043
p4247
(dp4248
g43
g6
ssV3042
p4249
(dp4250
g94
g14
sg308
g14
sg175
g14
ssV3045
p4251
(dp4252
sV3044
p4253
(dp4254
g42
g14
sg508
g14
ssV3047
p4255
(dp4256
g13
g14
sg116
g14
ssV3046
p4257
(dp4258
g13
g14
ssV1078
p4259
(dp4260
sV1077
p4261
(dp4262
g253
g6
ssV1074
p4263
(dp4264
g119
g6
sg150
g6
sg13
g6
ssV1070
p4265
(dp4266
sV1071
p4267
(dp4268
g95
g14
ssV1678
p4269
(dp4270
g461
g51
ssV1679
p4271
(dp4272
sV1674
p4273
(dp4274
g1642
g6
sg348
g14
ssV1675
p4275
(dp4276
g94
g6
sg23
g14
ssV1676
p4277
(dp4278
g96
g14
sg251
g6
ssV1677
p4279
(dp4280
g85
g6
sg116
g14
ssV1670
p4281
(dp4282
g85
g14
ssV1671
p4283
(dp4284
g308
g14
sg521
g14
sg398
g14
sg85
g14
sg703
g6
ssV1672
p4285
(dp4286
g94
g51
ssV1673
p4287
(dp4288
g695
g14
sg104
g6
ssV1094
p4289
(dp4290
g94
g14
ssV1095
p4291
(dp4292
g94
g14
sg23
g14
sg13
g14
sg32
g14
ssV1096
p4293
(dp4294
g202
g6
sg95
g51
sg744
g14
sg4124
g6
sg348
g6
ssV1097
p4295
(dp4296
g700
g6
sg12
g51
sg95
g51
ssV678
p4297
(dp4298
g237
g6
sg348
g14
sg175
g14
sg72
g14
sg858
g6
ssV679
p4299
(dp4300
sV1092
p4301
(dp4302
g1721
g6
sg84
g6
sVgirls night
p4303
g6
sg348
g6
ssV1093
p4304
(dp4305
g66
g14
sg111
g14
sg203
g14
sg32
g6
ssV674
p4306
(dp4307
g429
g6
sg518
g6
sg33
g51
ssV675
p4308
(dp4309
g695
g6
sg33
g6
sg5
g14
ssV676
p4310
(dp4311
g338
g6
ssV677
p4312
(dp4313
sV1098
p4314
(dp4315
g197
g14
ssV1099
p4316
(dp4317
g43
g6
ssV672
p4318
(dp4319
sV673
p4320
(dp4321
g172
g6
sg368
g14
ssV3135
p4322
(dp4323
g601
g14
sg219
g14
ssV3134
p4324
(dp4325
g94
g14
sg5
g14
ssV3137
p4326
(dp4327
g76
g14
ssV3136
p4328
(dp4329
g116
g14
ssV3131
p4330
(dp4331
sV3130
p4332
(dp4333
g94
g14
ssV3133
p4334
(dp4335
g32
g14
ssV3139
p4336
(dp4337
g1790
g6
sg565
g6
sg75
g6
sg819
g14
sg1528
g6
sg111
g6
ssV3138
p4338
(dp4339
g29
g6
ssV1533
p4340
(dp4341
g95
g51
ssV1418
p4342
(dp4343
sV1419
p4344
(dp4345
sV1410
p4346
(dp4347
g39
g14
ssV1411
p4348
(dp4349
g94
g51
ssV1412
p4350
(dp4351
g100
g6
ssV1413
p4352
(dp4353
g66
g14
sg1069
g6
sg165
g6
ssV1414
p4354
(dp4355
sV1415
p4356
(dp4357
g94
g6
sg9
g6
ssV1416
p4358
(dp4359
g12
g6
sg324
g14
ssV1417
p4360
(dp4361
g197
g14
ssV1322
p4362
(dp4363
g34
g51
ssV1323
p4364
(dp4365
g111
g51
ssV1320
p4366
(dp4367
sV1321
p4368
(dp4369
g66
g14
sg94
g14
sg34
g14
sg319
g6
sg13
g6
sg151
g6
ssV1326
p4370
(dp4371
g94
g14
ssV1327
p4372
(dp4373
g17
g14
sg100
g14
ssV1324
p4374
(dp4375
sV1325
p4376
(dp4377
g1060
g14
sg175
g14
sg348
g14
ssV1328
p4378
(dp4379
g1060
g14
sg160
g6
ssV1329
p4380
(dp4381
sV2494
p4382
(dp4383
g97
g6
sg171
g6
sg18
g6
sg13
g14
sg1090
g6
ssV5
p4384
(dp4385
g13
g6
ssV1531
p4386
(dp4387
sV1917
p4388
(dp4389
g216
g14
sg94
g14
sg278
g14
ssV1254
p4390
(dp4391
g171
g6
sg4049
g6
ssV1527
p4392
(dp4393
g84
g6
ssV1522
p4394
(dp4395
g1721
g6
ssV1528
p4396
(dp4397
g94
g14
sg97
g6
ssV308
p4398
(dp4399
g373
g14
ssV309
p4400
(dp4401
g398
g14
sg9
g6
sg116
g51
ssV1916
p4402
(dp4403
sV300
p4404
(dp4405
g26
g6
sg511
g14
ssV301
p4406
(dp4407
g76
g14
sg85
g14
ssV302
p4408
(dp4409
g13
g14
sg32
g14
ssV303
p4410
(dp4411
g165
g6
sg43
g14
sg197
g14
ssV304
p4412
(dp4413
g858
g6
sg29
g6
sg126
g14
ssV305
p4414
(dp4415
g26
g14
ssV306
p4416
(dp4417
g450
g6
ssV307
p4418
(dp4419
g197
g14
sg13
g14
sg32
g14
ssV1792
p4420
(dp4421
g203
g14
sg84
g6
sg116
g14
ssV75
p4422
(dp4423
sV2399
p4424
(dp4425
g165
g6
sg278
g6
sg139
g6
ssV71
p4426
(dp4427
g629
g6
sg104
g6
sg13
g14
sg9
g14
sg324
g14
ssV70
p4428
(dp4429
g203
g14
sg13
g6
sg348
g14
ssV2972
p4430
(dp4431
sV2474
p4432
(dp4433
g216
g14
sg94
g14
ssV3057
p4434
(dp4435
sV1447
p4436
(dp4437
g175
g14
ssV3052
p4438
(dp4439
sV1105
p4440
(dp4441
g95
g14
sg97
g6
sg666
g6
ssV3412
p4442
(dp4443
g208
g14
sg203
g14
sg13
g14
sg511
g6
sg116
g51
ssV3053
p4444
(dp4445
g32
g14
ssV3050
p4446
(dp4447
sV2975
p4448
(dp4449
g819
g14
sg32
g14
ssV3603
p4450
(dp4451
g596
g14
sg47
g6
ssV3602
p4452
(dp4453
sV3601
p4454
(dp4455
g253
g6
sg251
g14
sg47
g6
ssV3600
p4456
(dp4457
g71
g14
ssV3607
p4458
(dp4459
g34
g6
sg348
g14
ssV3606
p4460
(dp4461
g47
g14
ssV3605
p4462
(dp4463
g429
g6
sg630
g6
sg695
g14
sg9
g6
ssV3604
p4464
(dp4465
sV3609
p4466
(dp4467
sV3608
p4468
(dp4469
g126
g14
ssV2479
p4470
(dp4471
g1195
g6
sg17
g6
sg1201
g6
sg9
g6
sg32
g14
ssV2478
p4472
(dp4473
g100
g14
ssV2359
p4474
(dp4475
g83
g6
sg33
g14
ssV2350
p4476
(dp4477
sV2356
p4478
(dp4479
sV2355
p4480
(dp4481
g547
g14
ssV2991
p4482
(dp4483
g508
g14
ssV1899
p4484
(dp4485
sV1894
p4486
(dp4487
g96
g51
sg13
g14
sg100
g14
sg104
g6
ssV1890
p4488
(dp4489
g96
g14
ssV1891
p4490
(dp4491
g94
g14
sg34
g14
ssV1893
p4492
(dp4493
sV959
p4494
(dp4495
g96
g14
sg9
g6
ssV2137
p4496
(dp4497
g42
g6
sg2298
g14
sg9
g51
ssV2134
p4498
(dp4499
g601
g14
ssV2135
p4500
(dp4501
g126
g14
sg511
g14
sg32
g14
ssV2132
p4502
(dp4503
g94
g6
sg66
g14
sg9
g6
sg168
g6
ssV2133
p4504
(dp4505
g175
g14
sg168
g6
ssV2130
p4506
(dp4507
g151
g6
sg319
g6
ssV2131
p4508
(dp4509
sV951
p4510
(dp4511
g751
g14
sg308
g14
sg219
g14
sg168
g14
ssV950
p4512
(dp4513
sV953
p4514
(dp4515
g94
g51
sg9
g6
sg111
g14
ssV952
p4516
(dp4517
sV955
p4518
(dp4519
sV954
p4520
(dp4521
g43
g6
sg32
g14
ssV957
p4522
(dp4523
g94
g14
sg17
g14
sg251
g51
ssV2139
p4524
(dp4525
g197
g14
ssV2648
p4526
(dp4527
g94
g14
sg616
g6
ssV2649
p4528
(dp4529
g43
g6
sg13
g14
sg32
g14
ssV2993
p4530
(dp4531
g94
g14
sg96
g14
ssV2640
p4532
(dp4533
g897
g6
ssV2641
p4534
(dp4535
sV2642
p4536
(dp4537
g94
g51
sg17
g14
sg23
g14
sg34
g14
ssV2643
p4538
(dp4539
g547
g14
sg111
g14
ssV2644
p4540
(dp4541
sV2645
p4542
(dp4543
g216
g6
sg171
g6
sg172
g14
sg251
g14
ssV2646
p4544
(dp4545
g548
g6
sg50
g6
sg104
g14
ssV2647
p4546
(dp4547
g398
g14
sg116
g14
ssV3429
p4548
(dp4549
g33
g51
sg348
g14
ssV3428
p4550
(dp4551
sV3423
p4552
(dp4553
g1069
g14
ssV3422
p4554
(dp4555
g1885
g6
ssV3421
p4556
(dp4557
g165
g6
sg43
g14
ssV3420
p4558
(dp4559
g341
g14
sg100
g51
sg32
g6
ssV3426
p4560
(dp4561
g703
g6
sg5
g14
sg34
g6
ssV3425
p4562
(dp4563
g508
g14
sg139
g6
ssV3424
p4564
(dp4565
g616
g14
ssV2002
p4566
(dp4567
g629
g6
sg234
g14
sg1198
g6
sg33
g14
sg32
g14
ssV2003
p4568
(dp4569
g203
g14
ssV2000
p4570
(dp4571
g33
g14
sg5
g14
ssV2001
p4572
(dp4573
g168
g14
sg43
g6
sg549
g14
sVdinner drinks
p4574
g6
sg104
g6
sg726
g14
ssV2006
p4575
(dp4576
g9
g6
ssV2007
p4577
(dp4578
sV2004
p4579
(dp4580
g629
g6
ssV2005
p4581
(dp4582
g32
g14
ssV2008
p4583
(dp4584
g175
g51
ssV2009
p4585
(dp4586
sV1544
p4587
(dp4588
g13
g14
ssV3557
p4589
(dp4590
g94
g6
sVfood quality
p4591
g6
sg23
g14
ssV3556
p4592
(dp4593
sV3555
p4594
(dp4595
g13
g14
sg84
g14
ssV3554
p4596
(dp4597
sV3553
p4598
(dp4599
g1010
g51
ssV3551
p4600
(dp4601
sV1145
p4602
(dp4603
sV3558
p4604
(dp4605
g100
g6
ssV2176
p4606
(dp4607
sV2997
p4608
(dp4609
sV2177
p4610
(dp4611
sV2910
p4612
(dp4613
g150
g6
sg13
g14
sg666
g14
ssV2911
p4614
(dp4615
g94
g14
sg17
g14
sg9
g14
sg556
g6
ssV2912
p4616
(dp4617
g4049
g6
sg100
g6
ssV2913
p4618
(dp4619
g150
g6
sg13
g14
sg59
g14
ssV2914
p4620
(dp4621
sV2915
p4622
(dp4623
g9
g6
sg94
g14
sg744
g14
sg325
g6
sg116
g14
sg85
g14
ssV719
p4624
(dp4625
g120
g51
sg203
g14
sg168
g6
ssV718
p4626
(dp4627
g95
g6
sg13
g14
ssV717
p4628
(dp4629
g13
g14
sg175
g14
ssV2919
p4630
(dp4631
sV715
p4632
(dp4633
g580
g6
sg100
g14
sg17
g14
sg3629
g14
sg338
g14
sg171
g14
ssV714
p4634
(dp4635
sV1797
p4636
(dp4637
g13
g51
sg9
g6
ssV712
p4638
(dp4639
g202
g6
sg9
g6
sg501
g14
ssV711
p4640
(dp4641
g5
g6
ssV1794
p4642
(dp4643
g85
g14
sg168
g51
ssV716
p4644
(dp4645
sV917
p4646
(dp4647
g178
g6
ssV1069
p4648
(dp4649
sV1068
p4650
(dp4651
sV2179
p4652
(dp4653
g84
g6
sg666
g14
ssV1061
p4654
(dp4655
g178
g6
ssV1060
p4656
(dp4657
g83
g14
ssV1063
p4658
(dp4659
sV1062
p4660
(dp4661
g1689
g14
ssV1065
p4662
(dp4663
g94
g14
sg234
g51
ssV1064
p4664
(dp4665
sV1067
p4666
(dp4667
g1689
g6
ssV1066
p4668
(dp4669
g94
g6
ssV3023
p4670
(dp4671
sV1669
p4672
(dp4673
g13
g14
ssV1668
p4674
(dp4675
sV1667
p4676
(dp4677
g208
g6
sg151
g6
sg325
g51
sg94
g6
sg5
g6
ssV1666
p4678
(dp4679
g85
g14
ssV1665
p4680
(dp4681
g126
g6
ssV1664
p4682
(dp4683
g94
g6
sg219
g14
sg178
g6
sg85
g14
ssV1663
p4684
(dp4685
g703
g6
sg85
g14
sg76
g6
ssV1662
p4686
(dp4687
g26
g6
ssV1661
p4688
(dp4689
sV1660
p4690
(dp4691
g94
g14
sg160
g14
ssV1087
p4692
(dp4693
g13
g14
ssV590
p4694
(dp4695
g398
g14
ssV593
p4696
(dp4697
g151
g6
sg319
g6
ssV592
p4698
(dp4699
g85
g14
sg203
g14
ssV595
p4700
(dp4701
sV594
p4702
(dp4703
g208
g14
sg94
g14
sg160
g14
ssV597
p4704
(dp4705
g13
g14
ssV596
p4706
(dp4707
g338
g14
sg32
g14
ssV599
p4708
(dp4709
g94
g14
ssV598
p4710
(dp4711
g94
g14
sg96
g14
sg9
g6
ssV1089
p4712
(dp4713
g126
g6
ssV1088
p4714
(dp4715
g521
g14
sg34
g14
ssV3140
p4716
(dp4717
g12
g6
sg1790
g14
ssV3141
p4718
(dp4719
g94
g14
sg9
g6
sg197
g6
ssV3142
p4720
(dp4721
sV3144
p4722
(dp4723
g76
g14
sg518
g6
sg9
g6
ssV3145
p4724
(dp4725
g2082
g6
ssV3146
p4726
(dp4727
g325
g14
sg2082
g6
sg43
g6
sg13
g14
ssV3147
p4728
(dp4729
g32
g14
ssV3148
p4730
(dp4731
g22
g6
ssV3149
p4732
(dp4733
g216
g6
sg197
g14
ssV2826
p4734
(dp4735
sV2827
p4736
(dp4737
g208
g51
sg94
g14
sg342
g6
sg9
g6
ssV2822
p4738
(dp4739
g29
g6
sg547
g51
sg47
g14
ssV2823
p4740
(dp4741
g208
g14
sg94
g6
sg9
g51
ssV3384
p4742
(dp4743
g32
g6
ssV3382
p4744
(dp4745
g17
g14
ssV3383
p4746
(dp4747
g548
g6
sg104
g14
ssV3380
p4748
(dp4749
g338
g6
sg12
g6
sg278
g6
ssV3381
p4750
(dp4751
g72
g14
sg5
g14
sg34
g6
ssV3388
p4752
(dp4753
g126
g14
ssV713
p4754
(dp4755
g461
g14
sg9
g6
ssV1409
p4756
(dp4757
g165
g6
sg97
g6
sg1366
g14
sg197
g6
ssV1408
p4758
(dp4759
g32
g14
ssV1403
p4760
(dp4761
g66
g14
sg18
g6
sg32
g14
ssV1402
p4762
(dp4763
g94
g14
ssV1401
p4764
(dp4765
sV1400
p4766
(dp4767
g13
g14
ssV1407
p4768
(dp4769
sV1404
p4770
(dp4771
g12
g6
ssV1546
p4772
(dp4773
g1579
g6
sg94
g14
sg5
g51
ssV449
p4774
(dp4775
g47
g14
ssV448
p4776
(dp4777
sV1339
p4778
(dp4779
g165
g14
ssV1338
p4780
(dp4781
g94
g14
sg9
g6
ssV1491
p4782
(dp4783
g508
g14
ssV693
p4784
(dp4785
g630
g6
sg9
g6
ssV1335
p4786
(dp4787
g94
g14
sg751
g6
sg9
g6
ssV442
p4788
(dp4789
g133
g6
ssV441
p4790
(dp4791
g9
g6
ssV440
p4792
(dp4793
g111
g6
ssV1331
p4794
(dp4795
g703
g6
ssV446
p4796
(dp4797
g253
g6
ssV445
p4798
(dp4799
sV444
p4800
(dp4801
sV1545
p4802
(dp4803
g596
g6
ssV696
p4804
(dp4805
g94
g14
sg197
g14
ssV697
p4806
(dp4807
g830
g6
sg831
g6
sg32
g14
ssV3261
p4808
(dp4809
sV39
p4810
(dp4811
g219
g14
sg343
g14
ssV38
p4812
(dp4813
g76
g51
ssV694
p4814
(dp4815
sV3260
p4816
(dp4817
g183
g14
ssV30
p4818
(dp4819
g881
g14
ssV37
p4820
(dp4821
g1038
g14
sg398
g14
sg116
g6
ssV36
p4822
(dp4823
g629
g6
sg1198
g6
sg33
g14
ssV35
p4824
(dp4825
sV34
p4826
(dp4827
g881
g14
sg398
g14
sg5
g14
ssV1537
p4828
(dp4829
g33
g14
sg32
g14
ssV1536
p4830
(dp4831
g1069
g51
ssV1535
p4832
(dp4833
g94
g14
sg219
g14
ssV1534
p4834
(dp4835
g461
g14
sg1069
g14
ssV645
p4836
(dp4837
sV644
p4838
(dp4839
g116
g6
ssV647
p4840
(dp4841
g94
g14
sg237
g14
ssV1530
p4842
(dp4843
g222
g6
sg629
g6
sg324
g14
ssV649
p4844
(dp4845
g13
g14
sg203
g14
ssV648
p4846
(dp4847
g461
g6
sg175
g14
ssV3098
p4848
(dp4849
g168
g6
ssV1539
p4850
(dp4851
g17
g6
sg3629
g6
ssV1538
p4852
(dp4853
g71
g6
sg1069
g14
ssV339
p4854
(dp4855
g26
g14
ssV338
p4856
(dp4857
g508
g14
ssV335
p4858
(dp4859
g819
g6
sg33
g14
ssV334
p4860
(dp4861
g94
g14
sg9
g6
ssV337
p4862
(dp4863
g94
g14
ssV336
p4864
(dp4865
g32
g14
ssV331
p4866
(dp4867
g511
g14
sg32
g14
ssV330
p4868
(dp4869
sV333
p4870
(dp4871
sV332
p4872
(dp4873
g253
g6
sg26
g6
sg32
g14
ssV1633
p4874
(dp4875
g32
g14
ssV543
p4876
(dp4877
sV3377
p4878
(dp4879
g104
g14
ssV3467
p4880
(dp4881
g94
g14
ssV653
p4882
(dp4883
g32
g14
ssV3195
p4884
(dp4885
sV3464
p4886
(dp4887
g325
g14
sg251
g51
sg5
g6
ssV1085
p4888
(dp4889
g203
g51
ssV8
p4890
(dp4891
g85
g14
sg858
g6
sg160
g14
sg9
g6
sg5
g14
ssV3463
p4892
(dp4893
g94
g14
sg96
g14
ssV1496
p4894
(dp4895
g9
g6
ssV2119
p4896
(dp4897
g13
g14
ssV3462
p4898
(dp4899
g1367
g14
ssV3461
p4900
(dp4901
sV3460
p4902
(dp4903
sV2064
p4904
(dp4905
sV1352
p4906
(dp4907
g341
g14
ssV2854
p4908
(dp4909
g629
g6
sg9
g6
ssV3638
p4910
(dp4911
g71
g14
sg34
g6
sg47
g14
sg165
g14
ssV3639
p4912
(dp4913
g548
g6
sg547
g14
ssV3636
p4914
(dp4915
g94
g51
sg150
g6
sg126
g14
ssV3637
p4916
(dp4917
g13
g14
sg5
g14
ssV3634
p4918
(dp4919
g700
g6
sg43
g14
ssV3635
p4920
(dp4921
g629
g6
sg1198
g6
sg33
g14
ssV3632
p4922
(dp4923
g1706
g51
ssV3633
p4924
(dp4925
g9
g6
ssV3630
p4926
(dp4927
sV3631
p4928
(dp4929
g13
g14
sg47
g6
ssV3469
p4930
(dp4931
sV3468
p4932
(dp4933
g94
g6
sg3520
g6
sg32
g14
ssV2347
p4934
(dp4935
g95
g6
sg197
g6
ssV2341
p4936
(dp4937
g703
g14
sg203
g6
ssV2349
p4938
(dp4939
g547
g14
ssV2348
p4940
(dp4941
g429
g6
sg43
g6
ssV3708
p4942
(dp4943
g253
g6
ssV3709
p4944
(dp4945
sV1889
p4946
(dp4947
sV1888
p4948
(dp4949
g150
g14
sg13
g14
ssV1887
p4950
(dp4951
g1010
g6
sg43
g14
sg13
g14
ssV3703
p4952
(dp4953
g71
g51
sg134
g6
ssV3700
p4954
(dp4955
g13
g6
sg5
g14
ssV1884
p4956
(dp4957
g17
g14
ssV3706
p4958
(dp4959
g348
g14
ssV3707
p4960
(dp4961
g616
g14
ssV3704
p4962
(dp4963
sV3705
p4964
(dp4965
g13
g14
ssV2121
p4966
(dp4967
sV2120
p4968
(dp4969
sV2123
p4970
(dp4971
sV2122
p4972
(dp4973
g616
g6
sg26
g14
ssV2125
p4974
(dp4975
g26
g6
ssV2124
p4976
(dp4977
sV2127
p4978
(dp4979
g17
g14
sg100
g14
ssV949
p4980
(dp4981
g202
g14
sg751
g14
sg104
g14
ssV946
p4982
(dp4983
g168
g6
ssV2128
p4984
(dp4985
g26
g51
sg39
g14
sg9
g6
ssV944
p4986
(dp4987
g511
g6
ssV945
p4988
(dp4989
g1010
g6
sg9
g6
ssV942
p4990
(dp4991
g12
g6
ssV943
p4992
(dp4993
g104
g6
ssV940
p4994
(dp4995
sV941
p4996
(dp4997
g9
g6
ssV1594
p4998
(dp4999
g94
g14
ssV642
p5000
(dp5001
sV565
p5002
(dp5003
g4049
g51
ssV2653
p5004
(dp5005
g17
g6
sg616
g6
sg12
g14
sg83
g6
sg23
g14
sg556
g51
ssV2652
p5006
(dp5007
g95
g6
sg32
g14
ssV2651
p5008
(dp5009
g43
g14
sg13
g14
ssV2650
p5010
(dp5011
g629
g14
sg13
g14
ssV2657
p5012
(dp5013
g3079
g6
sg906
g51
ssV2656
p5014
(dp5015
g13
g14
ssV2655
p5016
(dp5017
g547
g6
ssV2654
p5018
(dp5019
g119
g14
ssV133
p5020
(dp5021
g96
g14
ssV3417
p5022
(dp5023
g17
g14
sg32
g14
ssV3414
p5024
(dp5025
g94
g51
sg66
g14
ssV3415
p5026
(dp5027
sV137
p5028
(dp5029
g13
g14
ssV3413
p5030
(dp5031
g116
g14
sg32
g6
ssV3410
p5032
(dp5033
g120
g14
ssV134
p5034
(dp5035
g94
g14
ssV139
p5036
(dp5037
g94
g14
sg9
g14
ssV138
p5038
(dp5039
g13
g14
ssV3418
p5040
(dp5041
g100
g6
ssV3419
p5042
(dp5043
sV2019
p5044
(dp5045
g29
g14
ssV2018
p5046
(dp5047
g139
g14
ssV2015
p5048
(dp5049
g43
g14
sg33
g14
ssV2017
p5050
(dp5051
g278
g6
ssV2016
p5052
(dp5053
g71
g6
ssV2011
p5054
(dp5055
g237
g6
sg111
g6
sg17
g14
ssV2010
p5056
(dp5057
g1195
g14
sg1201
g6
sg32
g6
sg1721
g6
sg43
g14
sg348
g6
ssV2012
p5058
(dp5059
g94
g14
sg76
g14
ssV1591
p5060
(dp5061
sV2926
p5062
(dp5063
sV3562
p5064
(dp5065
g511
g6
sg34
g6
ssV3563
p5066
(dp5067
g94
g6
sg772
g6
sg111
g6
sg831
g6
ssV3561
p5068
(dp5069
g666
g14
sg111
g6
ssV3566
p5070
(dp5071
sV3567
p5072
(dp5073
sV3564
p5074
(dp5075
g85
g14
sg34
g6
ssV3565
p5076
(dp5077
g110
g14
ssV2903
p5078
(dp5079
g94
g14
sg197
g14
ssV2902
p5080
(dp5081
g94
g14
sg629
g6
sg368
g6
sg34
g14
ssV2901
p5082
(dp5083
g1885
g6
sg96
g14
sg32
g14
sg94
g51
sg319
g6
sg151
g6
ssV2900
p5084
(dp5085
g450
g14
ssV2907
p5086
(dp5087
g76
g6
sg133
g14
sg9
g6
ssV709
p5088
(dp5089
g94
g14
sg12
g6
ssV2905
p5090
(dp5091
g103
g14
sg219
g6
sg104
g14
ssV2904
p5092
(dp5093
g42
g6
sg100
g14
ssV704
p5094
(dp5095
g12
g6
sg171
g6
ssV705
p5096
(dp5097
g94
g14
sg278
g6
ssV706
p5098
(dp5099
g85
g6
ssV2908
p5100
(dp5101
sV700
p5102
(dp5103
g234
g14
ssV701
p5104
(dp5105
g171
g6
ssV702
p5106
(dp5107
g94
g14
sg96
g6
sg168
g6
ssV703
p5108
(dp5109
g83
g6
sg197
g6
sg518
g51
sg32
g14
ssV89
p5110
(dp5111
g94
g14
sg104
g6
sg103
g14
sg9
g6
sg111
g6
ssV82
p5112
(dp5113
g208
g14
sg104
g14
ssV83
p5114
(dp5115
g12
g6
ssV80
p5116
(dp5117
sV81
p5118
(dp5119
sV87
p5120
(dp5121
g325
g6
sg32
g14
ssV84
p5122
(dp5123
g202
g14
ssV85
p5124
(dp5125
sV1659
p5126
(dp5127
sV1652
p5128
(dp5129
g12
g6
sg96
g51
sg13
g14
sg9
g14
ssV1653
p5130
(dp5131
sV1650
p5132
(dp5133
g26
g14
ssV1651
p5134
(dp5135
g72
g14
ssV1656
p5136
(dp5137
sV1654
p5138
(dp5139
g151
g6
ssV1655
p5140
(dp5141
g26
g6
sg13
g6
ssV586
p5142
(dp5143
sV1630
p5144
(dp5145
g244
g6
ssV584
p5146
(dp5147
g253
g6
sg96
g14
sg9
g6
ssV585
p5148
(dp5149
g76
g6
ssV582
p5150
(dp5151
g666
g14
sg197
g14
ssV583
p5152
(dp5153
sV580
p5154
(dp5155
g121
g6
ssV1631
p5156
(dp5157
g103
g14
sg175
g6
sg104
g6
ssV1632
p5158
(dp5159
g548
g14
ssV588
p5160
(dp5161
g94
g14
sg9
g6
sg33
g14
ssV589
p5162
(dp5163
sV3150
p5164
(dp5165
g338
g6
ssV3157
p5166
(dp5167
g1689
g51
sg71
g14
sg858
g6
ssV3156
p5168
(dp5169
g1010
g14
ssV2839
p5170
(dp5171
g32
g14
sg368
g14
sg34
g6
ssV3154
p5172
(dp5173
g1689
g6
sg602
g14
ssV1982
p5174
(dp5175
sV2835
p5176
(dp5177
g222
g6
sg13
g14
sg518
g51
sg9
g14
ssV2834
p5178
(dp5179
sV2833
p5180
(dp5181
g85
g14
ssV2832
p5182
(dp5183
g94
g14
sg9
g6
ssV2831
p5184
(dp5185
g629
g6
sg107
g14
ssV2830
p5186
(dp5187
sV1436
p5188
(dp5189
g17
g14
sg42
g6
sg29
g14
ssV3030
p5190
(dp5191
sV1434
p5192
(dp5193
g94
g14
sg13
g14
sg42
g14
sg18
g6
ssV1435
p5194
(dp5195
g94
g6
sg42
g6
sg234
g6
sg29
g6
ssV1432
p5196
(dp5197
g253
g6
sg32
g6
ssV1433
p5198
(dp5199
g341
g14
sg565
g6
ssV1430
p5200
(dp5201
g94
g14
sg565
g6
sg39
g14
sg13
g14
sg1528
g6
sg111
g6
ssV1431
p5202
(dp5203
sV1380
p5204
(dp5205
sV1981
p5206
(dp5207
sV1438
p5208
(dp5209
g94
g14
sg508
g14
sg13
g14
ssV1439
p5210
(dp5211
g94
g14
sg17
g14
sg3629
g14
ssV1541
p5212
(dp5213
sV458
p5214
(dp5215
g32
g14
ssV1349
p5216
(dp5217
g429
g6
sg84
g6
ssV450
p5218
(dp5219
sV451
p5220
(dp5221
g134
g6
sg175
g14
ssV452
p5222
(dp5223
sV453
p5224
(dp5225
g666
g14
sg324
g14
ssV454
p5226
(dp5227
g18
g51
sg34
g6
ssV1345
p5228
(dp5229
g508
g6
ssV1346
p5230
(dp5231
g165
g14
sg43
g6
ssV457
p5232
(dp5233
g43
g14
ssV3702
p5234
(dp5235
g71
g14
ssV1082
p5236
(dp5237
g17
g14
ssV1885
p5238
(dp5239
g94
g14
ssV766
p5240
(dp5241
g1790
g14
ssV2157
p5242
(dp5243
g150
g6
ssV517
p5244
(dp5245
g17
g14
sg104
g6
sg34
g14
ssV3701
p5246
(dp5247
sV3263
p5248
(dp5249
g94
g14
ssV3368
p5250
(dp5251
sV1883
p5252
(dp5253
sV1882
p5254
(dp5255
g518
g14
ssV656
p5256
(dp5257
g700
g6
ssV657
p5258
(dp5259
g85
g14
ssV654
p5260
(dp5261
sV1501
p5262
(dp5263
g324
g14
ssV652
p5264
(dp5265
g461
g14
ssV1507
p5266
(dp5267
sV650
p5268
(dp5269
g111
g6
ssV651
p5270
(dp5271
sV3085
p5272
(dp5273
g13
g14
sg398
g14
ssV3084
p5274
(dp5275
g94
g14
sg120
g14
ssV3087
p5276
(dp5277
g151
g6
sg160
g6
sg5
g14
sg319
g6
sg168
g14
ssV1509
p5278
(dp5279
g76
g14
ssV767
p5280
(dp5281
g94
g51
sg66
g14
sg203
g14
sg111
g14
ssV3080
p5282
(dp5283
g94
g14
ssV658
p5284
(dp5285
g13
g14
ssV3082
p5286
(dp5287
g32
g14
ssV1886
p5288
(dp5289
g9
g6
ssV314
p5290
(dp5291
g66
g14
sg23
g51
sg357
g51
ssV1992
p5292
(dp5293
g76
g14
ssV948
p5294
(dp5295
sV55
p5296
(dp5297
sV2126
p5298
(dp5299
g12
g14
sg9
g14
ssV2129
p5300
(dp5301
sV947
p5302
(dp5303
sV495
p5304
(dp5305
sV54
p5306
(dp5307
g906
g51
sg126
g14
ssV188
p5308
(dp5309
g4591
g6
sg9
g6
sg94
g6
sg819
g6
sg596
g6
sg203
g6
sg23
g6
ssV1081
p5310
(dp5311
g342
g6
sg175
g6
sg1003
g6
ssV322
p5312
(dp5313
sV323
p5314
(dp5315
g17
g14
sg501
g14
ssV321
p5316
(dp5317
g13
g14
ssV327
p5318
(dp5319
g32
g6
sg5
g6
ssV324
p5320
(dp5321
sV328
p5322
(dp5323
g13
g6
sg906
g6
ssV329
p5324
(dp5325
g234
g14
sg178
g6
ssV3629
p5326
(dp5327
g47
g14
ssV3628
p5328
(dp5329
sV3621
p5330
(dp5331
g94
g14
ssV2819
p5332
(dp5333
sV3623
p5334
(dp5335
g150
g6
sg18
g6
sg251
g51
sg34
g14
ssV3622
p5336
(dp5337
sV3625
p5338
(dp5339
g94
g14
sg373
g14
sg5
g14
ssV3624
p5340
(dp5341
sV3627
p5342
(dp5343
g97
g14
ssV3626
p5344
(dp5345
g253
g6
sg47
g14
sg13
g14
sg5
g14
ssV1881
p5346
(dp5347
sV2330
p5348
(dp5349
sV2331
p5350
(dp5351
sV2332
p5352
(dp5353
g94
g14
sg12
g6
ssV2333
p5354
(dp5355
g32
g14
sg631
g14
sg34
g14
ssV2334
p5356
(dp5357
g12
g6
sg17
g14
sg43
g6
ssV2335
p5358
(dp5359
g42
g6
ssV2336
p5360
(dp5361
sV2337
p5362
(dp5363
g165
g14
sg1366
g6
ssV2338
p5364
(dp5365
sV1341
p5366
(dp5367
g178
g6
ssV1597
p5368
(dp5369
g253
g6
sg234
g14
ssV2537
p5370
(dp5371
sV3073
p5372
(dp5373
sV1880
p5374
(dp5375
g110
g14
sg13
g14
sg33
g6
sg5
g6
ssV3074
p5376
(dp5377
g629
g51
sg43
g14
sg1198
g6
sg33
g14
ssV1590
p5378
(dp5379
g2111
g6
sg2930
g6
sg203
g6
ssV3710
p5380
(dp5381
g1579
g6
sg126
g6
ssV3077
p5382
(dp5383
sV3078
p5384
(dp5385
sV2711
p5386
(dp5387
sV2955
p5388
(dp5389
g325
g6
sg13
g14
ssV2488
p5390
(dp5391
g896
g6
sg518
g14
sg897
g6
sg348
g51
ssV2486
p5392
(dp5393
sV2487
p5394
(dp5395
g111
g6
sg175
g51
sg100
g14
sg34
g6
ssV2484
p5396
(dp5397
g1195
g14
sg816
g6
ssV2485
p5398
(dp5399
g216
g14
sg17
g14
sg591
g6
sg22
g6
sg278
g6
ssV2482
p5400
(dp5401
g42
g6
ssV2483
p5402
(dp5403
g175
g6
ssV1598
p5404
(dp5405
sV3252
p5406
(dp5407
sV2248
p5408
(dp5409
sV2249
p5410
(dp5411
g94
g14
sg772
g6
sg23
g6
sg773
g6
sg209
g6
ssV2244
p5412
(dp5413
g171
g6
sg172
g6
sg42
g6
sVThai noodles
p5414
g6
ssV2245
p5415
(dp5416
g9
g6
ssV2246
p5417
(dp5418
sV2247
p5419
(dp5420
sV2240
p5421
(dp5422
g94
g14
sg508
g14
sg9
g6
ssV2241
p5423
(dp5424
g97
g6
ssV2242
p5425
(dp5426
g13
g14
sg84
g6
ssV2243
p5427
(dp5428
g12
g6
ssV2464
p5429
(dp5430
sV2465
p5431
(dp5432
sV997
p5433
(dp5434
g13
g51
ssV2467
p5435
(dp5436
g94
g14
sg104
g14
ssV991
p5437
(dp5438
g12
g6
ssV2461
p5439
(dp5440
sV993
p5441
(dp5442
sV992
p5443
(dp5444
g13
g6
sg601
g14
sg84
g51
ssV2468
p5445
(dp5446
g94
g51
ssV2469
p5447
(dp5448
g858
g6
sg75
g14
ssV3401
p5449
(dp5450
g1060
g6
sg42
g6
ssV3253
p5451
(dp5452
g32
g6
ssV122
p5453
(dp5454
sV123
p5455
(dp5456
sV124
p5457
(dp5458
g94
g14
ssV3404
p5459
(dp5460
g94
g14
sg13
g14
ssV126
p5461
(dp5462
g5
g6
ssV127
p5463
(dp5464
g119
g14
sg580
g14
sg100
g14
ssV128
p5465
(dp5466
g42
g6
sg22
g14
ssV129
p5467
(dp5468
g565
g6
ssV1020
p5469
(dp5470
sV3379
p5471
(dp5472
g94
g14
sg13
g14
ssV132
p5473
(dp5474
g94
g6
sg234
g14
sg9
g6
ssV1189
p5475
(dp5476
sV131
p5477
(dp5478
sV2068
p5479
(dp5480
g13
g14
ssV2069
p5481
(dp5482
sV2798
p5483
(dp5484
g219
g14
ssV2799
p5485
(dp5486
g12
g6
ssV1187
p5487
(dp5488
sV2792
p5489
(dp5490
sV2061
p5491
(dp5492
sV2790
p5493
(dp5494
g94
g14
ssV2063
p5495
(dp5496
g107
g14
ssV2796
p5497
(dp5498
g94
g14
ssV2797
p5499
(dp5500
g94
g6
sg13
g14
ssV2066
p5501
(dp5502
g100
g6
ssV2067
p5503
(dp5504
g9
g6
ssV3374
p5505
(dp5506
g13
g14
ssV135
p5507
(dp5508
g22
g6
sg234
g6
sg172
g6
sg100
g14
ssV3373
p5509
(dp5510
g104
g14
ssV3411
p5511
(dp5512
g858
g14
sg511
g14
ssV1183
p5513
(dp5514
sV1086
p5515
(dp5516
sV3370
p5517
(dp5518
g253
g6
sg47
g14
sg34
g14
ssV3579
p5519
(dp5520
g1023
g6
ssV3578
p5521
(dp5522
g94
g6
sg13
g14
sg9
g14
sg5
g6
ssV3575
p5523
(dp5524
g751
g6
sg544
g14
ssV3574
p5525
(dp5526
g76
g14
sg357
g6
ssV3577
p5527
(dp5528
sV3576
p5529
(dp5530
g84
g6
ssV3571
p5531
(dp5532
g94
g14
sg9
g6
ssV3570
p5533
(dp5534
g5
g14
ssV3573
p5535
(dp5536
g5
g14
ssV3572
p5537
(dp5538
g751
g14
sg461
g14
ssV2666
p5539
(dp5540
g234
g6
sg33
g14
ssV2667
p5541
(dp5542
g450
g6
sg9
g6
ssV2664
p5543
(dp5544
sV2665
p5545
(dp5546
g13
g14
ssV2662
p5547
(dp5548
sV2663
p5549
(dp5550
g1195
g6
sg253
g6
sg134
g6
sg13
g14
sg703
g6
ssV1748
p5551
(dp5552
g9
g14
sg47
g6
ssV2668
p5553
(dp5554
g751
g14
sg731
g14
ssV2669
p5555
(dp5556
sV3668
p5557
(dp5558
g42
g14
ssV2938
p5559
(dp5560
g76
g6
sg501
g14
sg544
g14
sg9
g6
sg34
g6
ssV2939
p5561
(dp5562
g94
g14
sg23
g14
sg111
g6
ssV2936
p5563
(dp5564
g119
g6
ssV3257
p5565
(dp5566
g97
g6
sg565
g6
sg13
g14
ssV2934
p5567
(dp5568
sV2935
p5569
(dp5570
g13
g14
sg631
g6
sg348
g14
ssV2932
p5571
(dp5572
g751
g14
ssV2933
p5573
(dp5574
sV2930
p5575
(dp5576
g703
g6
sg13
g14
ssV2931
p5577
(dp5578
g94
g14
sg83
g6
ssV3595
p5579
(dp5580
g94
g14
ssV1645
p5581
(dp5582
g26
g51
sg23
g51
sg251
g6
sg511
g6
sg34
g14
ssV1644
p5583
(dp5584
sV1647
p5585
(dp5586
g1195
g6
ssV1646
p5587
(dp5588
sV1641
p5589
(dp5590
g484
g6
sg731
g6
ssV1640
p5591
(dp5592
sV1643
p5593
(dp5594
g17
g14
sg22
g6
ssV1642
p5595
(dp5596
g133
g6
sg666
g14
sg116
g6
ssV1649
p5597
(dp5598
g17
g14
sg26
g14
sg13
g14
ssV1648
p5599
(dp5600
sV1742
p5601
(dp5602
sV729
p5603
(dp5604
g12
g6
sg96
g14
ssV579
p5605
(dp5606
g216
g14
sg244
g6
ssV604
p5607
(dp5608
g50
g6
sg695
g14
ssV573
p5609
(dp5610
g9
g6
sg104
g6
ssV572
p5611
(dp5612
sV571
p5613
(dp5614
g203
g51
ssV570
p5615
(dp5616
sV576
p5617
(dp5618
g511
g6
ssV575
p5619
(dp5620
sV574
p5621
(dp5622
g12
g6
ssV2808
p5623
(dp5624
g94
g6
ssV2809
p5625
(dp5626
g13
g14
ssV3168
p5627
(dp5628
g1689
g14
sg126
g14
ssV3169
p5629
(dp5630
g1689
g6
sg342
g6
sg13
g14
ssV2802
p5631
(dp5632
g43
g14
ssV3167
p5633
(dp5634
g1689
g6
sg33
g14
ssV2800
p5635
(dp5636
sV2801
p5637
(dp5638
g616
g14
sg100
g6
ssV2806
p5639
(dp5640
g666
g14
sg13
g14
sg324
g14
ssV2807
p5641
(dp5642
g13
g14
ssV3160
p5643
(dp5644
g203
g14
ssV3161
p5645
(dp5646
g119
g51
ssV1421
p5647
(dp5648
g32
g14
ssV1420
p5649
(dp5650
g50
g6
ssV1423
p5651
(dp5652
g253
g6
sg32
g14
sg34
g14
ssV1425
p5653
(dp5654
g66
g14
sg5
g14
ssV3369
p5655
(dp5656
g95
g51
ssV1426
p5657
(dp5658
sV3364
p5659
(dp5660
g202
g6
sg95
g14
sg4124
g6
ssV3365
p5661
(dp5662
g858
g6
ssV3366
p5663
(dp5664
g94
g14
sg47
g6
ssV3367
p5665
(dp5666
g183
g14
sg9
g6
ssV3360
p5667
(dp5668
sV939
p5669
(dp5670
g94
g14
ssV3362
p5671
(dp5672
g183
g14
sg819
g14
ssV3363
p5673
(dp5674
g816
g6
ssV731
p5675
(dp5676
g119
g6
sg547
g14
sg33
g14
ssV730
p5677
(dp5678
g94
g6
ssV733
p5679
(dp5680
g484
g6
sg165
g6
sg819
g14
sg13
g14
sg39
g14
ssV732
p5681
(dp5682
sV737
p5683
(dp5684
g461
g6
sg203
g14
sg32
g14
ssV736
p5685
(dp5686
g94
g14
sg13
g14
ssV739
p5687
(dp5688
g94
g14
sg751
g14
sg368
g14
sg175
g14
sg104
g14
ssV2402
p5689
(dp5690
g94
g14
sg219
g14
ssV2151
p5691
(dp5692
g186
g51
ssV1358
p5693
(dp5694
g234
g14
sg172
g6
ssV469
p5695
(dp5696
g325
g6
ssV468
p5697
(dp5698
g13
g6
sg601
g14
sg97
g6
ssV1353
p5699
(dp5700
g94
g14
sg171
g6
sg252
g6
sg83
g6
sg9
g14
ssV464
p5701
(dp5702
g94
g14
sg42
g6
sg744
g14
sg100
g51
ssV467
p5703
(dp5704
g484
g6
sg32
g14
ssV1350
p5705
(dp5706
sV461
p5707
(dp5708
g175
g14
sg116
g14
ssV460
p5709
(dp5710
g59
g14
ssV1355
p5711
(dp5712
sV608
p5713
(dp5714
g666
g14
ssV1273
p5715
(dp5716
g47
g6
ssV937
p5717
(dp5718
sV936
p5719
(dp5720
g726
g14
ssV1519
p5721
(dp5722
g398
g51
sg116
g14
ssV1518
p5723
(dp5724
g94
g51
sg881
g14
sg398
g14
sg13
g14
sg168
g14
ssV1514
p5725
(dp5726
g186
g51
sg398
g14
ssV1517
p5727
(dp5728
g203
g14
sg13
g14
sg324
g14
ssV934
p5729
(dp5730
sV1274
p5731
(dp5732
g1041
g14
ssV1004
p5733
(dp5734
g1885
g6
ssV1798
p5735
(dp5736
g76
g14
sg203
g14
ssV3184
p5737
(dp5738
g94
g14
sg171
g6
sg252
g6
ssV3185
p5739
(dp5740
g175
g14
sg203
g14
ssV3186
p5741
(dp5742
g116
g14
ssV3187
p5743
(dp5744
sV3180
p5745
(dp5746
g222
g6
sg461
g6
ssV3181
p5747
(dp5748
sV3182
p5749
(dp5750
g1060
g14
ssV3183
p5751
(dp5752
g197
g14
ssV3188
p5753
(dp5754
g165
g14
ssV3189
p5755
(dp5756
g208
g6
sg94
g14
ssV3397
p5757
(dp5758
g83
g6
ssV1954
p5759
(dp5760
sV355
p5761
(dp5762
sV353
p5763
(dp5764
sV352
p5765
(dp5766
g47
g14
ssV351
p5767
(dp5768
g19
g14
ssV350
p5769
(dp5770
sV359
p5771
(dp5772
g76
g14
sg47
g14
ssV3107
p5773
(dp5774
g76
g51
sg85
g14
ssV3612
p5775
(dp5776
g186
g6
ssV43
p5777
(dp5778
sV2298
p5779
(dp5780
g116
g14
ssV1033
p5781
(dp5782
sV2323
p5783
(dp5784
g165
g6
sg1366
g14
ssV2322
p5785
(dp5786
g85
g14
ssV2321
p5787
(dp5788
g13
g14
ssV2793
p5789
(dp5790
g338
g14
ssV2325
p5791
(dp5792
g695
g6
sg100
g14
ssV2324
p5793
(dp5794
sV2329
p5795
(dp5796
g183
g14
ssV2328
p5797
(dp5798
g94
g6
sg9
g6
ssV289
p5799
(dp5800
g373
g14
sg33
g14
ssV3618
p5801
(dp5802
g631
g14
sg32
g14
ssV280
p5803
(dp5804
g94
g14
sg9
g51
ssV282
p5805
(dp5806
g76
g6
sg13
g14
sg160
g51
ssV285
p5807
(dp5808
g278
g6
sg9
g6
sg32
g51
ssV284
p5809
(dp5810
g23
g6
sg39
g6
ssV287
p5811
(dp5812
g216
g14
ssV1441
p5813
(dp5814
sV1440
p5815
(dp5816
g338
g6
ssV263
p5817
(dp5818
g32
g14
ssV262
p5819
(dp5820
g32
g14
ssV261
p5821
(dp5822
g134
g6
sg34
g14
ssV260
p5823
(dp5824
g216
g14
ssV267
p5825
(dp5826
g398
g14
ssV266
p5827
(dp5828
g116
g14
ssV265
p5829
(dp5830
sV264
p5831
(dp5832
g94
g14
ssV269
p5833
(dp5834
g84
g6
sg59
g14
ssV268
p5835
(dp5836
g111
g51
sg18
g6
sg34
g14
ssV1290
p5837
(dp5838
sV2499
p5839
(dp5840
sV2498
p5841
(dp5842
g234
g14
sg97
g6
sg175
g14
sg34
g14
ssV2491
p5843
(dp5844
g94
g14
sg9
g14
sg168
g6
ssV1564
p5845
(dp5846
sV2493
p5847
(dp5848
g33
g6
ssV2492
p5849
(dp5850
g42
g14
ssV2495
p5851
(dp5852
g94
g14
sg171
g6
sg252
g6
sg13
g14
sg596
g51
ssV2192
p5853
(dp5854
g630
g14
sg26
g6
sg596
g6
ssV2497
p5855
(dp5856
g171
g6
ssV2496
p5857
(dp5858
g591
g6
sg85
g14
sg1003
g14
ssV2193
p5859
(dp5860
sV1294
p5861
(dp5862
g1041
g6
ssV2259
p5863
(dp5864
g544
g6
sg398
g14
sg32
g14
ssV2258
p5865
(dp5866
sV2257
p5867
(dp5868
sV2256
p5869
(dp5870
g631
g6
ssV2254
p5871
(dp5872
sV2253
p5873
(dp5874
sV2252
p5875
(dp5876
sV2251
p5877
(dp5878
sV2250
p5879
(dp5880
sV2477
p5881
(dp5882
g43
g14
ssV988
p5883
(dp5884
g94
g14
ssV3224
p5885
(dp5886
g858
g14
sg17
g14
ssV2473
p5887
(dp5888
sV2472
p5889
(dp5890
sV2471
p5891
(dp5892
g75
g6
sg234
g6
sg343
g14
sg549
g6
sg160
g14
ssV982
p5893
(dp5894
g17
g14
sg42
g14
ssV983
p5895
(dp5896
g165
g6
sg43
g6
ssV980
p5897
(dp5898
sV981
p5899
(dp5900
g116
g14
sg630
g6
sg111
g14
sg85
g6
sg34
g14
ssV987
p5901
(dp5902
sV984
p5903
(dp5904
g197
g14
ssV985
p5905
(dp5906
g695
g6
ssV115
p5907
(dp5908
sV1790
p5909
(dp5910
g151
g6
sg319
g6
sg32
g6
ssV116
p5911
(dp5912
g94
g14
sg12
g14
sg666
g14
sg104
g6
ssV110
p5913
(dp5914
g103
g14
sg104
g6
ssV3244
p5915
(dp5916
g197
g14
ssV119
p5917
(dp5918
g107
g51
ssV3432
p5919
(dp5920
g139
g14
ssV2785
p5921
(dp5922
g116
g14
ssV2784
p5923
(dp5924
g1885
g6
ssV2787
p5925
(dp5926
g139
g14
ssV2786
p5927
(dp5928
g202
g6
sg165
g6
sg13
g14
ssV2781
p5929
(dp5930
g244
g6
ssV2780
p5931
(dp5932
sV2783
p5933
(dp5934
g165
g14
sg43
g6
sg13
g14
ssV2782
p5935
(dp5936
g94
g51
sg342
g6
ssV2789
p5937
(dp5938
g511
g14
ssV2788
p5939
(dp5940
sV2079
p5941
(dp5942
g94
g14
sg13
g14
sg116
g14
ssV2078
p5943
(dp5944
g165
g6
sg203
g51
sg32
g14
ssV2072
p5945
(dp5946
sV2071
p5947
(dp5948
g2061
g6
ssV2070
p5949
(dp5950
g94
g6
ssV2077
p5951
(dp5952
sV2076
p5953
(dp5954
g234
g14
sg39
g14
sg139
g14
ssV2075
p5955
(dp5956
g325
g14
sg197
g14
ssV1388
p5957
(dp5958
g13
g14
ssV1796
p5959
(dp5960
sV3221
p5961
(dp5962
g253
g6
ssV3508
p5963
(dp5964
g103
g14
sg104
g6
ssV3504
p5965
(dp5966
g186
g14
ssV3505
p5967
(dp5968
g47
g6
ssV3506
p5969
(dp5970
g666
g6
ssV3507
p5971
(dp5972
g96
g6
ssV2671
p5973
(dp5974
g601
g6
sg518
g6
ssV2670
p5975
(dp5976
sV2673
p5977
(dp5978
sV2672
p5979
(dp5980
g521
g14
sg34
g6
ssV2675
p5981
(dp5982
sV2674
p5983
(dp5984
g1642
g6
sg348
g51
ssV2677
p5985
(dp5986
g1003
g14
sg398
g14
sg32
g14
ssV2676
p5987
(dp5988
g253
g6
sg43
g14
sg831
g6
sg134
g14
ssV1209
p5989
(dp5990
sV3220
p5991
(dp5992
g29
g6
ssV2929
p5993
(dp5994
sV2928
p5995
(dp5996
g338
g6
ssV2921
p5997
(dp5998
g94
g14
ssV2920
p5999
(dp6000
sV2923
p6001
(dp6002
g744
g14
ssV2922
p6003
(dp6004
sV2925
p6005
(dp6006
g17
g14
ssV2924
p6007
(dp6008
g94
g14
sg547
g14
ssV2927
p6009
(dp6010
g630
g14
sg209
g6
sg601
g14
sg13
g14
sg773
g6
sg772
g6
ssV2564
p6011
(dp6012
g348
g6
ssV1208
p6013
(dp6014
g631
g14
sg34
g14
ssV708
p6015
(dp6016
g13
g14
ssV2906
p6017
(dp6018
g50
g14
sg4049
g6
ssV1986
p6019
(dp6020
g160
g14
sg9
g6
ssV1987
p6021
(dp6022
g9
g14
sg94
g14
sg744
g6
sg731
g14
sg119
g6
sg1367
g6
sg23
g6
sg111
g14
ssV3216
p6023
(dp6024
g29
g6
sg22
g14
ssV1985
p6025
(dp6026
g342
g6
sg104
g6
ssV1634
p6027
(dp6028
g94
g14
sg17
g14
ssV3211
p6029
(dp6030
g751
g6
sg76
g14
sg521
g14
sg5
g6
ssV1980
p6031
(dp6032
sV3213
p6033
(dp6034
sV1638
p6035
(dp6036
g94
g14
sg12
g6
ssV1639
p6037
(dp6038
g110
g14
sg103
g14
sg104
g6
ssV3218
p6039
(dp6040
sV3219
p6041
(dp6042
g94
g14
sg96
g14
sg9
g14
ssV1988
p6043
(dp6044
sV1989
p6045
(dp6046
g629
g6
sg544
g6
sg5
g14
ssV3222
p6047
(dp6048
sV2909
p6049
(dp6050
g450
g6
ssV568
p6051
(dp6052
g76
g14
ssV569
p6053
(dp6054
g33
g14
ssV2817
p6055
(dp6056
g398
g14
ssV2811
p6057
(dp6058
sV2810
p6059
(dp6060
sV2812
p6061
(dp6062
g183
g14
sg1038
g14
sg110
g14
ssV560
p6063
(dp6064
g17
g14
sg43
g6
ssV561
p6065
(dp6066
g197
g14
sg816
g6
ssV562
p6067
(dp6068
g751
g6
sg76
g14
sg43
g6
sg34
g14
ssV563
p6069
(dp6070
g76
g14
sg85
g6
sg116
g6
ssV564
p6071
(dp6072
g76
g51
ssV2818
p6073
(dp6074
g94
g6
sg9
g6
sg203
g14
ssV566
p6075
(dp6076
g4049
g14
ssV567
p6077
(dp6078
g342
g51
ssV3178
p6079
(dp6080
g13
g14
ssV3171
p6081
(dp6082
sV3170
p6083
(dp6084
sV3173
p6085
(dp6086
sV3172
p6087
(dp6088
g1689
g6
sg33
g14
ssV3175
p6089
(dp6090
g9
g6
ssV3174
p6091
(dp6092
g9
g6
ssV3177
p6093
(dp6094
g325
g6
sg1090
g6
sg171
g6
sg13
g14
ssV3176
p6095
(dp6096
sV659
p6097
(dp6098
sV1188
p6099
(dp6100
g94
g14
sg9
g6
ssV3378
p6101
(dp6102
g751
g14
ssV1186
p6103
(dp6104
g76
g14
sg308
g14
ssV3376
p6105
(dp6106
sV3375
p6107
(dp6108
g1195
g51
ssV1185
p6109
(dp6110
g165
g14
sg43
g6
sg13
g14
ssV1182
p6111
(dp6112
g94
g14
sg234
g14
ssV3372
p6113
(dp6114
g203
g14
ssV3371
p6115
(dp6116
g244
g14
sg151
g6
sg111
g14
sg319
g6
sg47
g6
ssV1181
p6117
(dp6118
g94
g14
sg13
g14
sg601
g14
sg544
g14
ssV726
p6119
(dp6120
sV727
p6121
(dp6122
g94
g14
sg26
g14
ssV722
p6123
(dp6124
g208
g14
ssV723
p6125
(dp6126
g511
g14
ssV720
p6127
(dp6128
g13
g14
ssV721
p6129
(dp6130
g110
g14
ssV1745
p6131
(dp6132
sV1746
p6133
(dp6134
g219
g14
sg596
g6
ssV1747
p6135
(dp6136
g2298
g14
sg116
g6
ssV1740
p6137
(dp6138
g816
g14
ssV1741
p6139
(dp6140
sV728
p6141
(dp6142
g17
g14
ssV1743
p6143
(dp6144
g71
g14
sg47
g14
ssV1164
p6145
(dp6146
g94
g14
sg219
g14
sg85
g6
ssV1165
p6147
(dp6148
sV1166
p6149
(dp6150
g13
g14
ssV1167
p6151
(dp6152
g160
g14
ssV1160
p6153
(dp6154
sV1161
p6155
(dp6156
g398
g14
ssV1162
p6157
(dp6158
g96
g6
ssV1163
p6159
(dp6160
g9
g6
ssV1168
p6161
(dp6162
g76
g14
sg22
g6
sg5
g14
ssV1169
p6163
(dp6164
g3079
g6
ssV3092
p6165
(dp6166
sV1489
p6167
(dp6168
sV1366
p6169
(dp6170
g116
g14
sg9
g6
sg168
g6
ssV3305
p6171
(dp6172
sV473
p6173
(dp6174
sV46
p6175
(dp6176
g94
g14
sg66
g14
sg342
g51
ssV47
p6177
(dp6178
g50
g14
sg13
g14
ssV44
p6179
(dp6180
g13
g14
ssV45
p6181
(dp6182
g9
g6
sg197
g14
ssV42
p6183
(dp6184
sV2034
p6185
(dp6186
g13
g14
sg219
g6
ssV40
p6187
(dp6188
g84
g6
ssV41
p6189
(dp6190
g94
g6
sg9
g6
ssV1568
p6191
(dp6192
g1642
g14
ssV1569
p6193
(dp6194
g33
g51
ssV1298
p6195
(dp6196
sV1299
p6197
(dp6198
g150
g6
sg251
g6
ssV1587
p6199
(dp6200
sV1560
p6201
(dp6202
sV476
p6203
(dp6204
g126
g6
ssV1562
p6205
(dp6206
g13
g14
ssV1563
p6207
(dp6208
g94
g14
ssV1296
p6209
(dp6210
g12
g14
sg203
g51
ssV1565
p6211
(dp6212
g461
g6
sg630
g6
ssV1566
p6213
(dp6214
g94
g14
ssV1295
p6215
(dp6216
g9
g14
ssV1713
p6217
(dp6218
g94
g14
sg237
g6
sg96
g14
sg83
g6
sg5
g14
ssV3191
p6219
(dp6220
sV796
p6221
(dp6222
g94
g14
ssV591
p6223
(dp6224
g373
g6
ssV3190
p6225
(dp6226
g596
g14
sg5
g51
ssV795
p6227
(dp6228
sV1381
p6229
(dp6230
g18
g6
sg100
g51
sg34
g14
ssV1716
p6231
(dp6232
g13
g14
ssV1715
p6233
(dp6234
sV790
p6235
(dp6236
g94
g14
ssV472
p6237
(dp6238
g216
g14
sg119
g6
sg42
g6
sg34
g51
ssV3196
p6239
(dp6240
sV470
p6241
(dp6242
sV471
p6243
(dp6244
g244
g6
sg1168
g6
sg42
g6
sg508
g14
ssV3193
p6245
(dp6246
g9
g6
sg5
g14
ssV1363
p6247
(dp6248
g94
g14
ssV474
p6249
(dp6250
g94
g51
sg461
g14
sg831
g6
sg9
g6
ssV475
p6251
(dp6252
g1579
g14
sg150
g6
sg33
g14
ssV479
p6253
(dp6254
sV2916
p6255
(dp6256
g234
g14
sg278
g14
ssV3199
p6257
(dp6258
g338
g6
sg5
g6
ssV3198
p6259
(dp6260
g29
g14
ss.