(dp0
S'643'
p1
(dp2
sS'344'
p3
(dp4
Vpeople
p5
(dp6
Vmilitary_service
p7
S'neutral'
p8
sssS'345'
p9
(dp10
Vservice
p11
(dp12
Vservice
p13
g8
sssS'346'
p14
(dp15
Vis
p16
(dp17
Vatmosphere
p18
g8
sVprice
p19
g8
ssVplace
p20
(dp21
g18
S'negative'
p22
sssS'347'
p23
(dp24
sS'340'
p25
(dp26
Vwas
p27
(dp28
Vfood
p29
g8
sVambiance
p30
g8
ssVit
p31
(dp32
g29
g8
sssS'341'
p33
(dp34
Vseasoning
p35
(dp36
Vfood
p37
S'positive'
p38
ssVbland
p39
(dp40
g37
g8
ssVsushi
p41
(dp42
g37
g22
sssS'342'
p43
(dp44
Vfish
p45
(dp46
Vfood
p47
g8
sssS'343'
p48
(dp49
Videa
p50
(dp51
Vfood
p52
g22
sssS'348'
p53
(dp54
sS'349'
p55
(dp56
sS'2318'
p57
(dp58
sS'2316'
p59
(dp60
Vdinner
p61
(dp62
Vfood
p63
g8
sssS'2317'
p64
(dp65
Vbig
p66
(dp67
Vfood
p68
g8
sssS'2314'
p69
(dp70
Vgreat
p71
(dp72
Vservice
p73
g8
ssVservice
p74
(dp75
g73
g8
sssS'2315'
p76
(dp77
Vcute
p78
(dp79
Vfood
p80
g8
ssVit
p81
(dp82
g80
g8
sssS'2312'
p83
(dp84
sS'2311'
p85
(dp86
VI
p87
(dp88
Vfood
p89
g8
sVprice
p90
g8
ssVbad
p91
(dp92
g90
g8
ssVthink
p93
(dp94
g89
g8
sg90
g8
sssS'2184'
p95
(dp96
Vmartini
p97
(dp98
Vfood
p99
g22
sssS'298'
p100
(dp101
sS'299'
p102
(dp103
Vbenedict
p104
(dp105
Vfood
p106
g22
sVservice
p107
g22
ssVservice
p108
(dp109
g107
g8
sssS'296'
p110
(dp111
sS'297'
p112
(dp113
Vwater
p114
(dp115
Vfood
p116
g8
sVoverhaul
p117
g8
ssVglass
p118
(dp119
g116
g22
sg117
g22
sVservice
p120
g22
ssVnightmare
p121
(dp122
g116
g22
sVatmosphere
p123
g22
sg117
g22
sg120
g22
ssVconclusion
p124
(dp125
g117
g8
sssS'294'
p126
(dp127
Vstrikes
p128
(dp129
Vservice
p130
g22
sssS'295'
p131
(dp132
Vup
p133
(dp134
Vprice
p135
g8
sssS'292'
p136
(dp137
sS'293'
p138
(dp139
sS'291'
p140
(dp141
sS'587'
p142
(dp143
sS'270'
p144
(dp145
sS'271'
p146
(dp147
Vjob
p148
(dp149
Vservice
p150
g22
sssS'272'
p151
(dp152
sS'273'
p153
(dp154
Vparty
p155
(dp156
Vprice
p157
g38
sVmilitary_service
p158
g38
ssVmade
p159
(dp160
g157
g8
ssVit
p161
(dp162
Vfood
p163
g8
sg157
g8
sg158
g8
ssVmemorable
p164
(dp165
g163
g8
sg157
g8
sg158
g8
sssS'274'
p166
(dp167
sS'275'
p168
(dp169
sS'276'
p170
(dp171
sS'277'
p172
(dp173
Vscallops
p174
(dp175
Vfood
p176
g8
sssS'278'
p177
(dp178
sS'279'
p179
(dp180
VColonies
p181
(dp182
Vfood
p183
g22
sVatmosphere
p184
g22
sVambiance
p185
g22
ssVit
p186
(dp187
g183
g8
sg184
g8
ssVway
p188
(dp189
g184
g22
sssS'58'
p190
(dp191
Vbeer
p192
(dp193
Vfood
p194
g38
sssS'2268'
p195
(dp196
sS'2269'
p197
(dp198
Vcram
p199
(dp200
Vfood
p201
g8
sVprice
p202
g8
ssVit
p203
(dp204
g201
g8
ssVuncomfortable
p205
(dp206
g201
g8
sssS'2262'
p207
(dp208
Vroll
p209
(dp210
Vfood
p211
g22
ssVtempura
p212
(dp213
g211
g22
sssS'2263'
p214
(dp215
Vservice
p216
(dp217
Vservice
p218
g8
sssS'2260'
p219
(dp220
Vdifference
p221
(dp222
Vprice
p223
g22
sssS'2261'
p224
(dp225
Vlist
p226
(dp227
Vprice
p228
g22
sssS'2267'
p229
(dp230
Vtouch
p231
(dp232
Vatmosphere
p233
g22
sVservice
p234
g22
ssVatmosphere
p235
(dp236
g233
g22
sssS'2442'
p237
(dp238
sS'2443'
p239
(dp240
sS'2440'
p241
(dp242
sS'2441'
p243
(dp244
g87
(dp245
Vfood
p246
g8
ssVlover
p247
(dp248
g246
g8
sVservice
p249
g8
sssS'2446'
p250
(dp251
Vthing
p252
(dp253
Vfood
p254
g22
sssS'2447'
p255
(dp256
sS'2444'
p257
(dp258
Vsecret
p259
(dp260
Vatmosphere
p261
g8
ssVappetizer
p262
(dp263
Vfood
p264
g22
sg261
g22
sssS'2445'
p265
(dp266
Vbill
p267
(dp268
Vservice
p269
g22
sssS'2448'
p270
(dp271
VThai
p272
(dp273
Vservice
p274
g8
ssVPad
p275
(dp276
g274
g22
sssS'2449'
p277
(dp278
Vmeal
p279
(dp280
Vfood
p281
g22
ssVnice
p282
(dp283
g281
g8
sVambiance
p284
g8
sssS'2189'
p285
(dp286
Vstar
p287
(dp288
Vservice
p289
g22
ssVService
p290
(dp291
g289
g8
sssS'109'
p292
(dp293
Vsalads
p294
(dp295
Vfood
p296
g8
sssS'102'
p297
(dp298
sS'103'
p299
(dp300
Vkitchen
p301
(dp302
Vservice
p303
g8
sssS'101'
p304
(dp305
Vhe
p306
(dp307
Vfood
p308
g8
sVservice
p309
g8
ssVsign
p310
(dp311
g308
g22
sVprice
p312
g22
sg309
g22
ssVused
p313
(dp314
g308
g8
sg312
g8
sg309
g8
ssVpics
p315
(dp316
g309
g8
sssS'2042'
p317
(dp318
Vprices
p319
(dp320
Vmonetary_value
p321
g8
sssS'2040'
p322
(dp323
VOK
p324
(dp325
Vprice
p326
g8
sssS'2041'
p327
(dp328
Vthing
p329
(dp330
Vfood
p331
g22
sssS'1297'
p332
(dp333
Vrude
p334
(dp335
Vfood
p336
g8
sssS'2839'
p337
(dp338
sS'2838'
p339
(dp340
sS'3159'
p341
(dp342
Vcoffee
p343
(dp344
Vfood
p345
g22
ssVgood
p346
(dp347
g345
g8
sVprice
p348
g8
sssS'3519'
p349
(dp350
Vprices
p351
(dp352
Vmonetary_value
p353
g22
ssVgreat
p354
(dp355
g353
g8
sVservice
p356
g8
sssS'3518'
p357
(dp358
VEw
p359
(dp360
Vservice
p361
g8
sssS'3513'
p362
(dp363
Vservice
p364
(dp365
Vservice
p366
g8
sssS'3512'
p367
(dp368
Vplace
p369
(dp370
Vatmosphere
p371
g38
sssS'3511'
p372
(dp373
Vgentleman
p374
(dp375
Vservice
p376
g22
ssVcame
p377
(dp378
Vprice
p379
g8
sg376
g8
sssS'3510'
p380
(dp381
g87
(dp382
Vfood
p383
g8
ssVwas
p384
(dp385
g383
g8
sVambiance
p386
g8
ssVexperience
p387
(dp388
g383
g22
sg386
g22
sssS'3517'
p389
(dp390
Vfood
p391
(dp392
Vfood
p393
g22
ssVtastes
p394
(dp395
g393
g8
sVservice
p396
g8
sssS'3516'
p397
(dp398
sS'3515'
p399
(dp400
Vrestaurant
p401
(dp402
Vservice
p403
g22
sssS'3514'
p404
(dp405
sS'2688'
p406
(dp407
sS'2689'
p408
(dp409
Vcourse
p410
(dp411
Vfood
p412
g8
sssS'2686'
p413
(dp414
Vplace
p415
(dp416
Vatmosphere
p417
g22
sVservice
p418
g22
ssVservice
p419
(dp420
g418
g8
sssS'2687'
p421
(dp422
Vsuits
p423
(dp424
Vservice
p425
g8
sssS'2681'
p426
(dp427
Vpasta
p428
(dp429
Vfood
p430
g22
sssS'3391'
p431
(dp432
sS'1434'
p433
(dp434
Vfood
p435
(dp436
Vfood
p437
g22
sVatmosphere
p438
g22
ssVplace
p439
(dp440
g438
g22
sssS'98'
p441
(dp442
Vfood
p443
(dp444
Vfood
p445
g22
sssS'3392'
p446
(dp447
sS'91'
p448
(dp449
sS'90'
p450
(dp451
Vmenu
p452
(dp453
Vfood
p454
g22
ssVenough
p455
(dp456
g454
g8
ssVworth
p457
(dp458
g454
g8
sVprice
p459
g8
sssS'93'
p460
(dp461
sS'92'
p462
(dp463
Vplace
p464
(dp465
Vatmosphere
p466
g22
sssS'95'
p467
(dp468
sS'94'
p469
(dp470
sS'97'
p471
(dp472
Vlist
p473
(dp474
Vprice
p475
g22
ssVnice
p476
(dp477
g475
g8
sVambiance
p478
g8
sssS'96'
p479
(dp480
Voperation
p481
(dp482
Vfood
p483
g22
sVservice
p484
g22
ssVit
p485
(dp486
g483
g8
sssS'3207'
p487
(dp488
Vmeal
p489
(dp490
Vfood
p491
g22
sssS'3206'
p492
(dp493
Vdates
p494
(dp495
Vfood
p496
g38
sssS'1621'
p497
(dp498
sS'3204'
p499
(dp500
Voccasion
p501
(dp502
Vservice
p503
g22
sssS'1627'
p504
(dp505
Vservice
p506
(dp507
Vservice
p508
g8
sssS'1994'
p509
(dp510
Vfood
p511
(dp512
Vfood
p513
g38
sssS'1625'
p514
(dp515
sS'1624'
p516
(dp517
Vthing
p518
(dp519
Vfood
p520
g38
sssS'1998'
p521
(dp522
sS'1431'
p523
(dp524
sS'3209'
p525
(dp526
sS'3208'
p527
(dp528
VTokyo
p529
(dp530
Vfood
p531
g8
sVambiance
p532
g8
ssVNight
p533
(dp534
g531
g8
sssS'2860'
p535
(dp536
sS'2861'
p537
(dp538
Vstaff
p539
(dp540
Vmilitary_service
p541
g22
sssS'2862'
p542
(dp543
Vorder
p544
(dp545
Vatmosphere
p546
g22
sssS'2863'
p547
(dp548
Vfrustration
p549
(dp550
Vservice
p551
g8
sssS'2864'
p552
(dp553
sS'558'
p554
(dp555
sS'555'
p556
(dp557
Vplace
p558
(dp559
Vatmosphere
p560
g22
sssS'554'
p561
(dp562
Vare
p563
(dp564
Vprice
p565
g8
sVmilitary_service
p566
g8
ssVpeople
p567
(dp568
g566
g22
sssS'557'
p569
(dp570
sS'556'
p571
(dp572
sS'551'
p573
(dp574
sS'550'
p575
(dp576
sS'553'
p577
(dp578
Vservice
p579
(dp580
Vservice
p581
g22
ssVsat
p582
(dp583
Vprice
p584
g8
sg581
g8
sssS'552'
p585
(dp586
Vglass
p587
(dp588
Vservice
p589
g22
sssS'1199'
p590
(dp591
Vexciting
p592
(dp593
Vfood
p594
g8
sVprice
p595
g8
ssVsauces
p596
(dp597
g594
g38
sssS'1198'
p598
(dp599
Vfish
p600
(dp601
Vfood
p602
g8
ssVis
p603
(dp604
g602
g8
sVprice
p605
g8
ssVvariety
p606
(dp607
g602
g8
sssS'1191'
p608
(dp609
sS'3343'
p610
(dp611
Vfood
p612
(dp613
Vfood
p614
g22
ssVinconsistent
p615
(dp616
g614
g8
sssS'3340'
p617
(dp618
sS'3341'
p619
(dp620
Vwas
p621
(dp622
Vfood
p623
g8
sVambiance
p624
g8
ssVit
p625
(dp626
g623
g8
sssS'1195'
p627
(dp628
Vprices
p629
(dp630
Vmonetary_value
p631
g8
ssVsushi
p632
(dp633
Vfood
p634
g22
sg631
g22
sssS'1194'
p635
(dp636
sS'1197'
p637
(dp638
sS'1196'
p639
(dp640
Vservice
p641
(dp642
Vservice
p643
g8
sssS'1759'
p644
(dp645
Vgot
p646
(dp647
Vprice
p648
g8
sssS'1756'
p649
(dp650
sS'1755'
p651
(dp652
Vgood
p653
(dp654
Vfood
p655
g8
sVprice
p656
g8
ssVpizza
p657
(dp658
g655
g22
sssS'1750'
p659
(dp660
Vend
p661
(dp662
Vfood
p663
g22
sVserve
p664
g22
ssVblock
p665
(dp666
g664
g38
sssS'1177'
p667
(dp668
sS'1176'
p669
(dp670
sS'1175'
p671
(dp672
Vdumplings
p673
(dp674
Vfood
p675
g8
ssVfood
p676
(dp677
g675
g22
ssVplate
p678
(dp679
g675
g22
sVmilitary_service
p680
g22
sVservice
p681
g22
ssVbench
p682
(dp683
g675
g8
sg680
g8
sssS'1174'
p684
(dp685
Vplace
p686
(dp687
Vatmosphere
p688
g22
sssS'1173'
p689
(dp690
sS'1171'
p691
(dp692
sS'1170'
p693
(dp694
sS'1179'
p695
(dp696
sS'1178'
p697
(dp698
sS'511'
p699
(dp700
Vsalty
p701
(dp702
Vfood
p703
g8
ssVravioli
p704
(dp705
g703
g22
sssS'510'
p706
(dp707
sS'1005'
p708
(dp709
Vplaces
p710
(dp711
Vatmosphere
p712
g38
sssS'644'
p713
(dp714
sS'1285'
p715
(dp716
g87
(dp717
Vfood
p718
g8
ssVlive
p719
(dp720
g718
g8
sVprice
p721
g8
sssS'1287'
p722
(dp723
Vmeet
p724
(dp725
Vservice
p726
g8
ssVfriends
p727
(dp728
g726
g8
sssS'1286'
p729
(dp730
Vspot
p731
(dp732
Vservice
p733
g38
sssS'1281'
p734
(dp735
sS'1280'
p736
(dp737
sS'1283'
p738
(dp739
sS'1282'
p740
(dp741
g87
(dp742
Vfood
p743
g8
ssVgot
p744
(dp745
g743
g8
sVprice
p746
g8
sssS'879'
p747
(dp748
sS'1289'
p749
(dp750
sS'1288'
p751
(dp752
Vowners
p753
(dp754
Vfood
p755
g8
sVservice
p756
g8
ssVfriendly
p757
(dp758
g755
g8
sVmilitary_service
p759
g8
sg756
g8
ssVpizza
p760
(dp761
g755
g22
sssS'514'
p762
(dp763
sS'1579'
p764
(dp765
sS'1578'
p766
(dp767
Vfood
p768
(dp769
Vfood
p770
g22
ssVgreat
p771
(dp772
g770
g8
sVservice
p773
g8
sssS'689'
p774
(dp775
Vgood
p776
(dp777
Vfood
p778
g8
sVprice
p779
g8
ssVSaul
p780
(dp781
g778
g8
sssS'688'
p782
(dp783
sS'877'
p784
(dp785
sS'685'
p786
(dp787
Vreviewer
p788
(dp789
Vservice
p790
g22
ssVdined
p791
(dp792
Vprice
p793
g8
sg790
g8
sssS'1572'
p794
(dp795
sS'1571'
p796
(dp797
VIt
p798
(dp799
Vfood
p800
g8
ssVoverpriced
p801
(dp802
g800
g8
sVprice
p803
g8
sssS'686'
p804
(dp805
sS'1577'
p806
(dp807
g87
(dp808
Vfood
p809
g8
ssVstuff
p810
(dp811
g809
g22
ssVthink
p812
(dp813
g809
g8
sssS'680'
p814
(dp815
Vstreet
p816
(dp817
Vatmosphere
p818
g22
sVservice
p819
g22
ssVmore
p820
(dp821
g819
g8
sssS'1575'
p822
(dp823
Ventertainment
p824
(dp825
Vservice
p826
g22
sssS'1574'
p827
(dp828
Vfun
p829
(dp830
Vatmosphere
p831
g8
sVservice
p832
g8
ssVplace
p833
(dp834
g831
g22
sssS'1227'
p835
(dp836
VBagels
p837
(dp838
Vfood
p839
g8
sssS'875'
p840
(dp841
Varrived
p842
(dp843
Vprice
p844
g8
ssVempty
p845
(dp846
g844
g8
sVservice
p847
g8
ssVrestaurant
p848
(dp849
g844
g22
sg847
g22
sssS'2818'
p850
(dp851
sS'622'
p852
(dp853
Vadvice
p854
(dp855
Vatmosphere
p856
g22
sVprice
p857
g22
ssVplace
p858
(dp859
g856
g22
sssS'872'
p860
(dp861
sS'873'
p862
(dp863
sS'3436'
p864
(dp865
Vmenu
p866
(dp867
Vfood
p868
g22
ssVlimited
p869
(dp870
g868
g8
sVservice
p871
g8
sssS'1295'
p872
(dp873
Vservice
p874
(dp875
Vservice
p876
g22
sssS'871'
p877
(dp878
Vit
p879
(dp880
Vfood
p881
g8
ssVdeal
p882
(dp883
g881
g22
sVservice
p884
g22
sssS'2037'
p885
(dp886
sS'2740'
p887
(dp888
sS'1243'
p889
(dp890
sS'2743'
p891
(dp892
Vstreet
p893
(dp894
Vatmosphere
p895
g22
ssVplace
p896
(dp897
g895
g22
sssS'1371'
p898
(dp899
Vtuna
p900
(dp901
Vfood
p902
g22
sssS'1370'
p903
(dp904
sS'1373'
p905
(dp906
sS'404'
p907
(dp908
Vcall
p909
(dp910
Vfood
p911
g8
sVservice
p912
g8
ssVt
p913
(dp914
g911
g8
sssS'1375'
p915
(dp916
sS'1374'
p917
(dp918
sS'1377'
p919
(dp920
sS'400'
p921
(dp922
Vplace
p923
(dp924
Vatmosphere
p925
g8
sssS'1379'
p926
(dp927
Vexemplifies
p928
(dp929
Vfood
p930
g8
sVprice
p931
g8
ssVit
p932
(dp933
g930
g8
sssS'1378'
p934
(dp935
Vservice
p936
(dp937
Vservice
p938
g22
sssS'409'
p939
(dp940
Vwas
p941
(dp942
Vfood
p943
g8
sVambiance
p944
g8
ssVit
p945
(dp946
g943
g8
sssS'408'
p947
(dp948
Vrice
p949
(dp950
Vfood
p951
g22
sssS'453'
p952
(dp953
sS'1344'
p954
(dp955
Vheat
p956
(dp957
Vatmosphere
p958
g8
sssS'2192'
p959
(dp960
sS'2746'
p961
(dp962
Vfish
p963
(dp964
Vfood
p965
g8
sssS'1245'
p966
(dp967
sS'265'
p968
(dp969
sS'379'
p970
(dp971
sS'378'
p972
(dp973
Vfish
p974
(dp975
Vfood
p976
g8
sssS'370'
p977
(dp978
sS'375'
p979
(dp980
sS'377'
p981
(dp982
sS'391'
p983
(dp984
sS'390'
p985
(dp986
sS'397'
p987
(dp988
Vroll
p989
(dp990
Vfood
p991
g22
sssS'396'
p992
(dp993
Vbecame
p994
(dp995
Vprice
p996
g8
sssS'395'
p997
(dp998
sS'394'
p999
(dp1000
Vassortment
p1001
(dp1002
Vservice
p1003
g8
sssS'2309'
p1004
(dp1005
sS'2308'
p1006
(dp1007
g87
(dp1008
Vfood
p1009
g8
ssVrecommend
p1010
(dp1011
g1009
g8
sVprice
p1012
g8
sssS'2301'
p1013
(dp1014
sS'2300'
p1015
(dp1016
Vtime
p1017
(dp1018
Vatmosphere
p1019
g22
sssS'2303'
p1020
(dp1021
Vdoor
p1022
(dp1023
Vservice
p1024
g22
sssS'2302'
p1025
(dp1026
Vmeal
p1027
(dp1028
Vfood
p1029
g8
sssS'2305'
p1030
(dp1031
sS'2304'
p1032
(dp1033
Vare
p1034
(dp1035
Vprice
p1036
g8
sssS'2307'
p1037
(dp1038
Vpans
p1039
(dp1040
Vfood
p1041
g8
ssVsize
p1042
(dp1043
g1041
g22
sVatmosphere
p1044
g22
sssS'2306'
p1045
(dp1046
Vfood
p1047
(dp1048
Vfood
p1049
g22
sssS'247'
p1050
(dp1051
Vfood
p1052
(dp1053
Vfood
p1054
g22
ssVlife
p1055
(dp1056
g1054
g22
sVambiance
p1057
g22
ssVShanghai
p1058
(dp1059
g1054
g8
sg1057
g8
sssS'246'
p1060
(dp1061
VShanghai
p1062
(dp1063
Vambiance
p1064
g8
sssS'241'
p1065
(dp1066
VUS
p1067
(dp1068
Vambiance
p1069
g8
sssS'240'
p1070
(dp1071
sS'249'
p1072
(dp1073
sS'248'
p1074
(dp1075
sS'2275'
p1076
(dp1077
Vhole-in-the-wall
p1078
(dp1079
Vatmosphere
p1080
g22
sVambiance
p1081
g22
ssVplace
p1082
(dp1083
g1080
g22
sssS'2274'
p1084
(dp1085
sS'2277'
p1086
(dp1087
Vcuisine
p1088
(dp1089
Voverhaul
p1090
g22
sssS'2276'
p1091
(dp1092
Vtouch
p1093
(dp1094
Vfood
p1095
g22
sVprice
p1096
g22
sVservice
p1097
g22
ssVmenu
p1098
(dp1099
g1095
g22
sg1096
g22
ssVchicken
p1100
(dp1101
g1095
g22
sg1096
g22
sg1097
g22
ssVordered
p1102
(dp1103
g1096
g8
sssS'2271'
p1104
(dp1105
sS'2273'
p1106
(dp1107
sS'2272'
p1108
(dp1109
sS'2279'
p1110
(dp1111
Vimpressed
p1112
(dp1113
Vfood
p1114
g8
sVatmosphere
p1115
g8
sVprice
p1116
g8
ssVexists
p1117
(dp1118
g1115
g8
sg1116
g8
ssg87
(dp1119
g1114
g8
sg1115
g8
sg1116
g8
ssVdecent
p1120
(dp1121
g1114
g8
sg1115
g8
sg1116
g8
sVmonetary_value
p1122
g8
ssVplace
p1123
(dp1124
g1115
g22
ssVprices
p1125
(dp1126
g1114
g8
sg1115
g8
sg1116
g8
sg1122
g8
sssS'2278'
p1127
(dp1128
Vflavor
p1129
(dp1130
Vatmosphere
p1131
g22
ssVchoices
p1132
(dp1133
g1131
g22
sVservice
p1134
g22
sssS'2459'
p1135
(dp1136
sS'2458'
p1137
(dp1138
Vdesign
p1139
(dp1140
Vfood
p1141
g22
ssVIt
p1142
(dp1143
g1141
g8
ssVrestaurant
p1144
(dp1145
g1141
g22
sVservice
p1146
g22
sssS'2455'
p1147
(dp1148
Vjump
p1149
(dp1150
Vserve
p1151
g8
sssS'2454'
p1152
(dp1153
sS'2457'
p1154
(dp1155
Vstaff
p1156
(dp1157
Vmilitary_service
p1158
g22
sssS'2456'
p1159
(dp1160
Vchange
p1161
(dp1162
Vservice
p1163
g8
sssS'2451'
p1164
(dp1165
Vprices
p1166
(dp1167
Vmonetary_value
p1168
g8
sssS'2450'
p1169
(dp1170
sS'2453'
p1171
(dp1172
Vcourse
p1173
(dp1174
Vfood
p1175
g22
ssVportions
p1176
(dp1177
g1175
g8
sVprice
p1178
g8
sVatmosphere
p1179
g8
ssVeat
p1180
(dp1181
g1175
g8
sg1178
g8
sssS'2452'
p1182
(dp1183
sS'179'
p1184
(dp1185
Vprompt
p1186
(dp1187
Vservice
p1188
g8
ssVService
p1189
(dp1190
g1188
g8
sssS'178'
p1191
(dp1192
Vfood
p1193
(dp1194
Vfood
p1195
g22
sVservice
p1196
g22
ssVpatient
p1197
(dp1198
g1196
g8
ssVwaitress
p1199
(dp1200
g1196
g22
sssS'177'
p1201
(dp1202
Vgroup
p1203
(dp1204
Vmilitary_service
p1205
g22
sssS'176'
p1206
(dp1207
Vplace
p1208
(dp1209
Vatmosphere
p1210
g22
sssS'175'
p1211
(dp1212
Vvibrant
p1213
(dp1214
Vfood
p1215
g8
sVservice
p1216
g8
ssVdecor
p1217
(dp1218
g1216
g22
sssS'174'
p1219
(dp1220
Varrive
p1221
(dp1222
Vatmosphere
p1223
g8
sVprice
p1224
g8
ssVorder
p1225
(dp1226
g1223
g22
sssS'173'
p1227
(dp1228
VFood
p1229
(dp1230
Vfood
p1231
g8
ssg87
(dp1232
g1231
g8
sVprice
p1233
g8
ssVgood
p1234
(dp1235
g1231
g8
sg1233
g8
ssVwondered
p1236
(dp1237
g1231
g8
sg1233
g8
sssS'3698'
p1238
(dp1239
sS'3699'
p1240
(dp1241
sS'2053'
p1242
(dp1243
sS'2052'
p1244
(dp1245
sS'2054'
p1246
(dp1247
VRocks
p1248
(dp1249
Vfood
p1250
g38
sssS'2057'
p1251
(dp1252
Vfood
p1253
(dp1254
Vfood
p1255
g22
ssVi
p1256
(dp1257
g1255
g8
ssVdid
p1258
(dp1259
g1255
g8
sVprice
p1260
g8
sssS'2059'
p1261
(dp1262
Vyes
p1263
(dp1264
Vprice
p1265
g8
sssS'2058'
p1266
(dp1267
sS'3692'
p1268
(dp1269
sS'3693'
p1270
(dp1271
Vstuff
p1272
(dp1273
Vfood
p1274
g22
ssVeats
p1275
(dp1276
g1274
g8
sssS'3694'
p1277
(dp1278
Vwhite
p1279
(dp1280
Vfood
p1281
g8
ssVshakes
p1282
(dp1283
g1281
g8
sVservice
p1284
g8
sssS'3695'
p1285
(dp1286
Vpersons
p1287
(dp1288
Vservice
p1289
g22
sssS'3696'
p1290
(dp1291
sS'3697'
p1292
(dp1293
Vfatty
p1294
(dp1295
Vservice
p1296
g8
sssS'1501'
p1297
(dp1298
sS'3089'
p1299
(dp1300
sS'3088'
p1301
(dp1302
Vkamasutra
p1303
(dp1304
Vprice
p1305
g8
sssS'3526'
p1306
(dp1307
Vgo
p1308
(dp1309
Vservice
p1310
g8
sssS'3527'
p1311
(dp1312
Vfood
p1313
(dp1314
Vfood
p1315
g22
sssS'3524'
p1316
(dp1317
Vsampling
p1318
(dp1319
Vservice
p1320
g22
sssS'3525'
p1321
(dp1322
Vstaff
p1323
(dp1324
Vmilitary_service
p1325
g22
sssS'3520'
p1326
(dp1327
sS'3521'
p1328
(dp1329
Vloves
p1330
(dp1331
Vfood
p1332
g8
sVservicing
p1333
g8
ssVhere
p1334
(dp1335
g1332
g8
sssS'1508'
p1336
(dp1337
Vservice
p1338
(dp1339
Vservice
p1340
g8
sssS'1509'
p1341
(dp1342
sS'1977'
p1343
(dp1344
sS'658'
p1345
(dp1346
Vplace
p1347
(dp1348
Vatmosphere
p1349
g22
sssS'2699'
p1350
(dp1351
sS'1976'
p1352
(dp1353
sS'2697'
p1354
(dp1355
Vquail
p1356
(dp1357
Vfood
p1358
g8
ssVfantastic
p1359
(dp1360
g1358
g8
ssVpastas
p1361
(dp1362
g1358
g8
sssS'2696'
p1363
(dp1364
Vmenu
p1365
(dp1366
Vfood
p1367
g22
sssS'2695'
p1368
(dp1369
g87
(dp1370
Vfood
p1371
g8
ssVwent
p1372
(dp1373
g1371
g8
sVprice
p1374
g8
sssS'2694'
p1375
(dp1376
VPo
p1377
(dp1378
Vmilitary_service
p1379
g8
sssS'2693'
p1380
(dp1381
Vstart
p1382
(dp1383
Vfood
p1384
g8
sVservice
p1385
g8
ssVmeatballs
p1386
(dp1387
g1384
g8
sssS'1603'
p1388
(dp1389
Vplace
p1390
(dp1391
Vatmosphere
p1392
g8
sssS'2691'
p1393
(dp1394
sS'2690'
p1395
(dp1396
Vit
p1397
(dp1398
Vfood
p1399
g8
ssVCASH
p1400
(dp1401
g1399
g22
sVprice
p1402
g22
sssS'2405'
p1403
(dp1404
Vprices
p1405
(dp1406
Vmonetary_value
p1407
g38
sssS'1602'
p1408
(dp1409
Vtakeout
p1410
(dp1411
Vfood
p1412
g8
sVservice
p1413
g8
ssVgood
p1414
(dp1415
g1412
g8
sVprice
p1416
g8
sg1413
g8
ssVService
p1417
(dp1418
g1413
g8
sssS'1973'
p1419
(dp1420
Vtag
p1421
(dp1422
Vservice
p1423
g22
sssS'3220'
p1424
(dp1425
Vtanks
p1426
(dp1427
Vservice
p1428
g22
sssS'3223'
p1429
(dp1430
sS'1606'
p1431
(dp1432
Vcooks
p1433
(dp1434
Vservice
p1435
g8
sssS'1362'
p1436
(dp1437
sS'3232'
p1438
(dp1439
VManhattan
p1440
(dp1441
Vfood
p1442
g8
sssS'3233'
p1443
(dp1444
sS'3230'
p1445
(dp1446
Vsurprises
p1447
(dp1448
Vfood
p1449
g8
sVservice
p1450
g8
ssVseafood
p1451
(dp1452
g1449
g22
sssS'3236'
p1453
(dp1454
Vpeople
p1455
(dp1456
Vmilitary_service
p1457
g22
ssVnice
p1458
(dp1459
Vfood
p1460
g8
sVoverhaul
p1461
g8
sVambiance
p1462
g8
sg1457
g8
ssVcare
p1463
(dp1464
g1461
g8
sg1457
g8
ssVsense
p1465
(dp1466
g1460
g22
sg1461
g22
sg1457
g22
sssS'3237'
p1467
(dp1468
Vgo
p1469
(dp1470
Vservice
p1471
g8
sssS'3234'
p1472
(dp1473
Vexperience
p1474
(dp1475
Vfood
p1476
g22
sssS'1619'
p1477
(dp1478
Vglasses
p1479
(dp1480
Vservice
p1481
g22
sssS'1616'
p1482
(dp1483
sS'1617'
p1484
(dp1485
Vobliged
p1486
(dp1487
Vprice
p1488
g8
ssVwere
p1489
(dp1490
g1488
g8
sssS'1614'
p1491
(dp1492
Vcook
p1493
(dp1494
Vservice
p1495
g22
ssVaunt
p1496
(dp1497
g1495
g8
sssS'3239'
p1498
(dp1499
sS'1960'
p1500
(dp1501
sS'1961'
p1502
(dp1503
Vservice
p1504
(dp1505
Vservice
p1506
g22
sssS'1610'
p1507
(dp1508
Vpizza
p1509
(dp1510
Vfood
p1511
g22
sssS'1611'
p1512
(dp1513
Vquick
p1514
(dp1515
Vfood
p1516
g8
ssVimportant
p1517
(dp1518
g1516
g8
ssVit
p1519
(dp1520
g1516
g8
sssS'2063'
p1521
(dp1522
sS'1363'
p1523
(dp1524
Vfood
p1525
(dp1526
Vfood
p1527
g22
ssVfusion
p1528
(dp1529
g1527
g22
sVatmosphere
p1530
g22
sssS'2872'
p1531
(dp1532
Vstory
p1533
(dp1534
Vprice
p1535
g8
sVmilitary_service
p1536
g8
ssVstaff
p1537
(dp1538
g1536
g22
sssS'2871'
p1539
(dp1540
Vgem
p1541
(dp1542
Vfood
p1543
g22
sVambiance
p1544
g22
ssVLeon
p1545
(dp1546
g1544
g8
sssS'2877'
p1547
(dp1548
Vkids
p1549
(dp1550
Vservice
p1551
g38
ssVlove
p1552
(dp1553
Vservicing
p1554
g8
sg1551
g8
sssS'2876'
p1555
(dp1556
Vexperience
p1557
(dp1558
Vfood
p1559
g22
ssVtimes
p1560
(dp1561
g1559
g8
sVservice
p1562
g8
sssS'2875'
p1563
(dp1564
Vprices
p1565
(dp1566
Vmonetary_value
p1567
g38
sssS'2879'
p1568
(dp1569
Vfood
p1570
(dp1571
Vfood
p1572
g22
sVservice
p1573
g22
ssVservice
p1574
(dp1575
g1573
g8
sssS'2878'
p1576
(dp1577
Vbe
p1578
(dp1579
Vfood
p1580
g8
sVatmosphere
p1581
g8
ssVplace
p1582
(dp1583
g1581
g22
sssS'3355'
p1584
(dp1585
Vcake
p1586
(dp1587
Vfood
p1588
g22
ssg87
(dp1589
g1588
g8
ssVthought
p1590
(dp1591
g1588
g8
sssS'3354'
p1592
(dp1593
sS'3353'
p1594
(dp1595
Vpizza
p1596
(dp1597
Vfood
p1598
g22
sVatmosphere
p1599
g22
ssVtasty
p1600
(dp1601
g1598
g8
sg1599
g8
ssVwant
p1602
(dp1603
g1599
g8
ssVbread
p1604
(dp1605
g1598
g8
sg1599
g8
sssS'3352'
p1606
(dp1607
Vgallery
p1608
(dp1609
Vservice
p1610
g22
sssS'3359'
p1611
(dp1612
Vpizza
p1613
(dp1614
Vfood
p1615
g22
sssS'3358'
p1616
(dp1617
sS'1768'
p1618
(dp1619
Vfriendly
p1620
(dp1621
Vmilitary_service
p1622
g8
sssS'1769'
p1623
(dp1624
sS'1760'
p1625
(dp1626
sS'1766'
p1627
(dp1628
VFood
p1629
(dp1630
Vfood
p1631
g8
sssS'1767'
p1632
(dp1633
Vfresh
p1634
(dp1635
Vfood
p1636
g8
ssVFish
p1637
(dp1638
g1636
g8
sssS'1765'
p1639
(dp1640
sS'1140'
p1641
(dp1642
sS'1146'
p1643
(dp1644
sS'1147'
p1645
(dp1646
sS'1144'
p1647
(dp1648
sS'1145'
p1649
(dp1650
sS'1148'
p1651
(dp1652
sS'1149'
p1653
(dp1654
sS'768'
p1655
(dp1656
sS'2966'
p1657
(dp1658
sS'2402'
p1659
(dp1660
sS'692'
p1661
(dp1662
sS'1547'
p1663
(dp1664
sS'690'
p1665
(dp1666
sS'691'
p1667
(dp1668
Vfood
p1669
(dp1670
Vfood
p1671
g22
ssVgood
p1672
(dp1673
g1671
g8
sVprice
p1674
g8
sssS'1542'
p1675
(dp1676
sS'1543'
p1677
(dp1678
Vroom
p1679
(dp1680
Vmilitary_service
p1681
g22
sssS'694'
p1682
(dp1683
Vbreast
p1684
(dp1685
Vfood
p1686
g22
sssS'1541'
p1687
(dp1688
Vcold
p1689
(dp1690
Vfood
p1691
g8
sVatmosphere
p1692
g8
ssVdogs
p1693
(dp1694
g1691
g22
ssVbuns
p1695
(dp1696
g1691
g22
sg1692
g22
sssS'698'
p1697
(dp1698
Vamazing
p1699
(dp1700
Vfood
p1701
g8
sVprice
p1702
g8
ssVconfit
p1703
(dp1704
g1701
g22
sssS'699'
p1705
(dp1706
Vlist
p1707
(dp1708
Vprice
p1709
g22
sssS'1548'
p1710
(dp1711
Vfood
p1712
(dp1713
Vfood
p1714
g22
sssS'1549'
p1715
(dp1716
VLahore
p1717
(dp1718
Vambiance
p1719
g8
sssS'542'
p1720
(dp1721
sS'762'
p1722
(dp1723
sS'540'
p1724
(dp1725
Vyummy
p1726
(dp1727
Vfood
p1728
g8
sssS'541'
p1729
(dp1730
sS'547'
p1731
(dp1732
sS'544'
p1733
(dp1734
Vspot
p1735
(dp1736
Vfood
p1737
g8
sVservice
p1738
g8
ssVIt
p1739
(dp1740
g1737
g8
sssS'763'
p1741
(dp1742
Vreservations
p1743
(dp1744
Vprice
p1745
g8
sVservice
p1746
g8
ssVslow
p1747
(dp1748
g1745
g8
sg1746
g8
ssVservice
p1749
(dp1750
g1746
g8
sssS'548'
p1751
(dp1752
sS'549'
p1753
(dp1754
sS'1782'
p1755
(dp1756
sS'761'
p1757
(dp1758
sS'1784'
p1759
(dp1760
Vsushi
p1761
(dp1762
Vfood
p1763
g22
sssS'2968'
p1764
(dp1765
sS'1786'
p1766
(dp1767
Vroll
p1768
(dp1769
Vfood
p1770
g22
sssS'1787'
p1771
(dp1772
Vgood
p1773
(dp1774
Vprice
p1775
g8
sVservice
p1776
g8
ssVYellowtail
p1777
(dp1778
g1776
g8
sssS'414'
p1779
(dp1780
Vfood
p1781
(dp1782
Vfood
p1783
g22
sssS'415'
p1784
(dp1785
sS'416'
p1786
(dp1787
Vfood
p1788
(dp1789
Vfood
p1790
g22
ssVabrupt
p1791
(dp1792
g1790
g8
sVambiance
p1793
g8
ssVwas
p1794
(dp1795
g1790
g8
sg1793
g8
ssVcalled
p1796
(dp1797
g1790
g8
sVprice
p1798
g8
sg1793
g8
ssg87
(dp1799
g1790
g8
sg1793
g8
sssS'417'
p1800
(dp1801
Vdinner
p1802
(dp1803
Vfood
p1804
g8
sssS'410'
p1805
(dp1806
sS'411'
p1807
(dp1808
sS'412'
p1809
(dp1810
sS'413'
p1811
(dp1812
Vcheck
p1813
(dp1814
Vserve
p1815
g8
sssS'1384'
p1816
(dp1817
Vfood
p1818
(dp1819
Vfood
p1820
g22
ssVbrings
p1821
(dp1822
g1820
g8
sVprice
p1823
g8
sssS'1385'
p1824
(dp1825
Vtaste
p1826
(dp1827
Vservice
p1828
g22
ssVextraordinary
p1829
(dp1830
Vfood
p1831
g8
sg1828
g8
ssVService
p1832
(dp1833
g1828
g8
sssS'1386'
p1834
(dp1835
Vpalate
p1836
(dp1837
Vambiance
p1838
g22
sssS'1387'
p1839
(dp1840
VNuts
p1841
(dp1842
Vfood
p1843
g22
ssVexperience
p1844
(dp1845
g1843
g38
sssS'1380'
p1846
(dp1847
sS'1381'
p1848
(dp1849
Vew
p1850
(dp1851
Vservice
p1852
g8
sssS'1382'
p1853
(dp1854
Vordinary
p1855
(dp1856
Vfood
p1857
g8
sVatmosphere
p1858
g8
ssVIt
p1859
(dp1860
g1857
g8
ssVbeef
p1861
(dp1862
g1857
g8
sssS'1383'
p1863
(dp1864
g87
(dp1865
Vfood
p1866
g8
ssVordered
p1867
(dp1868
g1866
g8
sVprice
p1869
g8
ssVorder
p1870
(dp1871
g1866
g22
sg1869
g22
sVatmosphere
p1872
g22
sssS'1507'
p1873
(dp1874
Vmoral
p1875
(dp1876
Vprice
p1877
g8
ssVstay
p1878
(dp1879
g1877
g8
sVservice
p1880
g8
sssS'2769'
p1881
(dp1882
sS'3583'
p1883
(dp1884
Vburgers
p1885
(dp1886
Vfood
p1887
g8
ssVfell
p1888
(dp1889
g1887
g8
sVoverhaul
p1890
g8
sssS'368'
p1891
(dp1892
Varrived
p1893
(dp1894
Vfood
p1895
g8
sVprice
p1896
g8
sVservice
p1897
g8
ssVbottle
p1898
(dp1899
g1895
g22
sg1897
g22
ssVgrapes
p1900
(dp1901
g1895
g8
sssS'369'
p1902
(dp1903
Vmenu
p1904
(dp1905
Vfood
p1906
g22
ssVtip
p1907
(dp1908
g1906
g22
sVprice
p1909
g22
sssS'366'
p1910
(dp1911
sS'367'
p1912
(dp1913
sS'364'
p1914
(dp1915
sS'365'
p1916
(dp1917
sS'362'
p1918
(dp1919
Vdecor
p1920
(dp1921
Vservice
p1922
g22
sssS'363'
p1923
(dp1924
Vfine
p1925
(dp1926
Vprice
p1927
g8
ssVlist
p1928
(dp1929
g1927
g22
sssS'380'
p1930
(dp1931
sS'381'
p1932
(dp1933
Vtasty
p1934
(dp1935
Vfood
p1936
g8
sssS'382'
p1937
(dp1938
Vcalamari
p1939
(dp1940
Vfood
p1941
g22
ssVnoodles
p1942
(dp1943
g1941
g22
ssVyummy
p1944
(dp1945
g1941
g8
ssVcomes
p1946
(dp1947
g1941
g8
sssS'385'
p1948
(dp1949
Vplace
p1950
(dp1951
Vatmosphere
p1952
g22
sssS'386'
p1953
(dp1954
sS'387'
p1955
(dp1956
Vinexpensive
p1957
(dp1958
Vfood
p1959
g8
ssVIt
p1960
(dp1961
g1959
g8
sssS'388'
p1962
(dp1963
Vdecor
p1964
(dp1965
Vservice
p1966
g22
sssS'3215'
p1967
(dp1968
Vdisgusting
p1969
(dp1970
Vprice
p1971
g8
sssS'2065'
p1972
(dp1973
sS'2190'
p1974
(dp1975
sS'2191'
p1976
(dp1977
Vconcept
p1978
(dp1979
Vfood
p1980
g22
sssS'258'
p1981
(dp1982
sS'259'
p1983
(dp1984
Vfood
p1985
(dp1986
Vfood
p1987
g8
sVatmosphere
p1988
g8
ssVtime
p1989
(dp1990
g1988
g22
sssS'2194'
p1991
(dp1992
sS'2195'
p1993
(dp1994
Vservice
p1995
(dp1996
Vservice
p1997
g8
ssVexcellent
p1998
(dp1999
Vfood
p2000
g8
sg1997
g8
sssS'2196'
p2001
(dp2002
sS'2197'
p2003
(dp2004
Vneed
p2005
(dp2006
Vfood
p2007
g8
sVprice
p2008
g8
sVatmosphere
p2009
g8
ssVgood
p2010
(dp2011
g2007
g8
sg2008
g8
ssVplace
p2012
(dp2013
g2007
g22
sg2008
g22
sg2009
g22
ssVsushi
p2014
(dp2015
g2007
g22
sssS'2198'
p2016
(dp2017
Vgood
p2018
(dp2019
Vprice
p2020
g8
sssS'2199'
p2021
(dp2022
sS'250'
p2023
(dp2024
sS'256'
p2025
(dp2026
sS'257'
p2027
(dp2028
Vpancakes
p2029
(dp2030
Vfood
p2031
g22
ssVwere
p2032
(dp2033
g2031
g8
sVprice
p2034
g8
sssS'254'
p2035
(dp2036
Vrestaurant
p2037
(dp2038
Vservice
p2039
g22
sssS'255'
p2040
(dp2041
Vfun
p2042
(dp2043
Vservice
p2044
g22
ssVsee
p2045
(dp2046
Vambiance
p2047
g8
sg2044
g8
sssS'2200'
p2048
(dp2049
Vgood
p2050
(dp2051
Vfood
p2052
g8
sVprice
p2053
g8
ssVdesign
p2054
(dp2055
g2052
g22
sssS'2201'
p2056
(dp2057
Vcheap
p2058
(dp2059
Vfood
p2060
g8
sVservice
p2061
g8
ssVbottles
p2062
(dp2063
g2061
g22
sssS'2202'
p2064
(dp2065
sS'2203'
p2066
(dp2067
sS'2204'
p2068
(dp2069
sS'2205'
p2070
(dp2071
Vfood
p2072
(dp2073
Vfood
p2074
g22
sssS'2206'
p2075
(dp2076
Vtable
p2077
(dp2078
Vfood
p2079
g8
sVprice
p2080
g8
sVmilitary_service
p2081
g8
ssVminutes
p2082
(dp2083
g2080
g22
ssVparties
p2084
(dp2085
g2080
g22
sg2081
g22
sssS'2207'
p2086
(dp2087
Vseated
p2088
(dp2089
Vprice
p2090
g8
sVambiance
p2091
g8
ssVus
p2092
(dp2093
g2091
g8
sssS'2208'
p2094
(dp2095
sS'2209'
p2096
(dp2097
Vplace
p2098
(dp2099
Vatmosphere
p2100
g22
sssS'2428'
p2101
(dp2102
sS'2429'
p2103
(dp2104
Vhappens
p2105
(dp2106
Vfood
p2107
g8
sVprice
p2108
g8
ssVplace
p2109
(dp2110
g2107
g38
sg2108
g38
sVatmosphere
p2111
g38
ssVit
p2112
(dp2113
g2107
g8
sssS'2400'
p2114
(dp2115
Vtofu
p2116
(dp2117
Vfood
p2118
g8
sVservice
p2119
g8
ssVsalad
p2120
(dp2121
g2118
g22
ssVbasic
p2122
(dp2123
g2118
g8
sg2119
g8
sssS'2420'
p2124
(dp2125
VPM
p2126
(dp2127
Vservice
p2128
g8
sssS'2421'
p2129
(dp2130
sS'2422'
p2131
(dp2132
Vfood
p2133
(dp2134
Vfood
p2135
g22
ssVhands
p2136
(dp2137
g2135
g22
sVservice
p2138
g22
sssS'2423'
p2139
(dp2140
g87
(dp2141
Vfood
p2142
g8
sVprice
p2143
g8
ssVlive
p2144
(dp2145
g2142
g8
sg2143
g8
ssVopened
p2146
(dp2147
g2143
g8
sssS'2424'
p2148
(dp2149
Vcheap
p2150
(dp2151
Vfood
p2152
g8
sVatmosphere
p2153
g8
ssVplace
p2154
(dp2155
g2153
g22
sssS'2425'
p2156
(dp2157
sS'2426'
p2158
(dp2159
sS'2427'
p2160
(dp2161
sS'2432'
p2162
(dp2163
Vguy
p2164
(dp2165
Vfood
p2166
g38
sVprice
p2167
g38
sVmilitary_service
p2168
g38
sVservice
p2169
g38
ssVwho
p2170
(dp2171
g2168
g8
ssVcomplains
p2172
(dp2173
g2167
g8
sg2168
g8
ssVdownside
p2174
(dp2175
g2166
g22
sg2167
g22
sg2168
g22
sssS'168'
p2176
(dp2177
sS'169'
p2178
(dp2179
sS'164'
p2180
(dp2181
sS'165'
p2182
(dp2183
sS'166'
p2184
(dp2185
Vconversation
p2186
(dp2187
Vfood
p2188
g8
sVprice
p2189
g8
sVservice
p2190
g8
ssVkind
p2191
(dp2192
g2188
g22
sg2190
g22
ssVservice
p2193
(dp2194
g2190
g22
sssS'167'
p2195
(dp2196
Vstuff
p2197
(dp2198
Vfood
p2199
g22
sssS'160'
p2200
(dp2201
Vexperience
p2202
(dp2203
Vfood
p2204
g22
sssS'161'
p2205
(dp2206
sS'162'
p2207
(dp2208
Vdate
p2209
(dp2210
Vfood
p2211
g22
sVservice
p2212
g22
ssVfriend
p2213
(dp2214
g2212
g22
sssS'163'
p2215
(dp2216
sS'3689'
p2217
(dp2218
sS'3688'
p2219
(dp2220
Vpopular
p2221
(dp2222
Vfood
p2223
g8
sVatmosphere
p2224
g8
ssVtables
p2225
(dp2226
g2223
g22
sg2224
g22
ssVatmosphere
p2227
(dp2228
g2224
g22
ssVIt
p2229
(dp2230
g2223
g8
sg2224
g8
sssS'3683'
p2231
(dp2232
sS'3682'
p2233
(dp2234
Vstaff
p2235
(dp2236
Vmilitary_service
p2237
g22
sssS'3681'
p2238
(dp2239
Vfood
p2240
(dp2241
Vfood
p2242
g22
sVservice
p2243
g22
ssVgreat
p2244
(dp2245
g2243
g8
ssVgood
p2246
(dp2247
g2242
g8
sVprice
p2248
g8
sg2243
g8
ssVdeal
p2249
(dp2250
g2243
g22
sssS'3680'
p2251
(dp2252
Vatmosphere
p2253
(dp2254
Vatmosphere
p2255
g22
sssS'3687'
p2256
(dp2257
Vsister
p2258
(dp2259
Vservice
p2260
g22
ssVshow
p2261
(dp2262
g2260
g8
sssS'3686'
p2263
(dp2264
Vit
p2265
(dp2266
Vfood
p2267
g8
ssVexperience
p2268
(dp2269
g2267
g22
sssS'3685'
p2270
(dp2271
Vmoney
p2272
(dp2273
Vprice
p2274
g22
sssS'3684'
p2275
(dp2276
sS'2796'
p2277
(dp2278
Vfood
p2279
(dp2280
Vfood
p2281
g22
sssS'2514'
p2282
(dp2283
sS'2515'
p2284
(dp2285
sS'2516'
p2286
(dp2287
g87
(dp2288
Vfood
p2289
g8
ssVgo
p2290
(dp2291
g2289
g8
sVservice
p2292
g8
ssVplace
p2293
(dp2294
g2289
g22
sVatmosphere
p2295
g22
sg2292
g22
sssS'2517'
p2296
(dp2297
sS'2511'
p2298
(dp2299
sS'2512'
p2300
(dp2301
sS'2513'
p2302
(dp2303
Vwine
p2304
(dp2305
Vfood
p2306
g22
sssS'2734'
p2307
(dp2308
sS'2735'
p2309
(dp2310
sS'2736'
p2311
(dp2312
Vplace
p2313
(dp2314
Vatmosphere
p2315
g22
sssS'2737'
p2316
(dp2317
Vfood
p2318
(dp2319
Vfood
p2320
g22
sVservice
p2321
g22
ssVdecor
p2322
(dp2323
g2320
g22
sg2321
g22
ssVservice
p2324
(dp2325
g2321
g8
ssVexcellent
p2326
(dp2327
g2320
g8
sg2321
g8
sssS'2730'
p2328
(dp2329
sS'2733'
p2330
(dp2331
sS'2738'
p2332
(dp2333
sS'2739'
p2334
(dp2335
sS'3531'
p2336
(dp2337
Vfood
p2338
(dp2339
Vfood
p2340
g22
sssS'3530'
p2341
(dp2342
Vchicken
p2343
(dp2344
Vfood
p2345
g22
ssVsauce
p2346
(dp2347
g2345
g22
ssVtranslucent
p2348
(dp2349
g2345
g8
sssS'3533'
p2350
(dp2351
Vplace
p2352
(dp2353
Vatmosphere
p2354
g22
sssS'3532'
p2355
(dp2356
Vwho
p2357
(dp2358
Vmilitary_service
p2359
g8
ssVdined
p2360
(dp2361
Vprice
p2362
g8
sg2359
g8
sssS'3535'
p2363
(dp2364
Vdark
p2365
(dp2366
Vatmosphere
p2367
g8
sVservice
p2368
g8
ssVdecor
p2369
(dp2370
g2368
g22
ssVpresentation
p2371
(dp2372
g2368
g22
sssS'3534'
p2373
(dp2374
sS'3537'
p2375
(dp2376
sS'3536'
p2377
(dp2378
Vlunch
p2379
(dp2380
Vfood
p2381
g22
sssS'3539'
p2382
(dp2383
sS'3538'
p2384
(dp2385
sS'1814'
p2386
(dp2387
sS'1815'
p2388
(dp2389
Vpony
p2390
(dp2391
Vservice
p2392
g22
sssS'1816'
p2393
(dp2394
Vspot
p2395
(dp2396
Vservice
p2397
g8
sssS'1817'
p2398
(dp2399
sS'1811'
p2400
(dp2401
Vagenda
p2402
(dp2403
Vfood
p2404
g22
sssS'1818'
p2405
(dp2406
sS'1819'
p2407
(dp2408
sS'671'
p2409
(dp2410
Vpot
p2411
(dp2412
Vservice
p2413
g22
ssVplatters
p2414
(dp2415
g2413
g8
sssS'1609'
p2416
(dp2417
VService
p2418
(dp2419
Vservice
p2420
g8
sssS'1608'
p2421
(dp2422
Vplace
p2423
(dp2424
Vatmosphere
p2425
g22
sssS'3229'
p2426
(dp2427
sS'3228'
p2428
(dp2429
sS'1979'
p2430
(dp2431
Vpiece
p2432
(dp2433
Vservice
p2434
g8
sssS'3225'
p2435
(dp2436
Vtuna
p2437
(dp2438
Vfood
p2439
g22
sssS'1600'
p2440
(dp2441
sS'1975'
p2442
(dp2443
sS'1974'
p2444
(dp2445
Vwas
p2446
(dp2447
Vfood
p2448
g8
sVambiance
p2449
g8
ssVit
p2450
(dp2451
g2448
g8
sssS'3221'
p2452
(dp2453
g87
(dp2454
Vfood
p2455
g8
sssS'1972'
p2456
(dp2457
sS'1971'
p2458
(dp2459
Vok
p2460
(dp2461
Vfood
p2462
g8
sVprice
p2463
g8
ssVsides
p2464
(dp2465
g2462
g8
sssS'3222'
p2466
(dp2467
sS'809'
p2468
(dp2469
sS'808'
p2470
(dp2471
sS'803'
p2472
(dp2473
sS'802'
p2474
(dp2475
VLobster
p2476
(dp2477
Vfood
p2478
g22
ssVOne
p2479
(dp2480
g2478
g8
sssS'801'
p2481
(dp2482
Vbetter
p2483
(dp2484
Vfood
p2485
g8
sVprice
p2486
g8
ssVcourse
p2487
(dp2488
g2485
g22
sssS'800'
p2489
(dp2490
sS'1532'
p2491
(dp2492
sS'804'
p2493
(dp2494
sS'2848'
p2495
(dp2496
Vmenu
p2497
(dp2498
Vfood
p2499
g22
sssS'2849'
p2500
(dp2501
sS'2846'
p2502
(dp2503
Vonly
p2504
(dp2505
Vfood
p2506
g8
ssVgreat
p2507
(dp2508
g2506
g8
sVservice
p2509
g8
sssS'2847'
p2510
(dp2511
Vwaiter
p2512
(dp2513
Vfood
p2514
g22
sVservice
p2515
g22
ssVdessert
p2516
(dp2517
g2514
g22
sVprice
p2518
g22
sg2515
g22
ssVBirthday
p2519
(dp2520
g2514
g22
ssVsaw
p2521
(dp2522
g2514
g8
sg2515
g8
ssVgift
p2523
(dp2524
g2514
g8
sg2518
g8
sg2515
g8
sssS'2844'
p2525
(dp2526
sS'2845'
p2527
(dp2528
sS'2842'
p2529
(dp2530
sS'2843'
p2531
(dp2532
Vevening
p2533
(dp2534
Vfood
p2535
g8
sssS'2840'
p2536
(dp2537
sS'2841'
p2538
(dp2539
sS'3320'
p2540
(dp2541
Vfood
p2542
(dp2543
Vfood
p2544
g22
sssS'3321'
p2545
(dp2546
Vmanager
p2547
(dp2548
Vatmosphere
p2549
g22
sVprice
p2550
g22
sVservice
p2551
g22
ssVproblem
p2552
(dp2553
g2549
g22
ssVis
p2554
(dp2555
g2549
g8
sg2550
g8
ssVincompetent
p2556
(dp2557
g2549
g8
sg2550
g8
sg2551
g8
sssS'3322'
p2558
(dp2559
Vservice
p2560
(dp2561
Vservice
p2562
g8
sssS'3323'
p2563
(dp2564
sS'3324'
p2565
(dp2566
Vlocation
p2567
(dp2568
Vservice
p2569
g22
ssVSoho
p2570
(dp2571
Vambiance
p2572
g8
sg2569
g8
sssS'3325'
p2573
(dp2574
sS'3326'
p2575
(dp2576
sS'3327'
p2577
(dp2578
Vfood
p2579
(dp2580
Vfood
p2581
g22
ssVcuisine
p2582
(dp2583
g2581
g22
sVoverhaul
p2584
g22
sssS'3328'
p2585
(dp2586
Vcurry
p2587
(dp2588
Vfood
p2589
g8
ssVIts
p2590
(dp2591
g2589
g8
sssS'1777'
p2592
(dp2593
sS'1771'
p2594
(dp2595
sS'1770'
p2596
(dp2597
Vsushi
p2598
(dp2599
Vfood
p2600
g22
ssVhad
p2601
(dp2602
g2600
g8
sVserve
p2603
g8
sssS'1779'
p2604
(dp2605
Vowner
p2606
(dp2607
Vservice
p2608
g22
ssVare
p2609
(dp2610
Vprice
p2611
g8
sg2608
g8
sssS'1778'
p2612
(dp2613
Vnothing
p2614
(dp2615
Vfood
p2616
g22
sVatmosphere
p2617
g22
ssVatmosphere
p2618
(dp2619
g2617
g22
sssS'2998'
p2620
(dp2621
Vfood
p2622
(dp2623
Vfood
p2624
g22
ssVgarden
p2625
(dp2626
g2624
g22
sVambiance
p2627
g22
sssS'1159'
p2628
(dp2629
sS'1158'
p2630
(dp2631
sS'2999'
p2632
(dp2633
sS'1155'
p2634
(dp2635
Vwas
p2636
(dp2637
Vatmosphere
p2638
g8
sVambiance
p2639
g8
ssVplace
p2640
(dp2641
g2638
g22
sssS'1154'
p2642
(dp2643
sS'1157'
p2644
(dp2645
Vladies
p2646
(dp2647
Vservice
p2648
g8
sssS'1156'
p2649
(dp2650
VJimmy
p2651
(dp2652
Vservice
p2653
g8
sssS'1151'
p2654
(dp2655
Vplace
p2656
(dp2657
Vatmosphere
p2658
g22
ssVits
p2659
(dp2660
Vfood
p2661
g8
sg2658
g8
sssS'1150'
p2662
(dp2663
VJimmy
p2664
(dp2665
Vservice
p2666
g8
sssS'1153'
p2667
(dp2668
sS'1152'
p2669
(dp2670
sS'59'
p2671
(dp2672
Vgreat
p2673
(dp2674
Vfood
p2675
g8
sVatmosphere
p2676
g8
sVservice
p2677
g8
ssVatmosphere
p2678
(dp2679
g2675
g22
sg2676
g22
ssVit
p2680
(dp2681
g2675
g8
sssS'1554'
p2682
(dp2683
Vare
p2684
(dp2685
Vprice
p2686
g8
sVservice
p2687
g8
ssVcounters
p2688
(dp2689
g2687
g22
sssS'1551'
p2690
(dp2691
sS'1550'
p2692
(dp2693
sS'1553'
p2694
(dp2695
sS'1552'
p2696
(dp2697
sS'1555'
p2698
(dp2699
Vcounter
p2700
(dp2701
Vservice
p2702
g22
sssS'3039'
p2703
(dp2704
sS'1557'
p2705
(dp2706
Vcase
p2707
(dp2708
Vatmosphere
p2709
g22
sssS'1556'
p2710
(dp2711
sS'3034'
p2712
(dp2713
sS'1558'
p2714
(dp2715
sS'2992'
p2716
(dp2717
sS'56'
p2718
(dp2719
sS'51'
p2720
(dp2721
sS'2995'
p2722
(dp2723
Vscallops
p2724
(dp2725
Vfood
p2726
g22
sssS'53'
p2727
(dp2728
Vfood
p2729
(dp2730
Vfood
p2731
g22
sVservice
p2732
g22
ssVbeers
p2733
(dp2734
g2731
g22
sg2732
g22
ssVsampling
p2735
(dp2736
g2732
g22
sssS'3033'
p2737
(dp2738
Vflavor
p2739
(dp2740
Vatmosphere
p2741
g22
sssS'537'
p2742
(dp2743
sS'55'
p2744
(dp2745
sS'533'
p2746
(dp2747
Vpalate
p2748
(dp2749
Vambiance
p2750
g22
sssS'532'
p2751
(dp2752
Vdelight
p2753
(dp2754
Vatmosphere
p2755
g8
sVservice
p2756
g8
ssVplate
p2757
(dp2758
g2756
g22
sssS'531'
p2759
(dp2760
Vfood
p2761
(dp2762
Vfood
p2763
g22
ssVremains
p2764
(dp2765
g2763
g8
sVambiance
p2766
g8
sssS'530'
p2767
(dp2768
sS'57'
p2769
(dp2770
sS'539'
p2771
(dp2772
Vrestaurant
p2773
(dp2774
Vserve
p2775
g22
sVservice
p2776
g22
ssVget
p2777
(dp2778
g2775
g8
sssS'538'
p2779
(dp2780
g87
(dp2781
Vfood
p2782
g8
ssVate
p2783
(dp2784
g2782
g8
sssS'2993'
p2785
(dp2786
Vatmosphere
p2787
(dp2788
Vatmosphere
p2789
g22
sssS'2994'
p2790
(dp2791
sS'1906'
p2792
(dp2793
sS'3295'
p2794
(dp2795
Vview
p2796
(dp2797
Vfood
p2798
g22
sssS'52'
p2799
(dp2800
Vcompanionship
p2801
(dp2802
Vatmosphere
p2803
g38
sssS'3296'
p2804
(dp2805
Vit
p2806
(dp2807
Vfood
p2808
g8
ssVcrowded
p2809
(dp2810
g2808
g8
sVprice
p2811
g8
sssS'1905'
p2812
(dp2813
sS'536'
p2814
(dp2815
Vspecials
p2816
(dp2817
Vfood
p2818
g22
sssS'1902'
p2819
(dp2820
VSteak
p2821
(dp2822
Vfood
p2823
g22
sssS'3291'
p2824
(dp2825
VFood
p2826
(dp2827
Vfood
p2828
g8
sssS'429'
p2829
(dp2830
Vfood
p2831
(dp2832
Vfood
p2833
g8
sssS'428'
p2834
(dp2835
Vlacking
p2836
(dp2837
Vfood
p2838
g8
sVprice
p2839
g8
ssVarea
p2840
(dp2841
g2838
g8
sssS'1900'
p2842
(dp2843
Vdinner
p2844
(dp2845
Vfood
p2846
g22
ssVnight
p2847
(dp2848
g2846
g8
sssS'1399'
p2849
(dp2850
Vowner
p2851
(dp2852
Vservice
p2853
g22
ssVfood
p2854
(dp2855
Vfood
p2856
g22
sg2853
g22
sssS'1398'
p2857
(dp2858
Vlunch
p2859
(dp2860
Vfood
p2861
g8
sVservice
p2862
g8
ssVit
p2863
(dp2864
g2861
g8
ssVchoice
p2865
(dp2866
g2861
g22
sg2862
g22
sssS'423'
p2867
(dp2868
VToons
p2869
(dp2870
Vservice
p2871
g8
ssVare
p2872
(dp2873
Vatmosphere
p2874
g8
sVprice
p2875
g8
sg2871
g8
ssVplaces
p2876
(dp2877
g2874
g22
sg2871
g22
sssS'1394'
p2878
(dp2879
Vbetter
p2880
(dp2881
Vatmosphere
p2882
g8
sVprice
p2883
g8
ssVatmosphere
p2884
(dp2885
g2882
g22
sssS'1393'
p2886
(dp2887
Vdishes
p2888
(dp2889
Vservice
p2890
g22
sssS'1392'
p2891
(dp2892
Vrestaurant
p2893
(dp2894
Vservice
p2895
g22
sssS'427'
p2896
(dp2897
sS'426'
p2898
(dp2899
sS'854'
p2900
(dp2901
Vjoint
p2902
(dp2903
Vfood
p2904
g8
ssVfull
p2905
(dp2906
g2904
g8
sVprice
p2907
g8
sssS'3453'
p2908
(dp2909
sS'3074'
p2910
(dp2911
Vdinner
p2912
(dp2913
Vfood
p2914
g22
sssS'3450'
p2915
(dp2916
sS'857'
p2917
(dp2918
sS'3627'
p2919
(dp2920
sS'850'
p2921
(dp2922
Vparty
p2923
(dp2924
Vmilitary_service
p2925
g22
sssS'1423'
p2926
(dp2927
Vhotpot
p2928
(dp2929
Vfood
p2930
g8
sVoverhaul
p2931
g8
sVservice
p2932
g8
ssVcooking
p2933
(dp2934
g2930
g22
sg2931
g22
ssVspecial
p2935
(dp2936
g2930
g8
ssVrestaurant
p2937
(dp2938
g2930
g22
sg2931
g22
sg2932
g22
sssS'1970'
p2939
(dp2940
Vsteak
p2941
(dp2942
Vfood
p2943
g22
sssS'1424'
p2944
(dp2945
Vpicks
p2946
(dp2947
Vservice
p2948
g8
sssS'2331'
p2949
(dp2950
Vhappy
p2951
(dp2952
Vfood
p2953
g8
sssS'3475'
p2954
(dp2955
sS'2183'
p2956
(dp2957
Vchicken
p2958
(dp2959
Vfood
p2960
g22
ssVroll
p2961
(dp2962
g2960
g22
sssS'2187'
p2963
(dp2964
Vdrinks
p2965
(dp2966
Vfood
p2967
g8
sssS'2186'
p2968
(dp2969
VIt
p2970
(dp2971
Vfood
p2972
g8
ssVrestaurant
p2973
(dp2974
g2972
g22
sVservice
p2975
g22
sssS'229'
p2976
(dp2977
Vdo
p2978
(dp2979
Vmilitary_service
p2980
g8
sVservice
p2981
g8
ssVpeople
p2982
(dp2983
g2980
g22
sssS'228'
p2984
(dp2985
Vchampagne
p2986
(dp2987
Vambiance
p2988
g22
sssS'227'
p2989
(dp2990
sS'226'
p2991
(dp2992
sS'225'
p2993
(dp2994
sS'224'
p2995
(dp2996
Vfood
p2997
(dp2998
Vfood
p2999
g22
ssVservice
p3000
(dp3001
g2999
g38
sVservice
p3002
g38
sssS'223'
p3003
(dp3004
sS'222'
p3005
(dp3006
sS'221'
p3007
(dp3008
Vanniversary
p3009
(dp3010
Vfood
p3011
g22
sssS'220'
p3012
(dp3013
Vwants
p3014
(dp3015
Vatmosphere
p3016
g8
sVmilitary_service
p3017
g8
ssVwho
p3018
(dp3019
g3017
g8
sssS'2213'
p3020
(dp3021
sS'2212'
p3022
(dp3023
Vplace
p3024
(dp3025
Vatmosphere
p3026
g22
sssS'2211'
p3027
(dp3028
Vsoup
p3029
(dp3030
Vfood
p3031
g22
sssS'2210'
p3032
(dp3033
Vtimes
p3034
(dp3035
Vservice
p3036
g22
sssS'2217'
p3037
(dp3038
sS'2216'
p3039
(dp3040
sS'2215'
p3041
(dp3042
Vprices
p3043
(dp3044
Vmonetary_value
p3045
g8
ssVambience
p3046
(dp3047
Vatmosphere
p3048
g22
sg3045
g22
ssVfun
p3049
(dp3050
g3048
g22
sg3045
g22
sVservice
p3051
g22
ssVtasty
p3052
(dp3053
Vfood
p3054
g8
sg3048
g8
sg3045
g8
sg3051
g8
ssVfood
p3055
(dp3056
g3054
g22
sg3048
g22
sg3045
g22
sg3051
g22
sssS'2214'
p3057
(dp3058
sS'2219'
p3059
(dp3060
Vred
p3061
(dp3062
Vservice
p3063
g8
sssS'2218'
p3064
(dp3065
sS'151'
p3066
(dp3067
sS'150'
p3068
(dp3069
sS'2439'
p3070
(dp3071
Vplace
p3072
(dp3073
Vatmosphere
p3074
g8
sssS'152'
p3075
(dp3076
sS'154'
p3077
(dp3078
sS'2433'
p3079
(dp3080
sS'158'
p3081
(dp3082
sS'2431'
p3083
(dp3084
sS'2437'
p3085
(dp3086
sS'2436'
p3087
(dp3088
sS'2435'
p3089
(dp3090
g87
(dp3091
Vfood
p3092
g8
ssVrecommend
p3093
(dp3094
g3092
g8
sVprice
p3095
g8
sssS'2434'
p3096
(dp3097
sS'2508'
p3098
(dp3099
VFri
p3100
(dp3101
Vfood
p3102
g8
sssS'2507'
p3103
(dp3104
Vfood
p3105
(dp3106
Vfood
p3107
g22
ssVgreat
p3108
(dp3109
g3107
g8
sVservice
p3110
g8
sssS'2506'
p3111
(dp3112
sS'2503'
p3113
(dp3114
Vplace
p3115
(dp3116
Vatmosphere
p3117
g22
sssS'2502'
p3118
(dp3119
Vspace
p3120
(dp3121
Vambiance
p3122
g38
sssS'2501'
p3123
(dp3124
VService
p3125
(dp3126
Vservice
p3127
g8
sssS'2500'
p3128
(dp3129
Vmenu
p3130
(dp3131
Vfood
p3132
g22
sssS'2727'
p3133
(dp3134
VCafe
p3135
(dp3136
Vservice
p3137
g22
sssS'2726'
p3138
(dp3139
sS'2723'
p3140
(dp3141
sS'2722'
p3142
(dp3143
sS'2721'
p3144
(dp3145
VIt
p3146
(dp3147
Vfood
p3148
g8
ssVmeal
p3149
(dp3150
g3148
g8
sssS'1712'
p3151
(dp3152
sS'125'
p3153
(dp3154
sS'1805'
p3155
(dp3156
sS'1804'
p3157
(dp3158
sS'1803'
p3159
(dp3160
sS'1800'
p3161
(dp3162
Vrest
p3163
(dp3164
Vservice
p3165
g38
sssS'1808'
p3166
(dp3167
Vtaste
p3168
(dp3169
Vfood
p3170
g22
sVservice
p3171
g22
ssVit
p3172
(dp3173
g3170
g8
ssVservice
p3174
(dp3175
g3170
g22
sg3171
g22
sssS'3258'
p3176
(dp3177
Vrestaurants
p3178
(dp3179
Vservice
p3180
g38
sssS'3259'
p3181
(dp3182
Vtakeout
p3183
(dp3184
Vfood
p3185
g22
sssS'1948'
p3186
(dp3187
sS'1949'
p3188
(dp3189
Vit
p3190
(dp3191
Vfood
p3192
g8
ssVmartini
p3193
(dp3194
g3192
g22
sssS'1942'
p3195
(dp3196
Vwaiter
p3197
(dp3198
Vservice
p3199
g38
ssVattentive
p3200
(dp3201
Vfood
p3202
g8
sg3199
g8
sssS'3251'
p3203
(dp3204
sS'1940'
p3205
(dp3206
sS'1941'
p3207
(dp3208
Vspicy
p3209
(dp3210
Vfood
p3211
g8
sssS'3254'
p3212
(dp3213
Vfood
p3214
(dp3215
Vfood
p3216
g22
sssS'3255'
p3217
(dp3218
sS'3256'
p3219
(dp3220
Vrestaurants
p3221
(dp3222
Vservice
p3223
g8
sssS'1945'
p3224
(dp3225
Vfood
p3226
(dp3227
Vfood
p3228
g22
sVservice
p3229
g22
ssVbistro
p3230
(dp3231
g3229
g22
sssS'818'
p3232
(dp3233
Vplace
p3234
(dp3235
Vatmosphere
p3236
g22
sssS'810'
p3237
(dp3238
sS'811'
p3239
(dp3240
VSunday
p3241
(dp3242
Vprice
p3243
g22
sVservice
p3244
g22
ssVplace
p3245
(dp3246
g3243
g22
sVatmosphere
p3247
g22
sg3244
g22
ssVopened
p3248
(dp3249
g3243
g8
ssVempty
p3250
(dp3251
g3243
g8
sg3247
g8
sg3244
g8
sssS'812'
p3252
(dp3253
Vfood
p3254
(dp3255
Vfood
p3256
g22
ssVwaiter
p3257
(dp3258
g3256
g22
sVservice
p3259
g22
ssVhelpful
p3260
(dp3261
g3256
g8
sg3259
g8
ssVdelicious
p3262
(dp3263
g3256
g8
ssVwere
p3264
(dp3265
g3256
g8
sVprice
p3266
g8
sg3259
g8
sssS'813'
p3267
(dp3268
Vpasta
p3269
(dp3270
Vfood
p3271
g22
ssVappetizers
p3272
(dp3273
g3271
g8
ssVsteak
p3274
(dp3275
g3271
g22
sssS'814'
p3276
(dp3277
Vfood
p3278
(dp3279
Vfood
p3280
g22
ssVamazing
p3281
(dp3282
g3280
g8
sVprice
p3283
g8
sssS'817'
p3284
(dp3285
Vwaiter
p3286
(dp3287
Vservice
p3288
g22
sssS'2859'
p3289
(dp3290
sS'1991'
p3291
(dp3292
Vsymphony
p3293
(dp3294
Vmilitary_service
p3295
g22
sVservice
p3296
g22
ssVproduction
p3297
(dp3298
g3296
g22
sssS'1522'
p3299
(dp3300
Vgirls
p3301
(dp3302
Vservice
p3303
g8
sssS'1990'
p3304
(dp3305
Vway
p3306
(dp3307
Vatmosphere
p3308
g38
sssS'2851'
p3309
(dp3310
sS'2850'
p3311
(dp3312
Vfood
p3313
(dp3314
Vfood
p3315
g22
ssVattentive
p3316
(dp3317
g3315
g8
sVservice
p3318
g8
ssVservice
p3319
(dp3320
g3315
g8
sg3318
g8
sssS'2853'
p3321
(dp3322
sS'2852'
p3323
(dp3324
Vceiling
p3325
(dp3326
Vservice
p3327
g22
sssS'2855'
p3328
(dp3329
Vfood
p3330
(dp3331
Vfood
p3332
g22
ssVservice
p3333
(dp3334
g3332
g8
sVservice
p3335
g8
ssVhorrendous
p3336
(dp3337
g3332
g8
sg3335
g8
sssS'3205'
p3338
(dp3339
Vfish
p3340
(dp3341
Vfood
p3342
g22
sssS'2856'
p3343
(dp3344
Vspace
p3345
(dp3346
Vambiance
p3347
g38
sssS'1490'
p3348
(dp3349
Vslices
p3350
(dp3351
Vserve
p3352
g8
sssS'3332'
p3353
(dp3354
sS'1492'
p3355
(dp3356
sS'1493'
p3357
(dp3358
Vowner
p3359
(dp3360
Vservice
p3361
g22
sssS'1494'
p3362
(dp3363
sS'1495'
p3364
(dp3365
sS'3335'
p3366
(dp3367
Vfood
p3368
(dp3369
Vfood
p3370
g22
ssVsauce
p3371
(dp3372
g3370
g22
sssS'3334'
p3373
(dp3374
Vfood
p3375
(dp3376
Vfood
p3377
g22
sssS'3203'
p3378
(dp3379
Vexpensive
p3380
(dp3381
Vfood
p3382
g8
sVservice
p3383
g8
ssVrestaurant
p3384
(dp3385
g3383
g22
sssS'3339'
p3386
(dp3387
Vrules
p3388
(dp3389
Vservice
p3390
g22
ssVrestaurant
p3391
(dp3392
g3390
g22
sssS'1395'
p3393
(dp3394
Vmost
p3395
(dp3396
Vfood
p3397
g8
sssS'3202'
p3398
(dp3399
Vparticular
p3400
(dp3401
Vfood
p3402
g8
sssS'1700'
p3403
(dp3404
sS'1701'
p3405
(dp3406
sS'1702'
p3407
(dp3408
Vfood
p3409
(dp3410
Vfood
p3411
g22
ssVreliable
p3412
(dp3413
g3411
g8
ssVprice
p3414
(dp3415
g3411
g22
sVmonetary_value
p3416
g22
sssS'1703'
p3417
(dp3418
sS'1704'
p3419
(dp3420
sS'3201'
p3421
(dp3422
Vfood
p3423
(dp3424
Vfood
p3425
g22
ssVservice
p3426
(dp3427
g3425
g8
sVservice
p3428
g8
ssVexcellent
p3429
(dp3430
g3425
g8
sg3428
g8
sssS'1706'
p3431
(dp3432
sS'1707'
p3433
(dp3434
sS'1708'
p3435
(dp3436
g87
(dp3437
Vfood
p3438
g8
ssVdinner
p3439
(dp3440
g3438
g22
ssVsaw
p3441
(dp3442
g3438
g8
sVservice
p3443
g8
sssS'1709'
p3444
(dp3445
Vfood
p3446
(dp3447
Vfood
p3448
g22
sssS'3200'
p3449
(dp3450
sS'424'
p3451
(dp3452
Vdelicious
p3453
(dp3454
Vfood
p3455
g8
sssS'3658'
p3456
(dp3457
sS'3659'
p3458
(dp3459
sS'1128'
p3460
(dp3461
sS'1129'
p3462
(dp3463
Vfood
p3464
(dp3465
Vfood
p3466
g22
ssVgood
p3467
(dp3468
g3466
g8
sVprice
p3469
g8
sssS'1120'
p3470
(dp3471
Vflavors
p3472
(dp3473
Vfood
p3474
g8
sVatmosphere
p3475
g8
ssVnoodles
p3476
(dp3477
g3474
g8
sssS'1123'
p3478
(dp3479
Vnight
p3480
(dp3481
Vfood
p3482
g8
sVservice
p3483
g8
ssVrolls
p3484
(dp3485
g3482
g22
sg3483
g22
ssVkitchen
p3486
(dp3487
g3483
g22
sssS'1124'
p3488
(dp3489
Vwaitress
p3490
(dp3491
Vservice
p3492
g22
sssS'1125'
p3493
(dp3494
sS'1126'
p3495
(dp3496
sS'1127'
p3497
(dp3498
Vfood
p3499
(dp3500
Vfood
p3501
g22
sssS'2989'
p3502
(dp3503
sS'2988'
p3504
(dp3505
sS'3029'
p3506
(dp3507
Vtry
p3508
(dp3509
Vservice
p3510
g8
sssS'2983'
p3511
(dp3512
Vpleasant
p3513
(dp3514
Vfood
p3515
g8
sVatmosphere
p3516
g8
sVambiance
p3517
g8
ssVatmosphere
p3518
(dp3519
g3516
g8
sg3517
g8
ssVdesert
p3520
(dp3521
g3517
g8
sssS'2099'
p3522
(dp3523
sS'3025'
p3524
(dp3525
sS'3024'
p3526
(dp3527
Vbland
p3528
(dp3529
Vfood
p3530
g8
sVatmosphere
p3531
g8
ssVit
p3532
(dp3533
g3530
g8
sg3531
g8
ssVtime
p3534
(dp3535
g3531
g8
sssS'3023'
p3536
(dp3537
sS'2986'
p3538
(dp3539
sS'2985'
p3540
(dp3541
sS'3020'
p3542
(dp3543
Vamazing
p3544
(dp3545
Vprice
p3546
g8
ssVgoodness
p3547
(dp3548
g3546
g38
sssS'524'
p3549
(dp3550
sS'527'
p3551
(dp3552
Vcouple
p3553
(dp3554
Vfood
p3555
g22
sVserve
p3556
g22
ssVdrinks
p3557
(dp3558
g3555
g22
sssS'520'
p3559
(dp3560
sS'1019'
p3561
(dp3562
Vconsistent
p3563
(dp3564
Vfood
p3565
g8
ssVit
p3566
(dp3567
g3565
g8
sssS'523'
p3568
(dp3569
Vextensive
p3570
(dp3571
Vfood
p3572
g8
sVprice
p3573
g8
ssVlist
p3574
(dp3575
g3573
g22
sssS'1014'
p3576
(dp3577
Vatmosphere
p3578
(dp3579
Vatmosphere
p3580
g22
sssS'1015'
p3581
(dp3582
sS'1017'
p3583
(dp3584
Vfood
p3585
(dp3586
Vfood
p3587
g22
sssS'528'
p3588
(dp3589
Vmonths
p3590
(dp3591
Vfood
p3592
g22
ssVwinter
p3593
(dp3594
g3592
g22
sVprice
p3595
g22
sssS'529'
p3596
(dp3597
Vfood
p3598
(dp3599
Vfood
p3600
g22
sssS'1012'
p3601
(dp3602
Vaddition
p3603
(dp3604
Vprice
p3605
g8
ssVbenefits
p3606
(dp3607
g3605
g8
sssS'1013'
p3608
(dp3609
Vis
p3610
(dp3611
Vprice
p3612
g8
sssS'1236'
p3613
(dp3614
Vproblem
p3615
(dp3616
Vatmosphere
p3617
g8
sssS'1237'
p3618
(dp3619
sS'1231'
p3620
(dp3621
Vbagels
p3622
(dp3623
Vfood
p3624
g8
sssS'1232'
p3625
(dp3626
sS'1233'
p3627
(dp3628
sS'1238'
p3629
(dp3630
Vtry
p3631
(dp3632
Vservice
p3633
g8
sssS'1239'
p3634
(dp3635
sS'438'
p3636
(dp3637
sS'439'
p3638
(dp3639
Vwish
p3640
(dp3641
Vservice
p3642
g38
sssS'433'
p3643
(dp3644
sS'430'
p3645
(dp3646
VToons
p3647
(dp3648
Vservice
p3649
g8
ssVis
p3650
(dp3651
Vprice
p3652
g8
sg3649
g8
sssS'1966'
p3653
(dp3654
sS'559'
p3655
(dp3656
sS'1967'
p3657
(dp3658
sS'3162'
p3659
(dp3660
Vtown
p3661
(dp3662
Vambiance
p3663
g8
sssS'3160'
p3664
(dp3665
sS'2465'
p3666
(dp3667
VDATES
p3668
(dp3669
Vfood
p3670
g8
sssS'2948'
p3671
(dp3672
sS'997'
p3673
(dp3674
sS'238'
p3675
(dp3676
Vfood
p3677
(dp3678
Vfood
p3679
g22
ssVcheap
p3680
(dp3681
g3679
g8
ssVwaiters
p3682
(dp3683
g3679
g8
sVservice
p3684
g8
sssS'239'
p3685
(dp3686
sS'991'
p3687
(dp3688
Vprices
p3689
(dp3690
Vmonetary_value
p3691
g8
ssVreasonable
p3692
(dp3693
Vfood
p3694
g8
sg3691
g8
sssS'236'
p3695
(dp3696
Vmoney
p3697
(dp3698
Vprice
p3699
g8
sssS'237'
p3700
(dp3701
Vcrab
p3702
(dp3703
Vfood
p3704
g22
sssS'230'
p3705
(dp3706
g87
(dp3707
Vfood
p3708
g8
ssVlook
p3709
(dp3710
g3708
g8
sVatmosphere
p3711
g8
sssS'231'
p3712
(dp3713
g87
(dp3714
Vfood
p3715
g8
ssVwent
p3716
(dp3717
g3715
g8
sVprice
p3718
g8
sssS'232'
p3719
(dp3720
Vplace
p3721
(dp3722
Vatmosphere
p3723
g22
ssVquiet
p3724
(dp3725
g3723
g8
sssS'233'
p3726
(dp3727
Vfood
p3728
(dp3729
Vfood
p3730
g8
sVprice
p3731
g8
sVservice
p3732
g8
ssVgood
p3733
(dp3734
g3731
g8
sg3732
g8
ssVService
p3735
(dp3736
g3732
g8
sssS'909'
p3737
(dp3738
sS'2228'
p3739
(dp3740
Vsetting
p3741
(dp3742
Vservice
p3743
g22
ssVnice
p3744
(dp3745
Vambiance
p3746
g8
sg3743
g8
sssS'2229'
p3747
(dp3748
sS'2226'
p3749
(dp3750
Vprice
p3751
(dp3752
Vmonetary_value
p3753
g22
ssVreasonable
p3754
(dp3755
Vfood
p3756
g8
sg3753
g8
sssS'2227'
p3757
(dp3758
sS'2224'
p3759
(dp3760
sS'2225'
p3761
(dp3762
Vseating
p3763
(dp3764
Vservice
p3765
g22
ssVplace
p3766
(dp3767
Vatmosphere
p3768
g22
sg3765
g22
sssS'2222'
p3769
(dp3770
Vcombination
p3771
(dp3772
Vmilitary_service
p3773
g22
sVservice
p3774
g22
ssVdishes
p3775
(dp3776
g3774
g22
sssS'2223'
p3777
(dp3778
Vfood
p3779
(dp3780
Vfood
p3781
g22
ssVspicy
p3782
(dp3783
g3781
g8
sssS'2220'
p3784
(dp3785
sS'2221'
p3786
(dp3787
sS'147'
p3788
(dp3789
Vstyle
p3790
(dp3791
Vprice
p3792
g22
sssS'142'
p3793
(dp3794
VSoh
p3795
(dp3796
Vprice
p3797
g22
sssS'140'
p3798
(dp3799
sS'141'
p3800
(dp3801
Vdish
p3802
(dp3803
Vservice
p3804
g22
ssg87
(dp3805
Vfood
p3806
g8
sVserve
p3807
g8
sg3804
g8
ssVgo
p3808
(dp3809
g3806
g8
sg3807
g8
sg3804
g8
ssVget
p3810
(dp3811
g3806
g8
sg3807
g8
sg3804
g8
sssS'2468'
p3812
(dp3813
sS'148'
p3814
(dp3815
Vdishes
p3816
(dp3817
Vservice
p3818
g22
sssS'149'
p3819
(dp3820
Vgo
p3821
(dp3822
Vservice
p3823
g8
sssS'3401'
p3824
(dp3825
Vchicken
p3826
(dp3827
Vfood
p3828
g8
sssS'2088'
p3829
(dp3830
sS'2089'
p3831
(dp3832
sS'121'
p3833
(dp3834
Vit
p3835
(dp3836
Vfood
p3837
g8
ssVstays
p3838
(dp3839
g3837
g8
sVservice
p3840
g8
sssS'2082'
p3841
(dp3842
Vfelt
p3843
(dp3844
Vservice
p3845
g8
sssS'2083'
p3846
(dp3847
Vso-so
p3848
(dp3849
Vfood
p3850
g8
ssVsum
p3851
(dp3852
g3850
g22
sssS'2080'
p3853
(dp3854
sS'2081'
p3855
(dp3856
g87
(dp3857
Vfood
p3858
g8
ssVprices
p3859
(dp3860
g3858
g8
sVmonetary_value
p3861
g8
sVservice
p3862
g8
ssVfelt
p3863
(dp3864
g3858
g8
sg3862
g8
sssS'2086'
p3865
(dp3866
Vso-so
p3867
(dp3868
Vfood
p3869
g8
sVservice
p3870
g8
ssVdishes
p3871
(dp3872
g3870
g22
sssS'2087'
p3873
(dp3874
sS'2084'
p3875
(dp3876
Vsum
p3877
(dp3878
Vfood
p3879
g22
sssS'2085'
p3880
(dp3881
Ventree
p3882
(dp3883
Vfood
p3884
g8
ssVwas
p3885
(dp3886
g3884
g8
sVambiance
p3887
g8
sssS'3342'
p3888
(dp3889
sS'2538'
p3890
(dp3891
Vscratch
p3892
(dp3893
Vfood
p3894
g8
sssS'2539'
p3895
(dp3896
Vspecial
p3897
(dp3898
Vfood
p3899
g22
ssVselections
p3900
(dp3901
g3899
g22
sVservice
p3902
g22
sssS'1190'
p3903
(dp3904
sS'2532'
p3905
(dp3906
sS'2533'
p3907
(dp3908
VRest
p3909
(dp3910
Vservice
p3911
g8
sssS'2536'
p3912
(dp3913
sS'1193'
p3914
(dp3915
sS'2534'
p3916
(dp3917
sS'2535'
p3918
(dp3919
sS'2712'
p3920
(dp3921
sS'2713'
p3922
(dp3923
sS'2710'
p3924
(dp3925
sS'2711'
p3926
(dp3927
sS'2716'
p3928
(dp3929
Vjob
p3930
(dp3931
Vservice
p3932
g22
sssS'2717'
p3933
(dp3934
VEye
p3935
(dp3936
Vambiance
p3937
g8
sssS'2714'
p3938
(dp3939
Vmenu
p3940
(dp3941
Vfood
p3942
g22
sssS'2715'
p3943
(dp3944
Vgreat
p3945
(dp3946
Vfood
p3947
g8
sVservice
p3948
g8
ssVsushi
p3949
(dp3950
g3947
g22
ssVfish
p3951
(dp3952
g3947
g8
sg3948
g8
ssVgood
p3953
(dp3954
g3947
g8
sVprice
p3955
g8
sg3948
g8
sssS'2718'
p3956
(dp3957
VSalad
p3958
(dp3959
Vfood
p3960
g8
sssS'128'
p3961
(dp3962
Vduck
p3963
(dp3964
Vfood
p3965
g8
sssS'3344'
p3966
(dp3967
Vofficial
p3968
(dp3969
Vservice
p3970
g22
ssVtimes
p3971
(dp3972
g3970
g22
sssS'129'
p3973
(dp3974
sS'3345'
p3975
(dp3976
Vanywhere
p3977
(dp3978
Vfood
p3979
g8
ssVdoes
p3980
(dp3981
g3979
g8
sVservice
p3982
g8
sssS'1832'
p3983
(dp3984
Vfriends
p3985
(dp3986
Vservice
p3987
g8
sssS'1830'
p3988
(dp3989
sS'1831'
p3990
(dp3991
sS'1836'
p3992
(dp3993
Vgreat
p3994
(dp3995
Vfood
p3996
g8
sVservice
p3997
g8
ssVit
p3998
(dp3999
g3996
g8
sssS'1837'
p4000
(dp4001
sS'1835'
p4002
(dp4003
sS'1838'
p4004
(dp4005
sS'1839'
p4006
(dp4007
VFood
p4008
(dp4009
Vfood
p4010
g8
ssVgreat
p4011
(dp4012
g4010
g8
sVservice
p4013
g8
sssS'2406'
p4014
(dp4015
Vfritters
p4016
(dp4017
Vfood
p4018
g22
sssS'2155'
p4019
(dp4020
Vmayo
p4021
(dp4022
Vfood
p4023
g8
sssS'2156'
p4024
(dp4025
sS'938'
p4026
(dp4027
sS'2150'
p4028
(dp4029
sS'2403'
p4030
(dp4031
sS'2152'
p4032
(dp4033
Vbagels
p4034
(dp4035
Vfood
p4036
g8
sssS'2153'
p4037
(dp4038
sS'932'
p4039
(dp4040
sS'931'
p4041
(dp4042
sS'930'
p4043
(dp4044
Vvodka
p4045
(dp4046
Vfood
p4047
g22
ssVcocktail
p4048
(dp4049
g4047
g8
sssS'2158'
p4050
(dp4051
sS'2159'
p4052
(dp4053
Vinside
p4054
(dp4055
Vatmosphere
p4056
g22
sVambiance
p4057
g22
ssVsize
p4058
(dp4059
g4056
g8
sssS'2408'
p4060
(dp4061
Vhear
p4062
(dp4063
Vprice
p4064
g8
ssVplaying
p4065
(dp4066
g4064
g22
sVservice
p4067
g22
sssS'2409'
p4068
(dp4069
Vdelivery
p4070
(dp4071
Vservice
p4072
g8
sssS'471'
p4073
(dp4074
sS'3091'
p4075
(dp4076
Vfood
p4077
(dp4078
Vfood
p4079
g22
sssS'1955'
p4080
(dp4081
sS'1954'
p4082
(dp4083
sS'1957'
p4084
(dp4085
Vcheesecake
p4086
(dp4087
Vfood
p4088
g22
sssS'1956'
p4089
(dp4090
sS'1951'
p4091
(dp4092
Vupstairs
p4093
(dp4094
Vambiance
p4095
g22
sssS'1950'
p4096
(dp4097
sS'1953'
p4098
(dp4099
Vappetites
p4100
(dp4101
Vatmosphere
p4102
g8
sssS'1952'
p4103
(dp4104
Vfood
p4105
(dp4106
Vfood
p4107
g22
ssVservice
p4108
(dp4109
g4107
g8
sVservice
p4110
g8
ssVexcellent
p4111
(dp4112
g4107
g8
sg4110
g8
sssS'1959'
p4113
(dp4114
sS'1958'
p4115
(dp4116
Vlist
p4117
(dp4118
Vprice
p4119
g22
sssS'3249'
p4120
(dp4121
Vfood
p4122
(dp4123
Vfood
p4124
g22
ssVoutstanding
p4125
(dp4126
g4124
g8
sssS'3248'
p4127
(dp4128
Vchicken
p4129
(dp4130
Vfood
p4131
g22
ssVwas
p4132
(dp4133
g4131
g8
sVambiance
p4134
g8
sssS'3243'
p4135
(dp4136
sS'3242'
p4137
(dp4138
sS'3241'
p4139
(dp4140
Vfish
p4141
(dp4142
Vfood
p4143
g22
sVservice
p4144
g22
ssVhit
p4145
(dp4146
g4144
g22
sssS'3247'
p4147
(dp4148
Vspinach
p4149
(dp4150
Vfood
p4151
g22
sssS'3246'
p4152
(dp4153
sS'3245'
p4154
(dp4155
Vbuns
p4156
(dp4157
Vfood
p4158
g22
ssVgood
p4159
(dp4160
g4158
g8
sVprice
p4161
g8
sssS'3244'
p4162
(dp4163
sS'828'
p4164
(dp4165
Vreservation
p4166
(dp4167
Vservice
p4168
g22
sssS'825'
p4169
(dp4170
sS'824'
p4171
(dp4172
sS'827'
p4173
(dp4174
Vsurprise
p4175
(dp4176
Vfood
p4177
g22
sVservice
p4178
g22
ssVIt
p4179
(dp4180
g4177
g8
sssS'826'
p4181
(dp4182
sS'823'
p4183
(dp4184
Vmeetings
p4185
(dp4186
Vservice
p4187
g22
sssS'822'
p4188
(dp4189
Vreviews
p4190
(dp4191
Vservice
p4192
g38
sssS'2284'
p4193
(dp4194
Vfood
p4195
(dp4196
Vfood
p4197
g22
ssVprices
p4198
(dp4199
g4197
g8
sVprice
p4200
g8
sVmonetary_value
p4201
g8
ssVmediocre
p4202
(dp4203
g4197
g8
sg4200
g8
sg4201
g8
ssVokay
p4204
(dp4205
g4197
g8
sg4200
g8
sssS'1536'
p4206
(dp4207
sS'1993'
p4208
(dp4209
sS'3227'
p4210
(dp4211
VIT
p4212
(dp4213
Vfood
p4214
g8
ssVdeal
p4215
(dp4216
g4214
g22
sVservice
p4217
g22
sssS'1483'
p4218
(dp4219
Vfriendlier
p4220
(dp4221
Vfood
p4222
g8
sssS'1482'
p4223
(dp4224
Vslice
p4225
(dp4226
Vserve
p4227
g38
sVservice
p4228
g38
ssVtoppings
p4229
(dp4230
g4228
g8
sssS'1481'
p4231
(dp4232
Vthinner
p4233
(dp4234
Vfood
p4235
g8
sVambiance
p4236
g8
ssVingredients
p4237
(dp4238
g4235
g8
sg4236
g8
ssVtaste
p4239
(dp4240
g4235
g8
sg4236
g8
sVservice
p4241
g8
ssVis
p4242
(dp4243
g4235
g8
sVprice
p4244
g8
sg4236
g8
sg4241
g8
ssVcrust
p4245
(dp4246
g4236
g22
ssVit
p4247
(dp4248
g4235
g8
sg4236
g8
sg4241
g8
ssVslice
p4249
(dp4250
g4235
g38
sg4236
g38
sg4244
g38
sVserve
p4251
g38
sg4241
g38
ssVoily
p4252
(dp4253
g4235
g8
sg4236
g8
sg4244
g8
sg4251
g8
sg4241
g8
sssS'1480'
p4254
(dp4255
sS'1487'
p4256
(dp4257
Vsauce
p4258
(dp4259
Vfood
p4260
g22
sssS'1823'
p4261
(dp4262
Vpizza
p4263
(dp4264
Vfood
p4265
g22
sssS'1485'
p4266
(dp4267
VPizza
p4268
(dp4269
Vfood
p4270
g8
sssS'1484'
p4271
(dp4272
sS'3306'
p4273
(dp4274
sS'3304'
p4275
(dp4276
sS'3305'
p4277
(dp4278
sS'3302'
p4279
(dp4280
Vservice
p4281
(dp4282
Vservice
p4283
g8
sssS'3303'
p4284
(dp4285
VBisque
p4286
(dp4287
Vfood
p4288
g8
sssS'797'
p4289
(dp4290
Vseafood
p4291
(dp4292
Vfood
p4293
g8
sssS'928'
p4294
(dp4295
g87
(dp4296
Vfood
p4297
g8
ssVcare
p4298
(dp4299
g4297
g8
sVoverhaul
p4300
g8
sssS'1711'
p4301
(dp4302
Vfood
p4303
(dp4304
Vfood
p4305
g22
sssS'1710'
p4306
(dp4307
Vwaiter
p4308
(dp4309
Vservice
p4310
g22
sssS'1717'
p4311
(dp4312
sS'792'
p4313
(dp4314
sS'791'
p4315
(dp4316
Vattentive
p4317
(dp4318
Vfood
p4319
g8
sVservice
p4320
g8
ssVwaiters
p4321
(dp4322
g4320
g8
sssS'2410'
p4323
(dp4324
sS'1719'
p4325
(dp4326
sS'1718'
p4327
(dp4328
sS'2413'
p4329
(dp4330
Vfood
p4331
(dp4332
Vfood
p4333
g22
ssVdisappointing
p4334
(dp4335
g4333
g8
sVprice
p4336
g8
sssS'799'
p4337
(dp4338
Vfood
p4339
(dp4340
Vfood
p4341
g22
sssS'798'
p4342
(dp4343
sS'612'
p4344
(dp4345
sS'2412'
p4346
(dp4347
VSpice
p4348
(dp4349
Vfood
p4350
g8
sssS'1271'
p4351
(dp4352
Vseafood
p4353
(dp4354
Vfood
p4355
g22
ssVweak
p4356
(dp4357
g4355
g8
ssVsketchy
p4358
(dp4359
g4355
g8
ssVovercooked
p4360
(dp4361
g4355
g8
sVprice
p4362
g8
ssVrice
p4363
(dp4364
g4355
g22
ssVcurry
p4365
(dp4366
g4355
g22
sssS'2415'
p4367
(dp4368
VSpice
p4369
(dp4370
Vfood
p4371
g8
sssS'610'
p4372
(dp4373
sS'2414'
p4374
(dp4375
sS'1139'
p4376
(dp4377
sS'1138'
p4378
(dp4379
g87
(dp4380
Vfood
p4381
g8
ssVthing
p4382
(dp4383
g4381
g22
ssVChicken
p4384
(dp4385
g4381
g22
ssVenjoyed
p4386
(dp4387
g4381
g8
sVprice
p4388
g8
sssS'2417'
p4389
(dp4390
VBengali
p4391
(dp4392
Vservice
p4393
g22
sssS'3051'
p4394
(dp4395
Vplace
p4396
(dp4397
Vatmosphere
p4398
g22
sssS'1133'
p4399
(dp4400
sS'1995'
p4401
(dp4402
Vwas
p4403
(dp4404
Vambiance
p4405
g8
sssS'1131'
p4406
(dp4407
sS'1130'
p4408
(dp4409
VTan
p4410
(dp4411
Vatmosphere
p4412
g8
sssS'617'
p4413
(dp4414
sS'2419'
p4415
(dp4416
sS'1276'
p4417
(dp4418
sS'2418'
p4419
(dp4420
Vstuffing
p4421
(dp4422
Vfood
p4423
g22
ssVbread
p4424
(dp4425
g4423
g22
sssS'615'
p4426
(dp4427
Vfood
p4428
(dp4429
Vfood
p4430
g22
ssVhot
p4431
(dp4432
g4430
g8
ssVit
p4433
(dp4434
g4430
g8
sssS'2790'
p4435
(dp4436
Vfood
p4437
(dp4438
Vfood
p4439
g22
ssVwas
p4440
(dp4441
g4439
g8
sVambiance
p4442
g8
sssS'3018'
p4443
(dp4444
sS'3019'
p4445
(dp4446
Vhusband
p4447
(dp4448
Vservice
p4449
g22
sssS'3012'
p4450
(dp4451
sS'3013'
p4452
(dp4453
sS'3011'
p4454
(dp4455
Vcomparison
p4456
(dp4457
Vservice
p4458
g22
ssVmaine
p4459
(dp4460
Vambiance
p4461
g22
sg4458
g22
sssS'3016'
p4462
(dp4463
Vmake
p4464
(dp4465
Vfood
p4466
g8
sVprice
p4467
g8
ssVqualities
p4468
(dp4469
g4467
g8
sssS'3017'
p4470
(dp4471
g87
(dp4472
Vfood
p4473
g8
ssVHUNGRY
p4474
(dp4475
g4473
g8
sssS'3014'
p4476
(dp4477
Ventered
p4478
(dp4479
Vprice
p4480
g8
sVservice
p4481
g8
ssVcall
p4482
(dp4483
g4481
g22
ssVfirst
p4484
(dp4485
g4481
g8
sssS'3015'
p4486
(dp4487
sS'519'
p4488
(dp4489
Vwine
p4490
(dp4491
Vfood
p4492
g22
sssS'518'
p4493
(dp4494
Vservice
p4495
(dp4496
Vservice
p4497
g38
sssS'926'
p4498
(dp4499
g87
(dp4500
Vfood
p4501
g8
ssVlook
p4502
(dp4503
g4501
g8
sVatmosphere
p4504
g8
sssS'1009'
p4505
(dp4506
Vservice
p4507
(dp4508
Vservice
p4509
g8
sssS'1008'
p4510
(dp4511
Vexperience
p4512
(dp4513
Vfood
p4514
g22
sssS'1007'
p4515
(dp4516
sS'1006'
p4517
(dp4518
sS'513'
p4519
(dp4520
sS'927'
p4521
(dp4522
sS'1003'
p4523
(dp4524
sS'1002'
p4525
(dp4526
Vfood
p4527
(dp4528
Vfood
p4529
g22
ssVspectacular
p4530
(dp4531
g4529
g8
sVservice
p4532
g8
ssVview
p4533
(dp4534
g4529
g22
sssS'1001'
p4535
(dp4536
sS'1000'
p4537
(dp4538
Vfood
p4539
(dp4540
Vfood
p4541
g22
ssVgood
p4542
(dp4543
g4541
g8
sVprice
p4544
g8
ssVdrinks
p4545
(dp4546
g4541
g8
sg4544
g8
sssS'623'
p4547
(dp4548
Vvillage
p4549
(dp4550
Vambiance
p4551
g22
sssS'1226'
p4552
(dp4553
sS'621'
p4554
(dp4555
Vshows
p4556
(dp4557
Vservice
p4558
g22
ssVentertainment
p4559
(dp4560
g4558
g22
sssS'620'
p4561
(dp4562
Vfood
p4563
(dp4564
Vfood
p4565
g22
sssS'627'
p4566
(dp4567
sS'626'
p4568
(dp4569
sS'625'
p4570
(dp4571
Vtime
p4572
(dp4573
Vatmosphere
p4574
g22
sssS'624'
p4575
(dp4576
sS'629'
p4577
(dp4578
sS'628'
p4579
(dp4580
Vcool
p4581
(dp4582
Vatmosphere
p4583
g8
sVservice
p4584
g8
ssVserver
p4585
(dp4586
g4584
g22
sssS'1228'
p4587
(dp4588
sS'2882'
p4589
(dp4590
Vexcellent
p4591
(dp4592
Vfood
p4593
g8
sssS'2883'
p4594
(dp4595
sS'2880'
p4596
(dp4597
Vone
p4598
(dp4599
Vfood
p4600
g8
sssS'2881'
p4601
(dp4602
Vfood
p4603
(dp4604
Vfood
p4605
g22
sssS'2886'
p4606
(dp4607
sS'2887'
p4608
(dp4609
sS'2884'
p4610
(dp4611
sS'2885'
p4612
(dp4613
Vcravings
p4614
(dp4615
Vatmosphere
p4616
g22
sssS'2888'
p4617
(dp4618
Vspicy
p4619
(dp4620
Vfood
p4621
g8
ssVIt
p4622
(dp4623
g4621
g8
sssS'2889'
p4624
(dp4625
sS'3196'
p4626
(dp4627
sS'1920'
p4628
(dp4629
sS'15'
p4630
(dp4631
sS'14'
p4632
(dp4633
Vwhole
p4634
(dp4635
Vfood
p4636
g8
sssS'16'
p4637
(dp4638
Vmanager
p4639
(dp4640
Vservice
p4641
g22
sssS'1922'
p4642
(dp4643
Vspace
p4644
(dp4645
Vambiance
p4646
g38
sssS'3275'
p4647
(dp4648
Vawesome
p4649
(dp4650
Vfood
p4651
g8
sVservice
p4652
g8
ssVwaitress
p4653
(dp4654
g4652
g22
sssS'1925'
p4655
(dp4656
sS'3193'
p4657
(dp4658
Vservice
p4659
(dp4660
Vservice
p4661
g8
sssS'929'
p4662
(dp4663
Vmenu
p4664
(dp4665
Vfood
p4666
g22
ssVextensive
p4667
(dp4668
g4666
g8
ssVexcellent
p4669
(dp4670
g4666
g8
sssS'2742'
p4671
(dp4672
Vmartini
p4673
(dp4674
Vfood
p4675
g22
sssS'201'
p4676
(dp4677
Vfood
p4678
(dp4679
Vfood
p4680
g22
ssVprice
p4681
(dp4682
g4680
g22
sVprice
p4683
g22
sVmonetary_value
p4684
g22
ssVgood
p4685
(dp4686
g4680
g8
sg4683
g8
ssVlist
p4687
(dp4688
g4680
g8
sg4683
g8
sg4684
g8
sssS'200'
p4689
(dp4690
sS'202'
p4691
(dp4692
Vwho
p4693
(dp4694
Vmilitary_service
p4695
g8
sssS'205'
p4696
(dp4697
sS'204'
p4698
(dp4699
sS'206'
p4700
(dp4701
Vfood
p4702
(dp4703
Vfood
p4704
g22
sVprice
p4705
g22
ssVis
p4706
(dp4707
g4704
g8
sg4705
g8
ssVits
p4708
(dp4709
g4704
g8
ssVdelicious
p4710
(dp4711
g4704
g8
sg4705
g8
sssS'209'
p4712
(dp4713
Vdate
p4714
(dp4715
Vfood
p4716
g38
ssVtable
p4717
(dp4718
g4716
g8
ssVprivacy
p4719
(dp4720
g4716
g8
sVatmosphere
p4721
g8
sssS'208'
p4722
(dp4723
Vspecials
p4724
(dp4725
Vfood
p4726
g8
ssVgood
p4727
(dp4728
g4726
g8
sVprice
p4729
g8
sssS'1573'
p4730
(dp4731
Vtime
p4732
(dp4733
Vatmosphere
p4734
g22
sssS'831'
p4735
(dp4736
sS'3470'
p4737
(dp4738
Vatmosphere
p4739
(dp4740
Vatmosphere
p4741
g22
ssVbad
p4742
(dp4743
g4741
g8
sVprice
p4744
g8
sssS'687'
p4745
(dp4746
sS'837'
p4747
(dp4748
sS'2239'
p4749
(dp4750
Vexpectations
p4751
(dp4752
Vfood
p4753
g8
sVambiance
p4754
g8
ssVlot
p4755
(dp4756
g4754
g22
sssS'2238'
p4757
(dp4758
g87
(dp4759
Vfood
p4760
g8
ssVthought
p4761
(dp4762
g4760
g8
sVprice
p4763
g8
ssVtried
p4764
(dp4765
g4760
g8
sg4763
g8
sssS'1570'
p4766
(dp4767
sS'834'
p4768
(dp4769
Vmezzanine
p4770
(dp4771
Vservice
p4772
g22
ssVwind
p4773
(dp4774
g4772
g22
sssS'2230'
p4775
(dp4776
sS'2233'
p4777
(dp4778
Vprice
p4779
(dp4780
Vmonetary_value
p4781
g22
sssS'3473'
p4782
(dp4783
sS'2235'
p4784
(dp4785
Vone
p4786
(dp4787
Vfood
p4788
g22
sssS'2234'
p4789
(dp4790
sS'2237'
p4791
(dp4792
VThai
p4793
(dp4794
Vfood
p4795
g8
sVservice
p4796
g8
ssVIt
p4797
(dp4798
g4795
g8
sssS'2236'
p4799
(dp4800
Vbland
p4801
(dp4802
Vfood
p4803
g8
ssVfood
p4804
(dp4805
g4803
g22
ssVsauces
p4806
(dp4807
g4803
g8
ssVfresh
p4808
(dp4809
g4803
g8
sssS'682'
p4810
(dp4811
sS'3499'
p4812
(dp4813
Vglass
p4814
(dp4815
Vservice
p4816
g22
sssS'3496'
p4817
(dp4818
Vsoggy
p4819
(dp4820
Vfood
p4821
g8
ssVPizza
p4822
(dp4823
g4821
g8
sssS'3494'
p4824
(dp4825
sS'3495'
p4826
(dp4827
sS'3492'
p4828
(dp4829
VPizza
p4830
(dp4831
Vfood
p4832
g8
sssS'3493'
p4833
(dp4834
VAmbience
p4835
(dp4836
Vatmosphere
p4837
g8
ssVdelightful
p4838
(dp4839
Vfood
p4840
g8
sg4837
g8
sssS'3490'
p4841
(dp4842
sS'3491'
p4843
(dp4844
Vfood
p4845
(dp4846
Vfood
p4847
g22
ssVItalian
p4848
(dp4849
g4847
g8
sVservice
p4850
g8
sssS'2095'
p4851
(dp4852
sS'2094'
p4853
(dp4854
sS'2097'
p4855
(dp4856
Vdish
p4857
(dp4858
Vservice
p4859
g8
sssS'2096'
p4860
(dp4861
Vplaces
p4862
(dp4863
Vatmosphere
p4864
g22
sssS'2091'
p4865
(dp4866
Vpiece
p4867
(dp4868
Vservice
p4869
g22
sssS'2090'
p4870
(dp4871
Vbite
p4872
(dp4873
Vfood
p4874
g38
ssVcombo
p4875
(dp4876
g4874
g22
sVmilitary_service
p4877
g22
sssS'2093'
p4878
(dp4879
sS'2092'
p4880
(dp4881
sS'3654'
p4882
(dp4883
sS'3655'
p4884
(dp4885
sS'3650'
p4886
(dp4887
Vmake
p4888
(dp4889
Vfood
p4890
g8
sssS'2098'
p4891
(dp4892
sS'3652'
p4893
(dp4894
Vcosts
p4895
(dp4896
Vmonetary_value
p4897
g38
sssS'3653'
p4898
(dp4899
sS'2525'
p4900
(dp4901
Vplace
p4902
(dp4903
Vatmosphere
p4904
g22
sssS'2524'
p4905
(dp4906
sS'2526'
p4907
(dp4908
Vprices
p4909
(dp4910
Vmonetary_value
p4911
g8
sVservice
p4912
g8
ssVtake
p4913
(dp4914
g4912
g8
ssVDeliveries
p4915
(dp4916
g4912
g8
sssS'2521'
p4917
(dp4918
Venvironment
p4919
(dp4920
Vambiance
p4921
g22
ssVfood
p4922
(dp4923
Vfood
p4924
g22
sg4921
g22
sVservice
p4925
g22
ssVromantic
p4926
(dp4927
g4921
g8
sg4925
g8
ssVservice
p4928
(dp4929
g4921
g8
sg4925
g8
sssS'2520'
p4930
(dp4931
Vbad
p4932
(dp4933
Vatmosphere
p4934
g8
sVprice
p4935
g8
ssVplace
p4936
(dp4937
g4934
g22
sssS'2523'
p4938
(dp4939
Vfood
p4940
(dp4941
Vfood
p4942
g22
sVservice
p4943
g22
ssVcold
p4944
(dp4945
g4942
g8
sVatmosphere
p4946
g8
sg4943
g8
ssVtake
p4947
(dp4948
g4943
g8
ssVdeliveries
p4949
(dp4950
g4943
g8
sssS'2522'
p4951
(dp4952
sS'2529'
p4953
(dp4954
Videa
p4955
(dp4956
Vfood
p4957
g38
sssS'2709'
p4958
(dp4959
Vdesserts
p4960
(dp4961
Vfood
p4962
g8
ssVappealing
p4963
(dp4964
g4962
g8
sVprice
p4965
g8
sssS'2708'
p4966
(dp4967
sS'2705'
p4968
(dp4969
Voutside
p4970
(dp4971
Vambiance
p4972
g22
sssS'2704'
p4973
(dp4974
sS'2707'
p4975
(dp4976
sS'2706'
p4977
(dp4978
Vpeople
p4979
(dp4980
Vmilitary_service
p4981
g8
sssS'2701'
p4982
(dp4983
Vfood
p4984
(dp4985
Vfood
p4986
g8
sVservice
p4987
g8
ssVgreat
p4988
(dp4989
g4987
g8
ssVfantastic
p4990
(dp4991
g4986
g8
sg4987
g8
ssVService
p4992
(dp4993
g4987
g8
sssS'2700'
p4994
(dp4995
sS'2703'
p4996
(dp4997
sS'2702'
p4998
(dp4999
VGuacamole
p5000
(dp5001
Vfood
p5002
g22
ssVfilet
p5003
(dp5004
g5002
g22
sssS'1829'
p5005
(dp5006
sS'1828'
p5007
(dp5008
Vfresh
p5009
(dp5010
Vfood
p5011
g8
ssVpie
p5012
(dp5013
g5011
g38
sssS'1825'
p5014
(dp5015
VRosario
p5016
(dp5017
Vambiance
p5018
g8
sssS'1824'
p5019
(dp5020
sS'1827'
p5021
(dp5022
Vpride
p5023
(dp5024
Vatmosphere
p5025
g22
sssS'1826'
p5026
(dp5027
sS'1821'
p5028
(dp5029
Vneighborhood
p5030
(dp5031
Vambiance
p5032
g22
sssS'1820'
p5033
(dp5034
sS'512'
p5035
(dp5036
Vrude
p5037
(dp5038
Vfood
p5039
g8
sssS'1822'
p5040
(dp5041
Vterrific
p5042
(dp5043
Vfood
p5044
g8
ssVbetter
p5045
(dp5046
g5044
g8
sVprice
p5047
g8
sVmonetary_value
p5048
g8
ssVprice
p5049
(dp5050
g5044
g22
sg5048
g22
sssS'2147'
p5051
(dp5052
sS'2146'
p5053
(dp5054
Vfood
p5055
(dp5056
Vfood
p5057
g22
ssVatmosphere
p5058
(dp5059
g5057
g22
sVatmosphere
p5060
g22
ssVmakes
p5061
(dp5062
g5057
g8
sg5060
g8
sVmilitary_service
p5063
g8
ssVstaff
p5064
(dp5065
g5057
g22
sg5060
g22
sg5063
g22
sssS'2145'
p5066
(dp5067
sS'2144'
p5068
(dp5069
sS'2143'
p5070
(dp5071
sS'2142'
p5072
(dp5073
sS'2141'
p5074
(dp5075
sS'2140'
p5076
(dp5077
Vname
p5078
(dp5079
Vservice
p5080
g22
ssVglad
p5081
(dp5082
g5080
g8
sssS'920'
p5083
(dp5084
Vfood
p5085
(dp5086
Vfood
p5087
g22
sssS'921'
p5088
(dp5089
Vplace
p5090
(dp5091
Vatmosphere
p5092
g22
ssVnice
p5093
(dp5094
g5092
g8
sVambiance
p5095
g8
sssS'922'
p5096
(dp5097
Vservice
p5098
(dp5099
Vservice
p5100
g8
sssS'923'
p5101
(dp5102
Vsurprise
p5103
(dp5104
Vservice
p5105
g22
sssS'924'
p5106
(dp5107
V2
p5108
(dp5109
Vfood
p5110
g8
ssVblocks
p5111
(dp5112
g5110
g8
sVserve
p5113
g8
ssVmeal
p5114
(dp5115
g5110
g8
sssS'925'
p5116
(dp5117
Vservice
p5118
(dp5119
Vservice
p5120
g8
sssS'2149'
p5121
(dp5122
sS'2148'
p5123
(dp5124
Vknow
p5125
(dp5126
Vserve
p5127
g8
sssS'2411'
p5128
(dp5129
sS'3276'
p5130
(dp5131
sS'3277'
p5132
(dp5133
Vate
p5134
(dp5135
Vfood
p5136
g8
sssS'3274'
p5137
(dp5138
sS'1923'
p5139
(dp5140
Vcase
p5141
(dp5142
Vatmosphere
p5143
g22
sssS'3272'
p5144
(dp5145
Vcollection
p5146
(dp5147
Vservice
p5148
g22
sssS'3273'
p5149
(dp5150
Vmartini
p5151
(dp5152
Vfood
p5153
g22
sssS'1926'
p5154
(dp5155
VVillage
p5156
(dp5157
Vambiance
p5158
g8
sssS'1927'
p5159
(dp5160
sS'1928'
p5161
(dp5162
Vsurprised
p5163
(dp5164
Vprice
p5165
g8
sssS'1929'
p5166
(dp5167
Vfood
p5168
(dp5169
Vfood
p5170
g22
ssVsteak
p5171
(dp5172
g5170
g8
ssVservice
p5173
(dp5174
g5170
g8
sVservice
p5175
g8
ssVdelicious
p5176
(dp5177
g5170
g8
sssS'3278'
p5178
(dp5179
Vfood
p5180
(dp5181
Vfood
p5182
g22
sVservice
p5183
g22
ssVtasty
p5184
(dp5185
g5182
g8
sg5183
g8
ssVrestaurant
p5186
(dp5187
g5183
g22
sssS'3279'
p5188
(dp5189
Vprices
p5190
(dp5191
Vmonetary_value
p5192
g8
ssVway
p5193
(dp5194
Vatmosphere
p5195
g22
sg5192
g22
sssS'3474'
p5196
(dp5197
sS'833'
p5198
(dp5199
Vspot
p5200
(dp5201
Vservice
p5202
g38
sssS'3476'
p5203
(dp5204
VHATE
p5205
(dp5206
Vatmosphere
p5207
g22
sssS'3477'
p5208
(dp5209
sS'836'
p5210
(dp5211
Vwere
p5212
(dp5213
Vprice
p5214
g8
sssS'3471'
p5215
(dp5216
sS'3472'
p5217
(dp5218
Vreservations
p5219
(dp5220
Vprice
p5221
g8
sVservice
p5222
g8
ssVwaited
p5223
(dp5224
g5221
g8
sssS'835'
p5225
(dp5226
Vfood
p5227
(dp5228
Vfood
p5229
g22
ssVexpensive
p5230
(dp5231
g5229
g8
sssS'838'
p5232
(dp5233
sS'839'
p5234
(dp5235
Vcharacter
p5236
(dp5237
Vservice
p5238
g38
sssS'3478'
p5239
(dp5240
sS'3479'
p5241
(dp5242
sS'3'
p5243
(dp5244
Vfriendliest
p5245
(dp5246
Vfood
p5247
g8
sVmilitary_service
p5248
g8
ssVstaff
p5249
(dp5250
g5248
g22
sssS'2937'
p5251
(dp5252
Vsqueeze
p5253
(dp5254
Vservice
p5255
g8
sssS'1986'
p5256
(dp5257
Vpresentation
p5258
(dp5259
Vservice
p5260
g8
sssS'3319'
p5261
(dp5262
Vservice
p5263
(dp5264
Vservice
p5265
g8
sssS'3318'
p5266
(dp5267
sS'3313'
p5268
(dp5269
Vwent
p5270
(dp5271
Vprice
p5272
g8
sssS'3315'
p5273
(dp5274
Vevening
p5275
(dp5276
Vfood
p5277
g22
sssS'3314'
p5278
(dp5279
sS'3317'
p5280
(dp5281
Vgood
p5282
(dp5283
Vfood
p5284
g8
sVprice
p5285
g8
ssg87
(dp5286
g5284
g8
sg5285
g8
ssVterrific
p5287
(dp5288
g5284
g8
ssVFood
p5289
(dp5290
g5284
g8
ssVwent
p5291
(dp5292
g5284
g8
sg5285
g8
ssVview
p5293
(dp5294
g5284
g22
sssS'3316'
p5295
(dp5296
Vdessert
p5297
(dp5298
Vfood
p5299
g22
sssS'784'
p5300
(dp5301
Vplace
p5302
(dp5303
Vatmosphere
p5304
g22
sssS'785'
p5305
(dp5306
Vfeel
p5307
(dp5308
Vatmosphere
p5309
g22
sssS'780'
p5310
(dp5311
sS'781'
p5312
(dp5313
g1256
(dp5314
Vfood
p5315
g8
ssVgo
p5316
(dp5317
g5315
g8
sVservice
p5318
g8
sssS'1728'
p5319
(dp5320
sS'1729'
p5321
(dp5322
Vgood
p5323
(dp5324
Vfood
p5325
g8
sVprice
p5326
g8
ssVPizza
p5327
(dp5328
g5325
g8
sssS'1727'
p5329
(dp5330
Vtaste
p5331
(dp5332
Vservice
p5333
g22
sssS'1724'
p5334
(dp5335
Vpart
p5336
(dp5337
Vservice
p5338
g22
ssVnight
p5339
(dp5340
Vfood
p5341
g22
sg5338
g22
sssS'788'
p5342
(dp5343
Vwebsite
p5344
(dp5345
Vservice
p5346
g38
ssVdisappointing
p5347
(dp5348
Vfood
p5349
g8
sVprice
p5350
g8
sg5346
g8
ssVmakes
p5351
(dp5352
g5349
g8
sg5346
g8
ssVit
p5353
(dp5354
g5349
g8
sg5346
g8
sssS'1723'
p5355
(dp5356
Vfood
p5357
(dp5358
Vfood
p5359
g22
ssVyummy
p5360
(dp5361
g5359
g8
sssS'1720'
p5362
(dp5363
Vwannabes
p5364
(dp5365
Vservice
p5366
g38
sssS'1721'
p5367
(dp5368
VStrike
p5369
(dp5370
Vservice
p5371
g8
sssS'153'
p5372
(dp5373
sS'3005'
p5374
(dp5375
Vbar
p5376
(dp5377
Vservice
p5378
g22
sssS'61'
p5379
(dp5380
Vspot
p5381
(dp5382
Vservice
p5383
g38
sssS'62'
p5384
(dp5385
Vbeer
p5386
(dp5387
Vfood
p5388
g22
sVservice
p5389
g22
ssVbartender
p5390
(dp5391
g5389
g22
sssS'2438'
p5392
(dp5393
sS'3001'
p5394
(dp5395
Vcourteous
p5396
(dp5397
Vfood
p5398
g8
sVmilitary_service
p5399
g8
ssVstaff
p5400
(dp5401
g5399
g22
sssS'3000'
p5402
(dp5403
sS'66'
p5404
(dp5405
Vgo
p5406
(dp5407
Vmilitary_service
p5408
g8
sVservice
p5409
g8
ssVfriends
p5410
(dp5411
g5409
g8
ssVpeople
p5412
(dp5413
g5408
g38
sg5409
g38
sssS'3002'
p5414
(dp5415
Vrivals
p5416
(dp5417
Vfood
p5418
g8
sVservice
p5419
g8
ssVsushi
p5420
(dp5421
g5418
g22
sssS'1985'
p5422
(dp5423
sS'407'
p5424
(dp5425
Vsushi
p5426
(dp5427
Vfood
p5428
g22
ssVseemed
p5429
(dp5430
g5428
g8
sVprice
p5431
g8
sssS'406'
p5432
(dp5433
sS'1582'
p5434
(dp5435
g87
(dp5436
Vfood
p5437
g8
ssVHAVE
p5438
(dp5439
g5437
g8
sVservice
p5440
g8
sssS'1583'
p5441
(dp5442
VSHOWS
p5443
(dp5444
Vservice
p5445
g8
sssS'1580'
p5446
(dp5447
Vstaff
p5448
(dp5449
Vmilitary_service
p5450
g22
sssS'1581'
p5451
(dp5452
sS'1586'
p5453
(dp5454
sS'405'
p5455
(dp5456
sS'1584'
p5457
(dp5458
VSHOW
p5459
(dp5460
Vservice
p5461
g8
sssS'1585'
p5462
(dp5463
VPUT
p5464
(dp5465
Vprice
p5466
g8
sssS'159'
p5467
(dp5468
Vfood
p5469
(dp5470
Vfood
p5471
g22
ssVlooked
p5472
(dp5473
g5471
g8
sVprice
p5474
g8
sssS'1038'
p5475
(dp5476
Vservice
p5477
(dp5478
Vservice
p5479
g8
sssS'1372'
p5480
(dp5481
Vambience
p5482
(dp5483
Vatmosphere
p5484
g22
ssVgreat
p5485
(dp5486
g5484
g8
sVservice
p5487
g8
ssVService
p5488
(dp5489
g5484
g8
sg5487
g8
ssVhorrible
p5490
(dp5491
Vfood
p5492
g8
sg5484
g8
sg5487
g8
sssS'508'
p5493
(dp5494
sS'509'
p5495
(dp5496
Vgood
p5497
(dp5498
Vprice
p5499
g8
sVservice
p5500
g8
ssVService
p5501
(dp5502
g5500
g8
sssS'1032'
p5503
(dp5504
sS'1033'
p5505
(dp5506
VDelivery
p5507
(dp5508
Vservice
p5509
g8
ssVis
p5510
(dp5511
Vprice
p5512
g8
sg5509
g8
sssS'504'
p5513
(dp5514
Vfood
p5515
(dp5516
Vfood
p5517
g22
sVprice
p5518
g22
ssVDecor
p5519
(dp5520
g5517
g8
sg5518
g8
sVservice
p5521
g8
ssVpresented
p5522
(dp5523
g5517
g8
sg5518
g8
sssS'1031'
p5524
(dp5525
sS'502'
p5526
(dp5527
Vfood
p5528
(dp5529
Vfood
p5530
g22
ssVwas
p5531
(dp5532
g5530
g8
sVambiance
p5533
g8
sssS'1037'
p5534
(dp5535
Vfood
p5536
(dp5537
Vfood
p5538
g22
ssVcheap
p5539
(dp5540
g5538
g8
ssVit
p5541
(dp5542
g5538
g8
sssS'500'
p5543
(dp5544
sS'1035'
p5545
(dp5546
Vbite
p5547
(dp5548
Vfood
p5549
g8
sssS'630'
p5550
(dp5551
g87
(dp5552
Vfood
p5553
g8
ssVrecommend
p5554
(dp5555
g5553
g8
sVprice
p5556
g8
sssS'1213'
p5557
(dp5558
g87
(dp5559
Vfood
p5560
g8
ssVnew
p5561
(dp5562
g5560
g8
sssS'1210'
p5563
(dp5564
Vjoint
p5565
(dp5566
Vfood
p5567
g22
sssS'1211'
p5568
(dp5569
sS'1216'
p5570
(dp5571
sS'401'
p5572
(dp5573
Vflower
p5574
(dp5575
Vservice
p5576
g22
ssVservice
p5577
(dp5578
g5576
g8
sssS'1214'
p5579
(dp5580
Vis
p5581
(dp5582
Vprice
p5583
g8
sssS'1215'
p5584
(dp5585
sS'638'
p5586
(dp5587
sS'639'
p5588
(dp5589
sS'1218'
p5590
(dp5591
sS'1376'
p5592
(dp5593
g87
(dp5594
Vfood
p5595
g8
ssVplan
p5596
(dp5597
g5595
g8
sssS'2416'
p5598
(dp5599
sS'2899'
p5600
(dp5601
Vchops
p5602
(dp5603
Vserve
p5604
g22
ssVgood
p5605
(dp5606
Vprice
p5607
g8
sg5604
g8
sssS'782'
p5608
(dp5609
sS'2895'
p5610
(dp5611
sS'2894'
p5612
(dp5613
Vfood
p5614
(dp5615
Vfood
p5616
g22
sssS'2897'
p5617
(dp5618
Vfood
p5619
(dp5620
Vfood
p5621
g22
sssS'2896'
p5622
(dp5623
Vambiance
p5624
(dp5625
Vatmosphere
p5626
g22
sssS'2891'
p5627
(dp5628
sS'2890'
p5629
(dp5630
g87
(dp5631
Vfood
p5632
g8
sVservice
p5633
g8
ssVSapphire
p5634
(dp5635
g5632
g8
ssVrestaurant
p5636
(dp5637
g5632
g22
sg5633
g22
sssS'2893'
p5638
(dp5639
Vstaff
p5640
(dp5641
Vmilitary_service
p5642
g22
sssS'2892'
p5643
(dp5644
Vstaff
p5645
(dp5646
Vmilitary_service
p5647
g22
sssS'1454'
p5648
(dp5649
sS'1455'
p5650
(dp5651
Vrestaurant
p5652
(dp5653
Vservice
p5654
g22
sssS'1104'
p5655
(dp5656
Vbenedict
p5657
(dp5658
Vfood
p5659
g22
ssVsauce
p5660
(dp5661
g5659
g8
sssS'1105'
p5662
(dp5663
sS'1102'
p5664
(dp5665
sS'1103'
p5666
(dp5667
Vdinner
p5668
(dp5669
Vfood
p5670
g22
sssS'1100'
p5671
(dp5672
g87
(dp5673
Vfood
p5674
g8
sssS'1101'
p5675
(dp5676
Vglass
p5677
(dp5678
Vservice
p5679
g22
sssS'1458'
p5680
(dp5681
Vfavorite
p5682
(dp5683
Vservice
p5684
g8
sssS'1459'
p5685
(dp5686
Vgreat
p5687
(dp5688
Vfood
p5689
g8
sVservice
p5690
g8
ssVziti
p5691
(dp5692
g5689
g8
sg5690
g8
ssVparmesan
p5693
(dp5694
g5689
g22
sssS'1108'
p5695
(dp5696
Vsteakhouse
p5697
(dp5698
Vservice
p5699
g22
sssS'1109'
p5700
(dp5701
Vpotatoes
p5702
(dp5703
Vfood
p5704
g8
ssVhands
p5705
(dp5706
g5704
g8
sVservice
p5707
g8
sssS'1722'
p5708
(dp5709
Vpleasant
p5710
(dp5711
Vfood
p5712
g8
sVmilitary_service
p5713
g8
ssVstaff
p5714
(dp5715
g5713
g22
sssS'789'
p5716
(dp5717
Vmenu
p5718
(dp5719
Vfood
p5720
g22
sssS'1357'
p5721
(dp5722
Vspot
p5723
(dp5724
Vservice
p5725
g38
sssS'1576'
p5726
(dp5727
sS'959'
p5728
(dp5729
Vatmosphere
p5730
(dp5731
Vatmosphere
p5732
g22
ssVfriendly
p5733
(dp5734
g5732
g8
sVmilitary_service
p5735
g8
sVservice
p5736
g8
ssVservice
p5737
(dp5738
g5732
g8
sg5736
g8
sssS'958'
p5739
(dp5740
sS'2794'
p5741
(dp5742
sS'216'
p5743
(dp5744
sS'217'
p5745
(dp5746
sS'214'
p5747
(dp5748
Vattentive
p5749
(dp5750
Vfood
p5751
g8
sssS'215'
p5752
(dp5753
Vhuge
p5754
(dp5755
Vfood
p5756
g8
sVprice
p5757
g8
ssVlist
p5758
(dp5759
g5757
g22
sssS'212'
p5760
(dp5761
Vcaviar
p5762
(dp5763
Vfood
p5764
g22
sVservice
p5765
g22
ssVrest
p5766
(dp5767
g5765
g22
sssS'213'
p5768
(dp5769
Vwater
p5770
(dp5771
Vfood
p5772
g22
sssS'210'
p5773
(dp5774
sS'211'
p5775
(dp5776
sS'218'
p5777
(dp5778
sS'3094'
p5779
(dp5780
sS'957'
p5781
(dp5782
sS'956'
p5783
(dp5784
Vfood
p5785
(dp5786
Vfood
p5787
g22
sssS'939'
p5788
(dp5789
Vfood
p5790
(dp5791
Vfood
p5792
g22
sssS'4'
p5793
(dp5794
Vbrunch
p5795
(dp5796
Vfood
p5797
g22
ssVgreat
p5798
(dp5799
g5797
g8
sVservice
p5800
g8
ssVgroups
p5801
(dp5802
g5797
g8
sVmilitary_service
p5803
g8
sg5800
g8
sssS'3489'
p5804
(dp5805
sS'3488'
p5806
(dp5807
sS'3481'
p5808
(dp5809
sS'3480'
p5810
(dp5811
sS'3483'
p5812
(dp5813
g87
(dp5814
Vfood
p5815
g8
ssVwas
p5816
(dp5817
g5815
g8
sVambiance
p5818
g8
sssS'3482'
p5819
(dp5820
sS'3487'
p5821
(dp5822
sS'2474'
p5823
(dp5824
Vfood
p5825
(dp5826
Vfood
p5827
g22
ssVstuff
p5828
(dp5829
g5827
g38
sssS'3649'
p5830
(dp5831
Vtear
p5832
(dp5833
Vservice
p5834
g8
ssVBartender
p5835
(dp5836
g5834
g8
sssS'3648'
p5837
(dp5838
Vdirty
p5839
(dp5840
Vprice
p5841
g8
sVservice
p5842
g8
ssVRestaurant
p5843
(dp5844
g5842
g8
sssS'3647'
p5845
(dp5846
sS'3646'
p5847
(dp5848
sS'3645'
p5849
(dp5850
Vdates
p5851
(dp5852
Vfood
p5853
g8
sssS'3644'
p5854
(dp5855
sS'3643'
p5856
(dp5857
sS'3642'
p5858
(dp5859
Vfood
p5860
(dp5861
Vfood
p5862
g22
ssVquick
p5863
(dp5864
g5862
g8
sVservice
p5865
g8
ssVservice
p5866
(dp5867
g5862
g8
sg5865
g8
ssVoutstanding
p5868
(dp5869
g5862
g8
sssS'3641'
p5870
(dp5871
sS'3640'
p5872
(dp5873
sS'2550'
p5874
(dp5875
sS'2551'
p5876
(dp5877
sS'2553'
p5878
(dp5879
sS'2554'
p5880
(dp5881
sS'2555'
p5882
(dp5883
Vprices
p5884
(dp5885
Vatmosphere
p5886
g8
sVambiance
p5887
g8
sVmonetary_value
p5888
g8
sVservice
p5889
g8
ssVoverlook
p5890
(dp5891
g5886
g8
sg5887
g8
ssVService
p5892
(dp5893
g5886
g8
sg5887
g8
sg5889
g8
ssVtime
p5894
(dp5895
g5886
g22
sssS'3004'
p5896
(dp5897
Vplace
p5898
(dp5899
Vatmosphere
p5900
g22
sssS'2558'
p5901
(dp5902
sS'2559'
p5903
(dp5904
Vpie
p5905
(dp5906
Vfood
p5907
g8
sssS'2396'
p5908
(dp5909
Vplace
p5910
(dp5911
Vatmosphere
p5912
g22
sssS'2397'
p5913
(dp5914
sS'2394'
p5915
(dp5916
Vminutes
p5917
(dp5918
Vprice
p5919
g22
sssS'2395'
p5920
(dp5921
sS'2392'
p5922
(dp5923
Vfood
p5924
(dp5925
Vfood
p5926
g22
ssVSpice
p5927
(dp5928
g5926
g8
sssS'2393'
p5929
(dp5930
sS'2390'
p5931
(dp5932
g87
(dp5933
Vfood
p5934
g8
ssVdish
p5935
(dp5936
g5934
g22
sVservice
p5937
g22
ssVsure
p5938
(dp5939
g5934
g8
ssVitem
p5940
(dp5941
g5934
g38
sg5937
g38
sssS'2391'
p5942
(dp5943
Vgood
p5944
(dp5945
Vprice
p5946
g8
sssS'2398'
p5947
(dp5948
sS'65'
p5949
(dp5950
sS'2778'
p5951
(dp5952
sS'2779'
p5953
(dp5954
Vappetizers
p5955
(dp5956
Vfood
p5957
g38
sVprice
p5958
g38
ssVordered
p5959
(dp5960
g5958
g8
ssVgave
p5961
(dp5962
g5957
g8
sg5958
g8
sssS'3003'
p5963
(dp5964
Vfish
p5965
(dp5966
Vfood
p5967
g8
sssS'2770'
p5968
(dp5969
Vclaimed
p5970
(dp5971
Vprice
p5972
g8
sVservice
p5973
g8
ssVromantic
p5974
(dp5975
g5973
g8
sssS'2771'
p5976
(dp5977
sS'2772'
p5978
(dp5979
Vmenu
p5980
(dp5981
Vfood
p5982
g22
sssS'2773'
p5983
(dp5984
Vstart
p5985
(dp5986
Vservice
p5987
g8
sssS'2774'
p5988
(dp5989
sS'2777'
p5990
(dp5991
Vfactor
p5992
(dp5993
Vfood
p5994
g8
sssS'3166'
p5995
(dp5996
g87
(dp5997
Vfood
p5998
g8
ssVgo
p5999
(dp6000
g5998
g8
sVservice
p6001
g8
sssS'3167'
p6002
(dp6003
Vbagels
p6004
(dp6005
Vfood
p6006
g8
sVprice
p6007
g8
ssVfine
p6008
(dp6009
g6006
g8
sg6007
g8
ssVovercooked
p6010
(dp6011
g6007
g8
sssS'3165'
p6012
(dp6013
sS'1851'
p6014
(dp6015
sS'1852'
p6016
(dp6017
Vfood
p6018
(dp6019
Vfood
p6020
g22
sVatmosphere
p6021
g22
ssVcomplaint
p6022
(dp6023
g6021
g8
sssS'1853'
p6024
(dp6025
sS'1854'
p6026
(dp6027
sS'1855'
p6028
(dp6029
VSangria
p6030
(dp6031
Vfood
p6032
g8
sssS'1856'
p6033
(dp6034
sS'1857'
p6035
(dp6036
Vdrink
p6037
(dp6038
Vfood
p6039
g22
ssVspace
p6040
(dp6041
g6039
g38
sVambiance
p6042
g38
sssS'2172'
p6043
(dp6044
sS'2173'
p6045
(dp6046
Vit
p6047
(dp6048
Vfood
p6049
g8
ssVstore
p6050
(dp6051
g6049
g22
sVservice
p6052
g22
sssS'2170'
p6053
(dp6054
Vstaff
p6055
(dp6056
Vmilitary_service
p6057
g22
sssS'2171'
p6058
(dp6059
sS'2176'
p6060
(dp6061
sS'2177'
p6062
(dp6063
sS'915'
p6064
(dp6065
Vselection
p6066
(dp6067
Vservice
p6068
g22
sssS'914'
p6069
(dp6070
sS'2178'
p6071
(dp6072
Vbagel
p6073
(dp6074
Vfood
p6075
g22
sVprice
p6076
g22
sVservice
p6077
g22
ssVgood
p6078
(dp6079
g6076
g8
ssVfavorite
p6080
(dp6081
g6076
g8
sg6077
g8
sssS'916'
p6082
(dp6083
Vfood
p6084
(dp6085
Vfood
p6086
g22
ssVaverage
p6087
(dp6088
g6086
g8
sssS'911'
p6089
(dp6090
Vgood
p6091
(dp6092
Vfood
p6093
g8
sVprice
p6094
g8
sVatmosphere
p6095
g8
sVservice
p6096
g8
ssVordered
p6097
(dp6098
g6093
g8
sg6094
g8
ssVFood
p6099
(dp6100
g6093
g8
sg6094
g8
sg6095
g8
sg6096
g8
ssVfat
p6101
(dp6102
g6093
g8
sg6094
g8
sg6095
g8
ssg87
(dp6103
g6093
g8
ssVselection
p6104
(dp6105
g6093
g22
sg6094
g22
sg6095
g22
sg6096
g22
ssVbelly
p6106
(dp6107
g6093
g22
sg6094
g22
sVambiance
p6108
g22
sg6095
g22
sg6096
g22
ssVmore
p6109
(dp6110
g6093
g8
sg6094
g8
sg6095
g8
sg6096
g8
sssS'910'
p6111
(dp6112
Vgood
p6113
(dp6114
Vprice
p6115
g8
sVservice
p6116
g8
ssVService
p6117
(dp6118
g6116
g8
sssS'913'
p6119
(dp6120
Vhall
p6121
(dp6122
Vservice
p6123
g22
ssVrestaurant
p6124
(dp6125
g6123
g22
sssS'912'
p6126
(dp6127
Vselection
p6128
(dp6129
Vservice
p6130
g22
sssS'2604'
p6131
(dp6132
Vplace
p6133
(dp6134
Vatmosphere
p6135
g22
sssS'2605'
p6136
(dp6137
Vbitter
p6138
(dp6139
Vfood
p6140
g8
sVprice
p6141
g8
sVservice
p6142
g8
ssVburnt
p6143
(dp6144
g6141
g8
sg6142
g8
ssVMine
p6145
(dp6146
g6142
g8
sssS'2606'
p6147
(dp6148
Vtasted
p6149
(dp6150
Vprice
p6151
g8
ssVpizza
p6152
(dp6153
Vfood
p6154
g22
sg6151
g22
sssS'2607'
p6155
(dp6156
Vtasty
p6157
(dp6158
Vfood
p6159
g8
ssVsangria
p6160
(dp6161
g6159
g22
sssS'2600'
p6162
(dp6163
sS'2601'
p6164
(dp6165
sS'2602'
p6166
(dp6167
sS'1420'
p6168
(dp6169
sS'2608'
p6170
(dp6171
sS'2609'
p6172
(dp6173
sS'3261'
p6174
(dp6175
Vwontons
p6176
(dp6177
Vfood
p6178
g8
sssS'3260'
p6179
(dp6180
sS'3263'
p6181
(dp6182
Vbite
p6183
(dp6184
Vfood
p6185
g22
ssVwas
p6186
(dp6187
g6185
g8
sVambiance
p6188
g8
sssS'1930'
p6189
(dp6190
sS'3265'
p6191
(dp6192
Vsizes
p6193
(dp6194
Vatmosphere
p6195
g8
sssS'3264'
p6196
(dp6197
Vcod
p6198
(dp6199
Vfood
p6200
g22
sssS'1935'
p6201
(dp6202
Vdinner
p6203
(dp6204
Vfood
p6205
g38
sssS'3266'
p6206
(dp6207
Vsimplicity
p6208
(dp6209
Vprice
p6210
g38
sssS'3268'
p6211
(dp6212
Vambience
p6213
(dp6214
Vatmosphere
p6215
g22
ssVcalm
p6216
(dp6217
g6215
g8
sssS'1939'
p6218
(dp6219
Vgem
p6220
(dp6221
Vfood
p6222
g22
sssS'2051'
p6223
(dp6224
Vname
p6225
(dp6226
Vservice
p6227
g22
sssS'847'
p6228
(dp6229
sS'846'
p6230
(dp6231
Vservice
p6232
(dp6233
Vservice
p6234
g8
sssS'845'
p6235
(dp6236
Vshout
p6237
(dp6238
Vprice
p6239
g8
sVmilitary_service
p6240
g8
ssVroom
p6241
(dp6242
g6240
g8
sssS'844'
p6243
(dp6244
Vfreshness
p6245
(dp6246
Vatmosphere
p6247
g22
sssS'843'
p6248
(dp6249
sS'3462'
p6250
(dp6251
Vcost
p6252
(dp6253
Vmonetary_value
p6254
g22
sssS'3461'
p6255
(dp6256
sS'3460'
p6257
(dp6258
sS'2793'
p6259
(dp6260
sS'3469'
p6261
(dp6262
sS'3468'
p6263
(dp6264
sS'3364'
p6265
(dp6266
Vspot
p6267
(dp6268
Vservice
p6269
g22
sssS'3365'
p6270
(dp6271
sS'3361'
p6272
(dp6273
Vmenu
p6274
(dp6275
Vfood
p6276
g22
sssS'2407'
p6277
(dp6278
Vreason
p6279
(dp6280
Vatmosphere
p6281
g22
sssS'1192'
p6282
(dp6283
Vsushi
p6284
(dp6285
Vfood
p6286
g22
sssS'1739'
p6287
(dp6288
sS'1738'
p6289
(dp6290
sS'1731'
p6291
(dp6292
sS'1730'
p6293
(dp6294
VSalads
p6295
(dp6296
Vfood
p6297
g8
sssS'1733'
p6298
(dp6299
VDecor
p6300
(dp6301
Vservice
p6302
g8
sssS'1732'
p6303
(dp6304
Vthick
p6305
(dp6306
Vfood
p6307
g8
sVambiance
p6308
g8
ssVIt
p6309
(dp6310
g6307
g8
sssS'1735'
p6311
(dp6312
sS'1734'
p6313
(dp6314
VService
p6315
(dp6316
Vservice
p6317
g8
sssS'1039'
p6318
(dp6319
Vblah
p6320
(dp6321
Vprice
p6322
g8
sVservice
p6323
g8
ssVdecor
p6324
(dp6325
g6323
g22
sssS'753'
p6326
(dp6327
sS'752'
p6328
(dp6329
Vfood
p6330
(dp6331
Vfood
p6332
g8
sssS'751'
p6333
(dp6334
sS'750'
p6335
(dp6336
Vfood
p6337
(dp6338
Vfood
p6339
g22
ssVprepared
p6340
(dp6341
g6339
g8
sVprice
p6342
g8
sssS'757'
p6343
(dp6344
sS'756'
p6345
(dp6346
sS'755'
p6347
(dp6348
sS'754'
p6349
(dp6350
Vwaiters
p6351
(dp6352
Vfood
p6353
g8
sVservice
p6354
g8
ssVIt
p6355
(dp6356
g6353
g8
ssVservice
p6357
(dp6358
g6353
g22
sg6354
g22
sssS'759'
p6359
(dp6360
Vhave
p6361
(dp6362
Vservice
p6363
g8
sssS'758'
p6364
(dp6365
Vfood
p6366
(dp6367
Vfood
p6368
g22
sssS'1595'
p6369
(dp6370
Vmeal
p6371
(dp6372
Vfood
p6373
g38
sssS'3071'
p6374
(dp6375
Vtables
p6376
(dp6377
Vfood
p6378
g22
sssS'1597'
p6379
(dp6380
sS'1596'
p6381
(dp6382
Vliked
p6383
(dp6384
Vprice
p6385
g8
ssVdifferences
p6386
(dp6387
Vfood
p6388
g8
sg6385
g8
ssVwere
p6389
(dp6390
g6388
g8
sg6385
g8
ssVpizza
p6391
(dp6392
g6388
g8
sg6385
g8
sssS'2958'
p6393
(dp6394
sS'3075'
p6395
(dp6396
sS'3076'
p6397
(dp6398
sS'1592'
p6399
(dp6400
Vhelpful
p6401
(dp6402
Vfood
p6403
g8
sVservice
p6404
g8
ssVserver
p6405
(dp6406
g6404
g22
sssS'2954'
p6407
(dp6408
Vneighborhood
p6409
(dp6410
Vambiance
p6411
g8
ssVnice
p6412
(dp6413
g6411
g8
sssS'2955'
p6414
(dp6415
Vread
p6416
(dp6417
Vservice
p6418
g8
sssS'2956'
p6419
(dp6420
sS'2957'
p6421
(dp6422
Vlarge
p6423
(dp6424
Vfood
p6425
g8
sVatmosphere
p6426
g8
sVservice
p6427
g8
ssVsweet
p6428
(dp6429
g6425
g8
sg6427
g8
ssVbill
p6430
(dp6431
g6425
g22
sg6427
g22
ssVfood
p6432
(dp6433
g6425
g22
sg6426
g22
sg6427
g22
ssVwaiters
p6434
(dp6435
g6427
g8
sssS'1599'
p6436
(dp6437
Vdelicious
p6438
(dp6439
Vfood
p6440
g8
ssVpizza
p6441
(dp6442
g6440
g22
sssS'1598'
p6443
(dp6444
sS'1024'
p6445
(dp6446
sS'1027'
p6447
(dp6448
Vbottle
p6449
(dp6450
Vfood
p6451
g22
sVservice
p6452
g22
ssVsashimi
p6453
(dp6454
g6451
g8
sssS'505'
p6455
(dp6456
sS'1021'
p6457
(dp6458
sS'1020'
p6459
(dp6460
Vdepends
p6461
(dp6462
Vfood
p6463
g8
sVprice
p6464
g8
ssVreally
p6465
(dp6466
g6463
g8
sssS'1023'
p6467
(dp6468
Vdesserts
p6469
(dp6470
Vfood
p6471
g38
sssS'1022'
p6472
(dp6473
sS'1029'
p6474
(dp6475
sS'1028'
p6476
(dp6477
sS'503'
p6478
(dp6479
VAC
p6480
(dp6481
Vfood
p6482
g8
sVservice
p6483
g8
ssVworked
p6484
(dp6485
g6482
g8
sVprice
p6486
g8
sg6483
g8
ssVService
p6487
(dp6488
g6483
g8
sssS'1034'
p6489
(dp6490
sS'501'
p6491
(dp6492
sS'605'
p6493
(dp6494
sS'1212'
p6495
(dp6496
sS'607'
p6497
(dp6498
sS'606'
p6499
(dp6500
sS'1209'
p6501
(dp6502
sS'1208'
p6503
(dp6504
Vbetter
p6505
(dp6506
Vfood
p6507
g8
sVprice
p6508
g8
ssVone
p6509
(dp6510
g6507
g8
sssS'603'
p6511
(dp6512
Vwas
p6513
(dp6514
Vfood
p6515
g8
sVambiance
p6516
g8
ssVsuggestions
p6517
(dp6518
g6515
g8
ssVservice
p6519
(dp6520
g6515
g8
sg6516
g8
sVservice
p6521
g8
sssS'602'
p6522
(dp6523
sS'1205'
p6524
(dp6525
Vsushi
p6526
(dp6527
Vfood
p6528
g22
sssS'1204'
p6529
(dp6530
sS'1207'
p6531
(dp6532
Vtuna
p6533
(dp6534
Vfood
p6535
g22
ssVgari
p6536
(dp6537
g6535
g8
sVservice
p6538
g8
sssS'1206'
p6539
(dp6540
Vfood
p6541
(dp6542
Vfood
p6543
g22
ssVsmall
p6544
(dp6545
g6543
g8
sVatmosphere
p6546
g8
ssVplace
p6547
(dp6548
g6543
g22
sg6546
g22
sssS'609'
p6549
(dp6550
sS'1200'
p6551
(dp6552
sS'1203'
p6553
(dp6554
sS'633'
p6555
(dp6556
Vwere
p6557
(dp6558
Vprice
p6559
g8
sssS'634'
p6560
(dp6561
Vprices
p6562
(dp6563
Vmonetary_value
p6564
g8
sssS'935'
p6565
(dp6566
sS'1217'
p6567
(dp6568
Vbagels
p6569
(dp6570
Vfood
p6571
g38
sssS'3108'
p6572
(dp6573
Vfood
p6574
(dp6575
Vfood
p6576
g22
ssVgood
p6577
(dp6578
g6576
g8
sVprice
p6579
g8
sssS'3105'
p6580
(dp6581
sS'3106'
p6582
(dp6583
sS'637'
p6584
(dp6585
Vrooms
p6586
(dp6587
Vmilitary_service
p6588
g22
sssS'3100'
p6589
(dp6590
sS'3101'
p6591
(dp6592
Venough
p6593
(dp6594
Vfood
p6595
g8
ssVsaid
p6596
(dp6597
g6595
g8
sVprice
p6598
g8
sssS'3102'
p6599
(dp6600
Vdrinks
p6601
(dp6602
Vfood
p6603
g8
sssS'3103'
p6604
(dp6605
Vmanhattan
p6606
(dp6607
Vfood
p6608
g8
sssS'1111'
p6609
(dp6610
Vinventive
p6611
(dp6612
Vfood
p6613
g8
ssVdrinks
p6614
(dp6615
g6613
g8
sssS'1110'
p6616
(dp6617
sS'1113'
p6618
(dp6619
sS'1112'
p6620
(dp6621
sS'1115'
p6622
(dp6623
sS'1114'
p6624
(dp6625
Vmoment
p6626
(dp6627
Vmonetary_value
p6628
g38
ssVFantastic
p6629
(dp6630
Vfood
p6631
g8
sg6628
g8
ssVenter
p6632
(dp6633
g6631
g8
sVprice
p6634
g8
sg6628
g8
sssS'1117'
p6635
(dp6636
sS'1116'
p6637
(dp6638
Vmelts
p6639
(dp6640
Vservicing
p6641
g8
sssS'1119'
p6642
(dp6643
Vmenu
p6644
(dp6645
Vfood
p6646
g22
sVatmosphere
p6647
g22
ssVmade
p6648
(dp6649
g6646
g8
sg6647
g8
sVprice
p6650
g8
ssVplace
p6651
(dp6652
g6647
g22
ssVspecial
p6653
(dp6654
g6646
g8
sg6647
g8
sssS'1118'
p6655
(dp6656
sS'1351'
p6657
(dp6658
Vwork
p6659
(dp6660
Vservice
p6661
g22
sssS'1449'
p6662
(dp6663
sS'1448'
p6664
(dp6665
sS'1350'
p6666
(dp6667
sS'2401'
p6668
(dp6669
Vplace
p6670
(dp6671
Vatmosphere
p6672
g22
sssS'460'
p6673
(dp6674
Vgem
p6675
(dp6676
Vfood
p6677
g22
sssS'463'
p6678
(dp6679
sS'489'
p6680
(dp6681
sS'488'
p6682
(dp6683
sS'487'
p6684
(dp6685
Vaddition
p6686
(dp6687
Vatmosphere
p6688
g22
sVprice
p6689
g22
ssVpickles
p6690
(dp6691
g6688
g8
sssS'486'
p6692
(dp6693
Vbeef
p6694
(dp6695
Vfood
p6696
g8
sssS'485'
p6697
(dp6698
sS'484'
p6699
(dp6700
sS'483'
p6701
(dp6702
sS'482'
p6703
(dp6704
sS'481'
p6705
(dp6706
sS'480'
p6707
(dp6708
Vwaitresses
p6709
(dp6710
Vservice
p6711
g8
sssS'790'
p6712
(dp6713
Vfood
p6714
(dp6715
Vfood
p6716
g22
sssS'695'
p6717
(dp6718
VCa
p6719
(dp6720
Vambiance
p6721
g8
ssVwait
p6722
(dp6723
g6721
g8
sVservice
p6724
g8
sssS'723'
p6725
(dp6726
g87
(dp6727
Vfood
p6728
g8
ssVcame
p6729
(dp6730
g6728
g8
sVprice
p6731
g8
sssS'124'
p6732
(dp6733
sS'992'
p6734
(dp6735
sS'2898'
p6736
(dp6737
Vportion
p6738
(dp6739
Vatmosphere
p6740
g8
sssS'3665'
p6741
(dp6742
VChance
p6743
(dp6744
Vservice
p6745
g8
ssVdecor
p6746
(dp6747
g6745
g22
ssVrestaurant
p6748
(dp6749
g6745
g22
sssS'199'
p6750
(dp6751
Vtypes
p6752
(dp6753
Vservice
p6754
g22
sssS'198'
p6755
(dp6756
sS'2289'
p6757
(dp6758
Vgood
p6759
(dp6760
Vprice
p6761
g8
sVservice
p6762
g8
ssVservice
p6763
(dp6764
g6762
g8
sssS'195'
p6765
(dp6766
Vweather
p6767
(dp6768
Vservicing
p6769
g8
sssS'194'
p6770
(dp6771
sS'197'
p6772
(dp6773
sS'196'
p6774
(dp6775
Vstaff
p6776
(dp6777
Vmilitary_service
p6778
g22
sssS'191'
p6779
(dp6780
Vavailable
p6781
(dp6782
Vfood
p6783
g8
sVambiance
p6784
g8
ssVseats
p6785
(dp6786
g6784
g22
sssS'190'
p6787
(dp6788
sS'193'
p6789
(dp6790
sS'192'
p6791
(dp6792
sS'3679'
p6793
(dp6794
Vplace
p6795
(dp6796
Vatmosphere
p6797
g22
sssS'3672'
p6798
(dp6799
Vstaff
p6800
(dp6801
Vmilitary_service
p6802
g22
sssS'3670'
p6803
(dp6804
sS'3671'
p6805
(dp6806
Vthing
p6807
(dp6808
Vfood
p6809
g22
sssS'3676'
p6810
(dp6811
Vtapas
p6812
(dp6813
Vfood
p6814
g8
sVprice
p6815
g8
sVservice
p6816
g8
ssVgood
p6817
(dp6818
g6814
g8
sg6815
g8
ssVyummy
p6819
(dp6820
g6814
g8
sg6815
g8
sg6816
g8
ssVwine
p6821
(dp6822
g6814
g22
sssS'3677'
p6823
(dp6824
Vplate
p6825
(dp6826
Vservice
p6827
g22
sssS'3675'
p6828
(dp6829
g87
(dp6830
Vfood
p6831
g8
ssVgo
p6832
(dp6833
g6831
g8
sVservice
p6834
g8
sssS'2547'
p6835
(dp6836
VSpecials
p6837
(dp6838
Vfood
p6839
g8
sssS'2546'
p6840
(dp6841
sS'2545'
p6842
(dp6843
sS'2544'
p6844
(dp6845
sS'2549'
p6846
(dp6847
sS'2548'
p6848
(dp6849
Vgreat
p6850
(dp6851
Vfood
p6852
g8
sVservice
p6853
g8
ssg87
(dp6854
g6852
g8
sg6853
g8
ssVdelivery
p6855
(dp6856
g6852
g22
sg6853
g22
ssVquick
p6857
(dp6858
g6852
g8
sg6853
g8
ssVorder
p6859
(dp6860
g6852
g8
sVatmosphere
p6861
g8
sg6853
g8
ssVPizza
p6862
(dp6863
g6852
g8
sssS'1456'
p6864
(dp6865
sS'2381'
p6866
(dp6867
VWARNING
p6868
(dp6869
Vambiance
p6870
g22
sVservice
p6871
g22
ssVsite
p6872
(dp6873
g6870
g22
ssVweary
p6874
(dp6875
Vprice
p6876
g8
sg6870
g8
sg6871
g8
sssS'2380'
p6877
(dp6878
sS'2382'
p6879
(dp6880
Vtry
p6881
(dp6882
Vservice
p6883
g8
ssVfetish
p6884
(dp6885
g6883
g22
sssS'2385'
p6886
(dp6887
sS'2384'
p6888
(dp6889
Vamazing
p6890
(dp6891
Vfood
p6892
g8
sVprice
p6893
g8
ssVrice
p6894
(dp6895
g6892
g22
sssS'2387'
p6896
(dp6897
VSeveral
p6898
(dp6899
Vfood
p6900
g8
ssVhad
p6901
(dp6902
g6900
g8
sVserve
p6903
g8
sssS'2386'
p6904
(dp6905
Vlarger
p6906
(dp6907
Vfood
p6908
g8
sVservice
p6909
g8
ssVservings
p6910
(dp6911
g6909
g22
sssS'2389'
p6912
(dp6913
Vdish
p6914
(dp6915
Vservice
p6916
g22
sssS'2388'
p6917
(dp6918
Vgood
p6919
(dp6920
Vprice
p6921
g8
sssS'3580'
p6922
(dp6923
sS'3581'
p6924
(dp6925
Vcheeseburgers
p6926
(dp6927
Vfood
p6928
g8
sssS'3582'
p6929
(dp6930
Vbig
p6931
(dp6932
Vfood
p6933
g8
sssS'2768'
p6934
(dp6935
sS'3584'
p6936
(dp6937
sS'3585'
p6938
(dp6939
Vsandwich
p6940
(dp6941
Vfood
p6942
g8
sssS'3587'
p6943
(dp6944
sS'3588'
p6945
(dp6946
Vit
p6947
(dp6948
Vfood
p6949
g8
sVmilitary_service
p6950
g8
sVservice
p6951
g8
ssVbit
p6952
(dp6953
g6950
g22
sg6951
g22
ssVyork
p6954
(dp6955
g6949
g22
sg6950
g22
sg6951
g22
ssVpeople
p6956
(dp6957
g6950
g8
sssS'3589'
p6958
(dp6959
sS'2060'
p6960
(dp6961
sS'2767'
p6962
(dp6963
sS'2766'
p6964
(dp6965
Vfood
p6966
(dp6967
Vfood
p6968
g22
ssVdisappointment
p6969
(dp6970
g6968
g22
sVservice
p6971
g22
ssVdishes
p6972
(dp6973
g6968
g8
sg6971
g8
sssS'2765'
p6974
(dp6975
sS'2764'
p6976
(dp6977
sS'902'
p6978
(dp6979
sS'903'
p6980
(dp6981
g87
(dp6982
Vfood
p6983
g8
ssVarrived
p6984
(dp6985
g6983
g8
sVprice
p6986
g8
sssS'900'
p6987
(dp6988
VInterior
p6989
(dp6990
Vambiance
p6991
g8
ssVwas
p6992
(dp6993
g6991
g8
sssS'901'
p6994
(dp6995
Vphotos
p6996
(dp6997
Vservice
p6998
g22
ssVare
p6999
(dp7000
Vprice
p7001
g8
sg6998
g8
sssS'906'
p7002
(dp7003
sS'907'
p7004
(dp7005
sS'904'
p7006
(dp7007
sS'905'
p7008
(dp7009
Vthrow
p7010
(dp7011
Vservice
p7012
g8
sssS'1843'
p7013
(dp7014
Vpresentation
p7015
(dp7016
Vservice
p7017
g22
sssS'1842'
p7018
(dp7019
Vinside
p7020
(dp7021
Vfood
p7022
g22
sVambiance
p7023
g22
ssVThalia
p7024
(dp7025
g7022
g8
sssS'1841'
p7026
(dp7027
Vtry
p7028
(dp7029
Vservice
p7030
g8
sssS'1840'
p7031
(dp7032
Vlocation
p7033
(dp7034
Vservice
p7035
g22
sssS'1846'
p7036
(dp7037
Vhighlight
p7038
(dp7039
Vatmosphere
p7040
g22
sVservice
p7041
g22
ssVgood
p7042
(dp7043
g7040
g8
sVprice
p7044
g8
sg7041
g8
ssVbill
p7045
(dp7046
g7041
g22
sssS'1845'
p7047
(dp7048
Vplain
p7049
(dp7050
Vservice
p7051
g8
ssVservice
p7052
(dp7053
g7051
g8
sssS'1844'
p7054
(dp7055
Vlooks
p7056
(dp7057
Vatmosphere
p7058
g8
sssS'3250'
p7059
(dp7060
sS'2169'
p7061
(dp7062
sS'2168'
p7063
(dp7064
sS'2165'
p7065
(dp7066
Vbagel
p7067
(dp7068
Vfood
p7069
g22
sssS'2164'
p7070
(dp7071
Vbit
p7072
(dp7073
Vservice
p7074
g22
sssS'2167'
p7075
(dp7076
Vbagel
p7077
(dp7078
Vfood
p7079
g22
sssS'2166'
p7080
(dp7081
Vinterior
p7082
(dp7083
Vambiance
p7084
g22
sssS'2161'
p7085
(dp7086
Vfresh
p7087
(dp7088
Vfood
p7089
g8
ssVlox
p7090
(dp7091
g7089
g22
sssS'2160'
p7092
(dp7093
Vselection
p7094
(dp7095
Vservice
p7096
g22
sssS'2163'
p7097
(dp7098
sS'2162'
p7099
(dp7100
sS'2617'
p7101
(dp7102
sS'2616'
p7103
(dp7104
sS'2615'
p7105
(dp7106
Vtrip
p7107
(dp7108
Vserve
p7109
g38
sssS'2614'
p7110
(dp7111
sS'2611'
p7112
(dp7113
sS'2610'
p7114
(dp7115
Vtoppings
p7116
(dp7117
Vservice
p7118
g8
sssS'1946'
p7119
(dp7120
VVillage
p7121
(dp7122
Vambiance
p7123
g8
sssS'1947'
p7124
(dp7125
Vfood
p7126
(dp7127
Vfood
p7128
g22
sssS'3298'
p7129
(dp7130
Vfood
p7131
(dp7132
Vfood
p7133
g22
sVprice
p7134
g22
ssVgood
p7135
(dp7136
g7133
g8
sg7134
g8
ssVit
p7137
(dp7138
g7133
g8
sg7134
g8
sssS'3299'
p7139
(dp7140
sS'1908'
p7141
(dp7142
Vsmall
p7143
(dp7144
Vatmosphere
p7145
g8
sVservice
p7146
g8
ssVreservations
p7147
(dp7148
g7146
g8
sssS'1909'
p7149
(dp7150
Vexperience
p7151
(dp7152
Vfood
p7153
g22
sssS'3294'
p7154
(dp7155
sS'1907'
p7156
(dp7157
Vwent
p7158
(dp7159
Vprice
p7160
g8
sVservice
p7161
g8
ssVglasses
p7162
(dp7163
g7161
g22
sssS'1904'
p7164
(dp7165
sS'3297'
p7166
(dp7167
sS'3290'
p7168
(dp7169
Vexperience
p7170
(dp7171
Vfood
p7172
g22
sssS'1903'
p7173
(dp7174
Vhusbands
p7175
(dp7176
Vservice
p7177
g8
sssS'3292'
p7178
(dp7179
Vnotch
p7180
(dp7181
Vservice
p7182
g22
ssVService
p7183
(dp7184
g7182
g8
sssS'3293'
p7185
(dp7186
sS'3452'
p7187
(dp7188
Vinn
p7189
(dp7190
Vfood
p7191
g22
sVservice
p7192
g22
ssVmonths
p7193
(dp7194
g7191
g8
sssS'855'
p7195
(dp7196
sS'856'
p7197
(dp7198
Vcuisine
p7199
(dp7200
Vatmosphere
p7201
g8
sVoverhaul
p7202
g8
ssVdishes
p7203
(dp7204
g7201
g8
sg7202
g8
sVservice
p7205
g8
ssVpinnacles
p7206
(dp7207
g7201
g22
ssVrefinement
p7208
(dp7209
g7201
g8
sg7202
g8
sg7205
g8
sssS'3451'
p7210
(dp7211
Vwine
p7212
(dp7213
Vfood
p7214
g8
sssS'3456'
p7215
(dp7216
Vknowledgeable
p7217
(dp7218
Vfood
p7219
g8
sVmilitary_service
p7220
g8
ssVstaff
p7221
(dp7222
g7220
g22
sssS'3457'
p7223
(dp7224
Vwalked
p7225
(dp7226
Vprice
p7227
g8
sssS'3454'
p7228
(dp7229
Vcod
p7230
(dp7231
Vfood
p7232
g22
sssS'3455'
p7233
(dp7234
sS'3458'
p7235
(dp7236
sS'3459'
p7237
(dp7238
sS'858'
p7239
(dp7240
sS'859'
p7241
(dp7242
sS'1186'
p7243
(dp7244
sS'425'
p7245
(dp7246
Vprice
p7247
(dp7248
Vmonetary_value
p7249
g22
sVservice
p7250
g22
ssVreasonable
p7251
(dp7252
Vfood
p7253
g8
sg7249
g8
sg7250
g8
ssVservice
p7254
(dp7255
g7250
g8
sssS'740'
p7256
(dp7257
sS'741'
p7258
(dp7259
Vpotatoes
p7260
(dp7261
Vfood
p7262
g22
sssS'742'
p7263
(dp7264
Vatmosphere
p7265
(dp7266
Vatmosphere
p7267
g22
sssS'743'
p7268
(dp7269
sS'744'
p7270
(dp7271
Vprompt
p7272
(dp7273
Vservice
p7274
g8
ssVService
p7275
(dp7276
g7274
g8
sssS'745'
p7277
(dp7278
sS'746'
p7279
(dp7280
g87
(dp7281
Vfood
p7282
g8
ssVmet
p7283
(dp7284
g7282
g8
sVprice
p7285
g8
sssS'747'
p7286
(dp7287
sS'748'
p7288
(dp7289
sS'749'
p7290
(dp7291
Vattracted
p7292
(dp7293
Vatmosphere
p7294
g8
sVprice
p7295
g8
ssVplace
p7296
(dp7297
g7294
g22
sssS'1799'
p7298
(dp7299
sS'3063'
p7300
(dp7301
sS'3062'
p7302
(dp7303
sS'3061'
p7304
(dp7305
sS'3060'
p7306
(dp7307
Vbill
p7308
(dp7309
Vservice
p7310
g22
sssS'3067'
p7311
(dp7312
Vfood
p7313
(dp7314
Vfood
p7315
g22
ssVtasty
p7316
(dp7317
g7315
g8
sssS'2949'
p7318
(dp7319
sS'3064'
p7320
(dp7321
sS'2947'
p7322
(dp7323
VALL
p7324
(dp7325
Vfood
p7326
g22
sVatmosphere
p7327
g22
ssVplace
p7328
(dp7329
g7327
g22
sssS'2946'
p7330
(dp7331
Vus
p7332
(dp7333
Vambiance
p7334
g8
ssVcoming
p7335
(dp7336
g7334
g8
sVserve
p7337
g8
sssS'2945'
p7338
(dp7339
Vroom
p7340
(dp7341
Vmilitary_service
p7342
g38
sssS'2944'
p7343
(dp7344
sS'2943'
p7345
(dp7346
sS'2942'
p7347
(dp7348
sS'2941'
p7349
(dp7350
Vend
p7351
(dp7352
Vfood
p7353
g38
ssVwines
p7354
(dp7355
g7353
g8
sssS'2940'
p7356
(dp7357
Vservice
p7358
(dp7359
Vservice
p7360
g22
sssS'1050'
p7361
(dp7362
Varound
p7363
(dp7364
Vfood
p7365
g8
sssS'1051'
p7366
(dp7367
sS'1052'
p7368
(dp7369
sS'1053'
p7370
(dp7371
Vstuff
p7372
(dp7373
Vfood
p7374
g8
sssS'1054'
p7375
(dp7376
sS'1055'
p7377
(dp7378
Vway
p7379
(dp7380
Vatmosphere
p7381
g22
sssS'1056'
p7382
(dp7383
Vexcellent
p7384
(dp7385
Vfood
p7386
g8
ssVappetizing
p7387
(dp7388
g7386
g8
sssS'1057'
p7389
(dp7390
Vservice
p7391
(dp7392
Vservice
p7393
g8
sssS'1058'
p7394
(dp7395
sS'1059'
p7396
(dp7397
sS'717'
p7398
(dp7399
sS'1692'
p7400
(dp7401
Vplace
p7402
(dp7403
Vatmosphere
p7404
g22
sssS'1693'
p7405
(dp7406
sS'1690'
p7407
(dp7408
sS'1691'
p7409
(dp7410
sS'715'
p7411
(dp7412
Vnothing
p7413
(dp7414
Vfood
p7415
g22
ssVbeef
p7416
(dp7417
g7415
g38
sssS'1698'
p7418
(dp7419
sS'1699'
p7420
(dp7421
Vdumplings
p7422
(dp7423
Vfood
p7424
g22
sssS'1278'
p7425
(dp7426
Vpizza
p7427
(dp7428
Vfood
p7429
g22
sssS'1279'
p7430
(dp7431
sS'618'
p7432
(dp7433
sS'619'
p7434
(dp7435
Vgo
p7436
(dp7437
Vservice
p7438
g8
sssS'1270'
p7439
(dp7440
Vfood
p7441
(dp7442
Vfood
p7443
g22
ssVit
p7444
(dp7445
g7443
g8
sssS'613'
p7446
(dp7447
Vdifferent
p7448
(dp7449
Vfood
p7450
g8
ssVwant
p7451
(dp7452
g7450
g8
sVatmosphere
p7453
g8
sssS'1272'
p7454
(dp7455
sS'611'
p7456
(dp7457
sS'616'
p7458
(dp7459
g87
(dp7460
Vfood
p7461
g8
ssVrecommend
p7462
(dp7463
g7461
g8
sVprice
p7464
g8
sssS'1275'
p7465
(dp7466
sS'614'
p7467
(dp7468
sS'1277'
p7469
(dp7470
sS'1795'
p7471
(dp7472
sS'1794'
p7473
(dp7474
Voverpriced
p7475
(dp7476
Vprice
p7477
g8
sssS'3119'
p7478
(dp7479
sS'3118'
p7480
(dp7481
Vsimple
p7482
(dp7483
Vservice
p7484
g8
sssS'3117'
p7485
(dp7486
Vfood
p7487
(dp7488
Vfood
p7489
g22
sssS'3116'
p7490
(dp7491
Vfeat
p7492
(dp7493
Vservice
p7494
g8
sssS'3115'
p7495
(dp7496
Vcall
p7497
(dp7498
Vservice
p7499
g8
sssS'3114'
p7500
(dp7501
Vtable
p7502
(dp7503
Vfood
p7504
g22
sssS'3113'
p7505
(dp7506
sS'3112'
p7507
(dp7508
sS'3111'
p7509
(dp7510
Vspotty
p7511
(dp7512
Vfood
p7513
g8
sVservice
p7514
g8
ssVservice
p7515
(dp7516
g7514
g8
sssS'1472'
p7517
(dp7518
sS'1473'
p7519
(dp7520
sS'1470'
p7521
(dp7522
Vway
p7523
(dp7524
Vfood
p7525
g22
sVatmosphere
p7526
g22
ssVpizza
p7527
(dp7528
g7525
g22
sssS'1471'
p7529
(dp7530
Vlarge
p7531
(dp7532
Vatmosphere
p7533
g8
sssS'1477'
p7534
(dp7535
Vportions
p7536
(dp7537
Vatmosphere
p7538
g8
ssVorder
p7539
(dp7540
g7538
g8
sssS'1474'
p7541
(dp7542
sS'1475'
p7543
(dp7544
sS'1478'
p7545
(dp7546
Vmoney
p7547
(dp7548
Vprice
p7549
g22
sVmonetary_value
p7550
g22
sVservice
p7551
g22
ssVvalues
p7552
(dp7553
g7550
g8
sg7551
g8
ssVrestaurants
p7554
(dp7555
g7551
g22
sssS'1479'
p7556
(dp7557
sS'3336'
p7558
(dp7559
sS'1304'
p7560
(dp7561
sS'1305'
p7562
(dp7563
Vfood
p7564
(dp7565
Vfood
p7566
g22
sssS'1306'
p7567
(dp7568
Vwas
p7569
(dp7570
Vatmosphere
p7571
g8
sVambiance
p7572
g8
ssVtime
p7573
(dp7574
g7571
g22
sssS'1307'
p7575
(dp7576
g1256
(dp7577
Vfood
p7578
g8
ssVthought
p7579
(dp7580
g7578
g8
sssS'1300'
p7581
(dp7582
sS'1301'
p7583
(dp7584
Vfood
p7585
(dp7586
Vfood
p7587
g22
ssVhorrible
p7588
(dp7589
g7587
g8
sssS'1302'
p7590
(dp7591
Vprices
p7592
(dp7593
Vmonetary_value
p7594
g22
sssS'1303'
p7595
(dp7596
sS'1497'
p7597
(dp7598
Vwaitress
p7599
(dp7600
Vservice
p7601
g8
sssS'1309'
p7602
(dp7603
Vdate
p7604
(dp7605
Vfood
p7606
g22
ssVbad
p7607
(dp7608
g7606
g8
sVprice
p7609
g8
sssS'3590'
p7610
(dp7611
sS'498'
p7612
(dp7613
sS'499'
p7614
(dp7615
sS'2590'
p7616
(dp7617
sS'494'
p7618
(dp7619
Vsnappy
p7620
(dp7621
Vfood
p7622
g8
sssS'495'
p7623
(dp7624
sS'496'
p7625
(dp7626
Vdelis
p7627
(dp7628
Vservice
p7629
g22
ssVare
p7630
(dp7631
Vprice
p7632
g8
sg7629
g8
sssS'497'
p7633
(dp7634
sS'490'
p7635
(dp7636
sS'491'
p7637
(dp7638
Vbeef
p7639
(dp7640
Vfood
p7641
g8
ssVbread
p7642
(dp7643
g7641
g8
sssS'492'
p7644
(dp7645
sS'493'
p7646
(dp7647
Vdills
p7648
(dp7649
Vfood
p7650
g8
sVatmosphere
p7651
g8
ssVcompliment
p7652
(dp7653
g7650
g22
sg7651
g22
sVprice
p7654
g22
ssVplenty
p7655
(dp7656
g7651
g38
sssS'24'
p7657
(dp7658
sS'25'
p7659
(dp7660
Vwaiter
p7661
(dp7662
Vservice
p7663
g22
sssS'21'
p7664
(dp7665
sS'28'
p7666
(dp7667
VFood
p7668
(dp7669
Vfood
p7670
g8
ssVaverage
p7671
(dp7672
g7670
g8
sssS'29'
p7673
(dp7674
Vroom
p7675
(dp7676
Vmilitary_service
p7677
g8
sssS'3262'
p7678
(dp7679
sS'1705'
p7680
(dp7681
Vfood
p7682
(dp7683
Vfood
p7684
g22
sVservice
p7685
g22
ssVstaples
p7686
(dp7687
g7685
g22
ssVpoint
p7688
(dp7689
g7684
g22
sVatmosphere
p7690
g22
sg7685
g22
sssS'1601'
p7691
(dp7692
Ventrees
p7693
(dp7694
Vfood
p7695
g8
sssS'1604'
p7696
(dp7697
sS'3267'
p7698
(dp7699
sS'7'
p7700
(dp7701
Vget
p7702
(dp7703
Vserve
p7704
g8
sssS'2288'
p7705
(dp7706
Vsoup
p7707
(dp7708
Vfood
p7709
g22
ssVgood
p7710
(dp7711
g7709
g8
sVprice
p7712
g8
sssS'3664'
p7713
(dp7714
sS'3667'
p7715
(dp7716
Vwaitresses
p7717
(dp7718
Vfood
p7719
g8
sVmonetary_value
p7720
g8
sVservice
p7721
g8
ssVprice
p7722
(dp7723
g7720
g22
ssVcheap
p7724
(dp7725
g7719
g8
sg7720
g8
sssS'3666'
p7726
(dp7727
sS'3661'
p7728
(dp7729
sS'3660'
p7730
(dp7731
sS'3663'
p7732
(dp7733
Vdessert
p7734
(dp7735
Vfood
p7736
g22
sssS'3662'
p7737
(dp7738
Vdish
p7739
(dp7740
Vservice
p7741
g8
ssVattentive
p7742
(dp7743
Vfood
p7744
g8
sg7741
g8
ssVservice
p7745
(dp7746
g7741
g8
sssS'2280'
p7747
(dp7748
sS'2281'
p7749
(dp7750
sS'2282'
p7751
(dp7752
Vsays
p7753
(dp7754
Vatmosphere
p7755
g8
ssVits
p7756
(dp7757
Vfood
p7758
g8
sg7755
g8
ssVrestaurant
p7759
(dp7760
g7758
g22
sg7755
g22
sVservice
p7761
g22
sssS'2283'
p7762
(dp7763
Vit
p7764
(dp7765
Vfood
p7766
g8
ssVrestaurant
p7767
(dp7768
g7766
g22
sVservice
p7769
g22
sssS'3669'
p7770
(dp7771
sS'2285'
p7772
(dp7773
Vfood
p7774
(dp7775
Vfood
p7776
g8
sssS'2286'
p7777
(dp7778
sS'2287'
p7779
(dp7780
Vsoup
p7781
(dp7782
Vfood
p7783
g8
sssS'1605'
p7784
(dp7785
sS'2578'
p7786
(dp7787
Vown
p7788
(dp7789
Vprice
p7790
g8
sssS'2579'
p7791
(dp7792
sS'2576'
p7793
(dp7794
sS'2577'
p7795
(dp7796
sS'2574'
p7797
(dp7798
Vorganic
p7799
(dp7800
Vfood
p7801
g8
ssVIngredients
p7802
(dp7803
g7801
g8
sssS'2575'
p7804
(dp7805
sS'2572'
p7806
(dp7807
VSalads
p7808
(dp7809
Vfood
p7810
g8
sssS'2573'
p7811
(dp7812
sS'2570'
p7813
(dp7814
Vstop
p7815
(dp7816
Vservice
p7817
g8
sssS'2571'
p7818
(dp7819
VAmbience
p7820
(dp7821
Vatmosphere
p7822
g8
ssVcute
p7823
(dp7824
Vfood
p7825
g8
sg7822
g8
sssS'3690'
p7826
(dp7827
Vchocolate
p7828
(dp7829
Vfood
p7830
g22
sssS'2378'
p7831
(dp7832
Vshort-order
p7833
(dp7834
Vfood
p7835
g22
sVservice
p7836
g22
ssVservice
p7837
(dp7838
g7836
g8
sssS'2379'
p7839
(dp7840
sS'601'
p7841
(dp7842
sS'2377'
p7843
(dp7844
Vfood
p7845
(dp7846
Vfood
p7847
g22
ssVawful
p7848
(dp7849
g7847
g8
sssS'2370'
p7850
(dp7851
sS'2372'
p7852
(dp7853
Vplace
p7854
(dp7855
Vatmosphere
p7856
g22
sssS'2594'
p7857
(dp7858
sS'2595'
p7859
(dp7860
sS'2596'
p7861
(dp7862
sS'2597'
p7863
(dp7864
Vsay
p7865
(dp7866
Vatmosphere
p7867
g8
sssS'3597'
p7868
(dp7869
sS'2591'
p7870
(dp7871
Vtime
p7872
(dp7873
Vatmosphere
p7874
g22
sssS'2592'
p7875
(dp7876
g87
(dp7877
Vfood
p7878
g8
ssVimpressed
p7879
(dp7880
g7878
g8
sVprice
p7881
g8
ssVwent
p7882
(dp7883
g7878
g8
sg7881
g8
sssS'2593'
p7884
(dp7885
Vpizza
p7886
(dp7887
Vfood
p7888
g22
sssS'3599'
p7889
(dp7890
sS'3598'
p7891
(dp7892
sS'2598'
p7893
(dp7894
Vamazing
p7895
(dp7896
Vfood
p7897
g8
sVprice
p7898
g8
ssVIt
p7899
(dp7900
g7897
g8
sssS'2599'
p7901
(dp7902
Vplace
p7903
(dp7904
Vatmosphere
p7905
g22
sVservice
p7906
g22
ssVprompt
p7907
(dp7908
g7906
g8
ssVservice
p7909
(dp7910
g7906
g8
ssVcool
p7911
(dp7912
g7905
g8
sg7906
g8
sssS'1874'
p7913
(dp7914
Vbland
p7915
(dp7916
Vfood
p7917
g8
ssVentree
p7918
(dp7919
g7917
g8
sssS'1872'
p7920
(dp7921
VThalia
p7922
(dp7923
Vfood
p7924
g8
sssS'1873'
p7925
(dp7926
Vflavor
p7927
(dp7928
Vfood
p7929
g22
sVatmosphere
p7930
g22
ssVsalmon
p7931
(dp7932
g7929
g22
ssVit
p7933
(dp7934
g7929
g8
sssS'1870'
p7935
(dp7936
sS'1871'
p7937
(dp7938
Vrestaurant
p7939
(dp7940
Vservice
p7941
g22
sssS'600'
p7942
(dp7943
Vget
p7944
(dp7945
Vserve
p7946
g8
sssS'1607'
p7947
(dp7948
Vtable
p7949
(dp7950
Vfood
p7951
g22
sVprice
p7952
g22
sVservice
p7953
g22
ssVservice
p7954
(dp7955
g7953
g8
ssVsit
p7956
(dp7957
g7952
g8
sg7953
g8
sssS'1878'
p7958
(dp7959
Vselection
p7960
(dp7961
Vservice
p7962
g22
sssS'1879'
p7963
(dp7964
sS'977'
p7965
(dp7966
sS'182'
p7967
(dp7968
sS'974'
p7969
(dp7970
sS'973'
p7971
(dp7972
sS'972'
p7973
(dp7974
sS'971'
p7975
(dp7976
Vchicken
p7977
(dp7978
Vfood
p7979
g8
sssS'970'
p7980
(dp7981
sS'1080'
p7982
(dp7983
Vtea
p7984
(dp7985
Vfood
p7986
g22
ssVgreat
p7987
(dp7988
g7986
g8
sVservice
p7989
g8
sssS'979'
p7990
(dp7991
Vservice
p7992
(dp7993
Vservice
p7994
g8
sssS'978'
p7995
(dp7996
Vfood
p7997
(dp7998
Vfood
p7999
g22
sssS'2118'
p8000
(dp8001
sS'2119'
p8002
(dp8003
Vplace
p8004
(dp8005
Vatmosphere
p8006
g22
sssS'180'
p8007
(dp8008
Vside
p8009
(dp8010
Vfood
p8011
g8
sssS'181'
p8012
(dp8013
Vfood
p8014
(dp8015
Vfood
p8016
g22
sssS'186'
p8017
(dp8018
sS'187'
p8019
(dp8020
sS'184'
p8021
(dp8022
Vis
p8023
(dp8024
Vprice
p8025
g8
sVservice
p8026
g8
ssVkitchen
p8027
(dp8028
g8026
g22
sssS'185'
p8029
(dp8030
Vdo
p8031
(dp8032
Vservice
p8033
g8
ssVspicy
p8034
(dp8035
Vfood
p8036
g22
sg8033
g22
sssS'2112'
p8037
(dp8038
g87
(dp8039
Vfood
p8040
g8
ssVwent
p8041
(dp8042
g8040
g8
sVprice
p8043
g8
sssS'2113'
p8044
(dp8045
sS'2114'
p8046
(dp8047
sS'2115'
p8048
(dp8049
Vlooked
p8050
(dp8051
Vprice
p8052
g8
ssVmost
p8053
(dp8054
Vfood
p8055
g8
sg8052
g8
ssVwere
p8056
(dp8057
g8055
g8
sg8052
g8
sssS'2116'
p8058
(dp8059
Vrolls
p8060
(dp8061
Vfood
p8062
g22
sssS'1559'
p8063
(dp8064
sS'2622'
p8065
(dp8066
sS'2623'
p8067
(dp8068
sS'2620'
p8069
(dp8070
Vslow
p8071
(dp8072
Vprice
p8073
g8
sVservice
p8074
g8
ssVfriendly
p8075
(dp8076
g8073
g8
sVmilitary_service
p8077
g8
sg8074
g8
ssVservice
p8078
(dp8079
g8074
g8
sssS'2621'
p8080
(dp8081
Vdrinks
p8082
(dp8083
Vfood
p8084
g22
sssS'2627'
p8085
(dp8086
Vambience
p8087
(dp8088
Vatmosphere
p8089
g22
sVservice
p8090
g22
ssVgreat
p8091
(dp8092
g8090
g8
ssVservice
p8093
(dp8094
g8090
g8
ssVnice
p8095
(dp8096
g8089
g8
sVambiance
p8097
g8
sg8090
g8
sssS'2624'
p8098
(dp8099
g87
(dp8100
Vfood
p8101
g8
ssVthought
p8102
(dp8103
g8101
g8
ssVplace
p8104
(dp8105
g8101
g22
sVatmosphere
p8106
g22
ssVoverrated
p8107
(dp8108
g8101
g8
sg8106
g8
sVprice
p8109
g8
sssS'60'
p8110
(dp8111
sS'1919'
p8112
(dp8113
sS'1918'
p8114
(dp8115
Vton
p8116
(dp8117
Vfood
p8118
g22
sVserve
p8119
g22
ssVhad
p8120
(dp8121
g8119
g8
ssVit
p8122
(dp8123
g8118
g8
sg8119
g8
sssS'3289'
p8124
(dp8125
sS'3288'
p8126
(dp8127
sS'1911'
p8128
(dp8129
sS'1910'
p8130
(dp8131
Vfood
p8132
(dp8133
Vfood
p8134
g22
ssVexpensive
p8135
(dp8136
g8134
g8
sssS'3285'
p8137
(dp8138
sS'1912'
p8139
(dp8140
sS'3282'
p8141
(dp8142
Vcheese
p8143
(dp8144
Vfood
p8145
g22
ssVwas
p8146
(dp8147
g8145
g8
sVambiance
p8148
g8
sssS'3281'
p8149
(dp8150
Vwas
p8151
(dp8152
Vambiance
p8153
g8
sssS'3280'
p8154
(dp8155
VExample
p8156
(dp8157
Vfood
p8158
g8
sssS'869'
p8159
(dp8160
Vambience
p8161
(dp8162
Vatmosphere
p8163
g22
sssS'868'
p8164
(dp8165
sS'189'
p8166
(dp8167
Vfood
p8168
(dp8169
Vfood
p8170
g8
ssVbread
p8171
(dp8172
g8170
g22
sssS'861'
p8173
(dp8174
g87
(dp8175
Vfood
p8176
g8
ssVcame
p8177
(dp8178
g8176
g8
sVprice
p8179
g8
sssS'860'
p8180
(dp8181
sS'863'
p8182
(dp8183
Vfood
p8184
(dp8185
Vfood
p8186
g22
sssS'862'
p8187
(dp8188
Vsimple
p8189
(dp8190
Vservice
p8191
g8
ssVdecor
p8192
(dp8193
g8191
g22
sssS'865'
p8194
(dp8195
sS'3440'
p8196
(dp8197
Vprices
p8198
(dp8199
Vmonetary_value
p8200
g8
ssVhigh
p8201
(dp8202
Vatmosphere
p8203
g8
sg8200
g8
sssS'3443'
p8204
(dp8205
Vcourteous
p8206
(dp8207
Vfood
p8208
g8
sVservice
p8209
g8
ssVservice
p8210
(dp8211
g8209
g8
sssS'3442'
p8212
(dp8213
Vcame
p8214
(dp8215
Vprice
p8216
g8
sssS'2024'
p8217
(dp8218
Vweek
p8219
(dp8220
Vfood
p8221
g22
sssS'2757'
p8222
(dp8223
sS'2026'
p8224
(dp8225
Vcheese
p8226
(dp8227
Vfood
p8228
g8
ssVoozing
p8229
(dp8230
g8228
g8
sVservice
p8231
g8
sssS'2027'
p8232
(dp8233
Vcity
p8234
(dp8235
Vambiance
p8236
g22
sssS'2020'
p8237
(dp8238
Vdinner
p8239
(dp8240
Vfood
p8241
g22
sssS'2753'
p8242
(dp8243
sS'2751'
p8244
(dp8245
sS'2828'
p8246
(dp8247
sS'2117'
p8248
(dp8249
Vbig
p8250
(dp8251
Vfood
p8252
g8
ssVfresh
p8253
(dp8254
g8252
g8
ssVrolls
p8255
(dp8256
g8252
g8
ssVsashimi
p8257
(dp8258
g8252
g8
sssS'2028'
p8259
(dp8260
Vcheese
p8261
(dp8262
Vfood
p8263
g8
sssS'2029'
p8264
(dp8265
sS'2829'
p8266
(dp8267
sS'883'
p8268
(dp8269
Vcasserole
p8270
(dp8271
Vservice
p8272
g22
sssS'882'
p8273
(dp8274
Vfood
p8275
(dp8276
Vfood
p8277
g8
sVatmosphere
p8278
g8
ssVambiance
p8279
(dp8280
g8278
g22
sssS'881'
p8281
(dp8282
Vimpressed
p8283
(dp8284
Vprice
p8285
g8
sssS'880'
p8286
(dp8287
sS'887'
p8288
(dp8289
sS'885'
p8290
(dp8291
Vfood
p8292
(dp8293
Vfood
p8294
g22
sVatmosphere
p8295
g22
ssVplace
p8296
(dp8297
g8295
g22
ssVhorrible
p8298
(dp8299
g8294
g8
sg8295
g8
sssS'884'
p8300
(dp8301
sS'889'
p8302
(dp8303
Vplace
p8304
(dp8305
Vatmosphere
p8306
g22
sssS'888'
p8307
(dp8308
Vasked
p8309
(dp8310
Vfood
p8311
g8
sVprice
p8312
g8
ssVone
p8313
(dp8314
g8311
g22
sssS'3149'
p8315
(dp8316
sS'775'
p8317
(dp8318
Vdisappointment
p8319
(dp8320
Vservice
p8321
g22
sssS'774'
p8322
(dp8323
sS'777'
p8324
(dp8325
Vcriticize
p8326
(dp8327
Vprice
p8328
g8
sssS'776'
p8329
(dp8330
Vfood
p8331
(dp8332
Vfood
p8333
g22
sssS'771'
p8334
(dp8335
sS'770'
p8336
(dp8337
sS'773'
p8338
(dp8339
sS'772'
p8340
(dp8341
sS'779'
p8342
(dp8343
sS'778'
p8344
(dp8345
Vgood
p8346
(dp8347
Vprice
p8348
g8
sssS'419'
p8349
(dp8350
sS'77'
p8351
(dp8352
sS'76'
p8353
(dp8354
sS'2978'
p8355
(dp8356
Vfriends
p8357
(dp8358
Vservice
p8359
g8
ssVresponse
p8360
(dp8361
Vservicing
p8362
g22
sg8359
g22
sssS'2979'
p8363
(dp8364
Vfood
p8365
(dp8366
Vfood
p8367
g22
sssS'72'
p8368
(dp8369
sS'3058'
p8370
(dp8371
sS'3059'
p8372
(dp8373
Vcourses
p8374
(dp8375
Vfood
p8376
g22
sVprice
p8377
g22
ssVappetizers
p8378
(dp8379
g8376
g8
ssVOK
p8380
(dp8381
g8376
g8
sg8377
g8
sssS'2972'
p8382
(dp8383
sS'3057'
p8384
(dp8385
sS'2970'
p8386
(dp8387
sS'2971'
p8388
(dp8389
sS'2976'
p8390
(dp8391
Vchampagne
p8392
(dp8393
Vambiance
p8394
g22
ssVvalue
p8395
(dp8396
g8394
g22
sVmonetary_value
p8397
g22
sssS'2977'
p8398
(dp8399
Vvibe
p8400
(dp8401
Vprice
p8402
g8
sssS'3050'
p8403
(dp8404
sS'2975'
p8405
(dp8406
Vwarm
p8407
(dp8408
Vfood
p8409
g8
sVprice
p8410
g8
sVservice
p8411
g8
ssVnights
p8412
(dp8413
g8409
g8
sg8411
g8
ssVkitchen
p8414
(dp8415
g8411
g22
sssS'1041'
p8416
(dp8417
Vobnoxious
p8418
(dp8419
Vfood
p8420
g8
sVmilitary_service
p8421
g8
ssVpeople
p8422
(dp8423
g8421
g22
sssS'1040'
p8424
(dp8425
sS'1047'
p8426
(dp8427
Vfind
p8428
(dp8429
Vservice
p8430
g8
sssS'1046'
p8431
(dp8432
sS'1045'
p8433
(dp8434
Vroll
p8435
(dp8436
Vfood
p8437
g22
sssS'1044'
p8438
(dp8439
g87
(dp8440
Vfood
p8441
g8
sVprice
p8442
g8
ssVwas
p8443
(dp8444
g8441
g8
sg8442
g8
sVambiance
p8445
g8
ssVovercharged
p8446
(dp8447
g8442
g8
sssS'1049'
p8448
(dp8449
Vfound
p8450
(dp8451
Vprice
p8452
g8
sssS'1681'
p8453
(dp8454
VMost
p8455
(dp8456
Vfood
p8457
g8
ssVattentive
p8458
(dp8459
g8457
g8
sssS'1680'
p8460
(dp8461
sS'1683'
p8462
(dp8463
Vfood
p8464
(dp8465
Vfood
p8466
g22
sVservice
p8467
g22
ssVservice
p8468
(dp8469
g8467
g8
sssS'1684'
p8470
(dp8471
sS'1687'
p8472
(dp8473
sS'1686'
p8474
(dp8475
Vdish
p8476
(dp8477
Vservice
p8478
g22
ssVsmall
p8479
(dp8480
Vatmosphere
p8481
g8
sg8478
g8
sssS'1689'
p8482
(dp8483
Vquality
p8484
(dp8485
Vprice
p8486
g22
sssS'1688'
p8487
(dp8488
Vdish
p8489
(dp8490
Vservice
p8491
g22
ssVwas
p8492
(dp8493
Vambiance
p8494
g8
sg8491
g8
sssS'1269'
p8495
(dp8496
Vtime
p8497
(dp8498
Vatmosphere
p8499
g22
sssS'2980'
p8500
(dp8501
g87
(dp8502
Vfood
p8503
g8
sVprice
p8504
g8
ssVgross
p8505
(dp8506
g8503
g8
sg8504
g8
ssVit
p8507
(dp8508
g8503
g8
ssVpicky
p8509
(dp8510
g8503
g8
sg8504
g8
sssS'669'
p8511
(dp8512
sS'668'
p8513
(dp8514
Vwins
p8515
(dp8516
Vatmosphere
p8517
g8
sVservice
p8518
g8
ssVplaces
p8519
(dp8520
g8517
g8
sssS'667'
p8521
(dp8522
sS'666'
p8523
(dp8524
sS'665'
p8525
(dp8526
sS'664'
p8527
(dp8528
Vattentive
p8529
(dp8530
Vfood
p8531
g8
sVmilitary_service
p8532
g8
ssVstaff
p8533
(dp8534
g8532
g22
sssS'663'
p8535
(dp8536
Vgood
p8537
(dp8538
Vfood
p8539
g8
sVprice
p8540
g8
ssVrice
p8541
(dp8542
g8539
g22
sssS'662'
p8543
(dp8544
g87
(dp8545
Vfood
p8546
g8
ssVfresh
p8547
(dp8548
g8546
g8
sVserve
p8549
g8
ssVdinner
p8550
(dp8551
g8546
g8
sg8549
g8
ssVget
p8552
(dp8553
g8546
g8
sg8549
g8
sssS'661'
p8554
(dp8555
Vit
p8556
(dp8557
Vfood
p8558
g8
sVprice
p8559
g8
sVservice
p8560
g8
ssVis
p8561
(dp8562
g8559
g8
sg8560
g8
ssVworth
p8563
(dp8564
g8558
g8
sg8559
g8
sg8560
g8
ssVwait
p8565
(dp8566
g8560
g8
sssS'3022'
p8567
(dp8568
sS'3021'
p8569
(dp8570
sS'3095'
p8571
(dp8572
g87
(dp8573
Vfood
p8574
g8
ssVfan
p8575
(dp8576
g8574
g22
sVservice
p8577
g22
sssS'2984'
p8578
(dp8579
Vdinner
p8580
(dp8581
Vfood
p8582
g8
sssS'1913'
p8583
(dp8584
Voccasion
p8585
(dp8586
Vservice
p8587
g22
sssS'3128'
p8588
(dp8589
sS'3129'
p8590
(dp8591
Vhostess
p8592
(dp8593
Vservice
p8594
g22
sssS'3122'
p8595
(dp8596
Vhostess
p8597
(dp8598
Vservice
p8599
g22
sssS'3123'
p8600
(dp8601
sS'3120'
p8602
(dp8603
Vfood
p8604
(dp8605
Vfood
p8606
g22
sssS'3121'
p8607
(dp8608
Vhorrible
p8609
(dp8610
Vfood
p8611
g8
sVmilitary_service
p8612
g8
ssVstaff
p8613
(dp8614
g8612
g22
sssS'3126'
p8615
(dp8616
Vone
p8617
(dp8618
Vfood
p8619
g8
sssS'3127'
p8620
(dp8621
Vplace
p8622
(dp8623
Vatmosphere
p8624
g22
ssVtiny
p8625
(dp8626
Vfood
p8627
g8
sg8624
g8
sssS'1469'
p8628
(dp8629
Vpizza
p8630
(dp8631
Vfood
p8632
g22
sssS'1468'
p8633
(dp8634
sS'1465'
p8635
(dp8636
Vservice
p8637
(dp8638
Vservice
p8639
g8
sssS'1018'
p8640
(dp8641
Vservice
p8642
(dp8643
Vservice
p8644
g22
sssS'1467'
p8645
(dp8646
Vtimes
p8647
(dp8648
Vservice
p8649
g22
sssS'1916'
p8650
(dp8651
VIt
p8652
(dp8653
Vfood
p8654
g8
ssVcozy
p8655
(dp8656
g8654
g8
sVservice
p8657
g8
sssS'1461'
p8658
(dp8659
Vgood
p8660
(dp8661
Vprice
p8662
g8
sssS'1460'
p8663
(dp8664
Vdecor
p8665
(dp8666
Vservice
p8667
g22
ssVnice
p8668
(dp8669
Vambiance
p8670
g8
sg8667
g8
sssS'1462'
p8671
(dp8672
Vdishes
p8673
(dp8674
Vservice
p8675
g22
sssS'1317'
p8676
(dp8677
Vprices
p8678
(dp8679
Vmonetary_value
p8680
g8
ssVhigh
p8681
(dp8682
Vatmosphere
p8683
g8
sg8680
g8
sssS'1316'
p8684
(dp8685
Vfood
p8686
(dp8687
Vfood
p8688
g22
ssVo.k.
p8689
(dp8690
g8688
g8
sVprice
p8691
g8
sssS'1315'
p8692
(dp8693
sS'1314'
p8694
(dp8695
sS'1313'
p8696
(dp8697
g87
(dp8698
Vfood
p8699
g8
ssVaverage
p8700
(dp8701
g8699
g8
sVservice
p8702
g8
ssVate
p8703
(dp8704
g8699
g8
ssVdishes
p8705
(dp8706
g8699
g22
sg8702
g22
sssS'1312'
p8707
(dp8708
sS'1311'
p8709
(dp8710
Vnothing
p8711
(dp8712
Vfood
p8713
g22
sssS'1310'
p8714
(dp8715
sS'1319'
p8716
(dp8717
Vthing
p8718
(dp8719
Vfood
p8720
g22
sssS'1318'
p8721
(dp8722
Vplace
p8723
(dp8724
Vatmosphere
p8725
g22
sssS'767'
p8726
(dp8727
sS'1010'
p8728
(dp8729
Vbill
p8730
(dp8731
Vservice
p8732
g22
sssS'464'
p8733
(dp8734
Vdishes
p8735
(dp8736
Vfood
p8737
g38
sVatmosphere
p8738
g38
sVservice
p8739
g38
ssVfood
p8740
(dp8741
g8737
g22
ssVphenomenal
p8742
(dp8743
g8737
g8
ssVambiance
p8744
(dp8745
g8737
g22
sg8738
g22
ssVveal
p8746
(dp8747
g8737
g22
sg8738
g22
sg8739
g22
ssVminimal
p8748
(dp8749
g8737
g8
sg8738
g8
sssS'1011'
p8750
(dp8751
sS'318'
p8752
(dp8753
Vatmosphere
p8754
(dp8755
Vatmosphere
p8756
g22
sssS'313'
p8757
(dp8758
sS'3441'
p8759
(dp8760
Vsandwich
p8761
(dp8762
Vfood
p8763
g22
ssVwarrant
p8764
(dp8765
g8763
g8
sVprice
p8766
g8
sssS'317'
p8767
(dp8768
sS'316'
p8769
(dp8770
sS'315'
p8771
(dp8772
Voysters
p8773
(dp8774
Vfood
p8775
g8
sssS'864'
p8776
(dp8777
Vfood
p8778
(dp8779
Vfood
p8780
g22
ssVgood
p8781
(dp8782
g8780
g8
sVprice
p8783
g8
ssVportions
p8784
(dp8785
g8780
g8
sg8783
g8
sVatmosphere
p8786
g8
sssS'867'
p8787
(dp8788
sS'1618'
p8789
(dp8790
sS'866'
p8791
(dp8792
Vis
p8793
(dp8794
Vprice
p8795
g8
sVmilitary_service
p8796
g8
ssVstaff
p8797
(dp8798
g8796
g22
sssS'2025'
p8799
(dp8800
sS'2754'
p8801
(dp8802
sS'1335'
p8803
(dp8804
Vfood
p8805
(dp8806
Vfood
p8807
g22
ssVwaiter
p8808
(dp8809
g8807
g8
sVservice
p8810
g8
ssVservice
p8811
(dp8812
g8807
g8
sg8810
g8
sssS'1030'
p8813
(dp8814
Vjob
p8815
(dp8816
Vservice
p8817
g22
ssVwaitresses
p8818
(dp8819
g8817
g8
ssVfriendly
p8820
(dp8821
Vmilitary_service
p8822
g8
sg8817
g8
sssS'1334'
p8823
(dp8824
Vit
p8825
(dp8826
Vfood
p8827
g8
sssS'2752'
p8828
(dp8829
sS'1331'
p8830
(dp8831
sS'2698'
p8832
(dp8833
Vquick
p8834
(dp8835
Vfood
p8836
g8
sVservice
p8837
g8
ssVservice
p8838
(dp8839
g8837
g8
sssS'446'
p8840
(dp8841
Vguests
p8842
(dp8843
Vservice
p8844
g8
sssS'2692'
p8845
(dp8846
Vattentive
p8847
(dp8848
Vfood
p8849
g8
sVmilitary_service
p8850
g8
ssVstaff
p8851
(dp8852
g8850
g22
sssS'2461'
p8853
(dp8854
VCUISINE
p8855
(dp8856
Voverhaul
p8857
g8
sssS'3610'
p8858
(dp8859
VStreet
p8860
(dp8861
Vatmosphere
p8862
g22
ssVboots
p8863
(dp8864
g8862
g8
sVservice
p8865
g8
ssVwomen
p8866
(dp8867
g8862
g22
sg8865
g22
sssS'3611'
p8868
(dp8869
Vtiny
p8870
(dp8871
Vfood
p8872
g8
sssS'2299'
p8873
(dp8874
sS'3613'
p8875
(dp8876
sS'3617'
p8877
(dp8878
Vneighborhood
p8879
(dp8880
Vambiance
p8881
g8
sssS'2293'
p8882
(dp8883
sS'3619'
p8884
(dp8885
sS'2290'
p8886
(dp8887
VNY
p8888
(dp8889
Vambiance
p8890
g8
sssS'2297'
p8891
(dp8892
VManhattan
p8893
(dp8894
Vfood
p8895
g8
sssS'2296'
p8896
(dp8897
sS'2295'
p8898
(dp8899
Vwrite
p8900
(dp8901
Vprice
p8902
g8
sssS'2294'
p8903
(dp8904
sS'2569'
p8905
(dp8906
Vreviews
p8907
(dp8908
Vservice
p8909
g8
sssS'2568'
p8910
(dp8911
sS'2560'
p8912
(dp8913
Vplace
p8914
(dp8915
Vatmosphere
p8916
g22
sssS'2563'
p8917
(dp8918
g87
(dp8919
Vfood
p8920
g8
ssVwork
p8921
(dp8922
g8920
g8
sVservice
p8923
g8
ssVoatmeal
p8924
(dp8925
g8920
g22
sg8923
g22
sssS'1615'
p8926
(dp8927
sS'2567'
p8928
(dp8929
Vingredients
p8930
(dp8931
Vfood
p8932
g38
sssS'403'
p8933
(dp8934
Vaverage
p8935
(dp8936
Vfood
p8937
g8
ssVit
p8938
(dp8939
g8937
g8
ssVnight
p8940
(dp8941
g8937
g22
sssS'908'
p8942
(dp8943
sS'2369'
p8944
(dp8945
sS'2367'
p8946
(dp8947
Vit
p8948
(dp8949
Vfood
p8950
g8
ssVdisappointment
p8951
(dp8952
g8950
g8
sVservice
p8953
g8
sssS'2366'
p8954
(dp8955
sS'2365'
p8956
(dp8957
Vdessert
p8958
(dp8959
Vfood
p8960
g22
ssVleft
p8961
(dp8962
g8960
g8
sVambiance
p8963
g8
sssS'2364'
p8964
(dp8965
sS'2363'
p8966
(dp8967
sS'2361'
p8968
(dp8969
sS'2360'
p8970
(dp8971
VClub
p8972
(dp8973
Vmilitary_service
p8974
g8
ssVgroup
p8975
(dp8976
g8974
g38
sssS'2587'
p8977
(dp8978
sS'2586'
p8979
(dp8980
Vrate
p8981
(dp8982
Vprice
p8983
g38
sVatmosphere
p8984
g38
ssVplace
p8985
(dp8986
g8983
g38
sg8984
g38
sssS'2585'
p8987
(dp8988
Vgreat
p8989
(dp8990
Vservice
p8991
g8
ssVservice
p8992
(dp8993
g8991
g8
sssS'2584'
p8994
(dp8995
sS'2582'
p8996
(dp8997
sS'2581'
p8998
(dp8999
sS'2580'
p9000
(dp9001
sS'1612'
p9002
(dp9003
Vtea
p9004
(dp9005
Vfood
p9006
g22
sssS'402'
p9007
(dp9008
g87
(dp9009
Vfood
p9010
g8
ssVSpecial
p9011
(dp9012
g9010
g8
sssS'2589'
p9013
(dp9014
Vpizza
p9015
(dp9016
Vfood
p9017
g22
sssS'2588'
p9018
(dp9019
Vsaw
p9020
(dp9021
Vservice
p9022
g8
ssVwaitress
p9023
(dp9024
g9022
g22
sssS'1861'
p9025
(dp9026
sS'1860'
p9027
(dp9028
sS'1865'
p9029
(dp9030
Vate
p9031
(dp9032
Vfood
p9033
g8
sssS'1867'
p9034
(dp9035
Vcourses
p9036
(dp9037
Vfood
p9038
g22
sVmilitary_service
p9039
g22
sVservice
p9040
g22
ssVgood
p9041
(dp9042
g9038
g8
sVprice
p9043
g8
sg9039
g8
sg9040
g8
ssVrich
p9044
(dp9045
g9039
g8
sg9040
g8
ssVsampler
p9046
(dp9047
g9040
g8
sssS'1866'
p9048
(dp9049
sS'1869'
p9050
(dp9051
sS'1868'
p9052
(dp9053
Vcourses
p9054
(dp9055
Vfood
p9056
g22
sssS'964'
p9057
(dp9058
Vfriendly
p9059
(dp9060
Vmilitary_service
p9061
g8
ssVstaff
p9062
(dp9063
g9061
g22
sssS'965'
p9064
(dp9065
Vbecome
p9066
(dp9067
Vprice
p9068
g8
sssS'966'
p9069
(dp9070
Vquality
p9071
(dp9072
Vprice
p9073
g22
sssS'967'
p9074
(dp9075
Vfood
p9076
(dp9077
Vfood
p9078
g22
sssS'960'
p9079
(dp9080
Vrestaurant
p9081
(dp9082
Vservice
p9083
g22
sssS'961'
p9084
(dp9085
Vmine
p9086
(dp9087
Vservice
p9088
g8
ssVrestaurant
p9089
(dp9090
g9088
g22
sssS'962'
p9091
(dp9092
sS'1613'
p9093
(dp9094
sS'968'
p9095
(dp9096
Vcost
p9097
(dp9098
Vmonetary_value
p9099
g8
sssS'969'
p9100
(dp9101
sS'2109'
p9102
(dp9103
Vechoes
p9104
(dp9105
Vservice
p9106
g8
ssVservice
p9107
(dp9108
g9106
g8
sssS'2108'
p9109
(dp9110
Vleast
p9111
(dp9112
Vfood
p9113
g8
sVatmosphere
p9114
g8
ssVone
p9115
(dp9116
g9113
g8
sssS'2103'
p9117
(dp9118
Vbrought
p9119
(dp9120
Vfood
p9121
g8
sVprice
p9122
g8
ssVfresh
p9123
(dp9124
g9121
g8
sssS'2102'
p9125
(dp9126
Vrest
p9127
(dp9128
Vservice
p9129
g22
sssS'2101'
p9130
(dp9131
Vwere
p9132
(dp9133
Vprice
p9134
g8
sssS'2100'
p9135
(dp9136
sS'2107'
p9137
(dp9138
sS'2105'
p9139
(dp9140
Vcake
p9141
(dp9142
Vfood
p9143
g22
sssS'2104'
p9144
(dp9145
Vatmosphere
p9146
(dp9147
Vatmosphere
p9148
g22
sVservice
p9149
g22
ssVwait
p9150
(dp9151
g9149
g8
sssS'2639'
p9152
(dp9153
Vroom
p9154
(dp9155
Vmilitary_service
p9156
g8
sssS'2638'
p9157
(dp9158
sS'635'
p9159
(dp9160
sS'2635'
p9161
(dp9162
sS'2634'
p9163
(dp9164
sS'2637'
p9165
(dp9166
sS'2636'
p9167
(dp9168
sS'2631'
p9169
(dp9170
sS'2630'
p9171
(dp9172
Vchance
p9173
(dp9174
Vservice
p9175
g22
sssS'3438'
p9176
(dp9177
Vambience
p9178
(dp9179
Vatmosphere
p9180
g8
ssVgood
p9181
(dp9182
g9180
g8
sVprice
p9183
g8
sssS'3439'
p9184
(dp9185
Vfallback
p9186
(dp9187
Vservice
p9188
g22
sssS'878'
p9189
(dp9190
Vmeal
p9191
(dp9192
Vfood
p9193
g38
sssS'3093'
p9194
(dp9195
sS'876'
p9196
(dp9197
Vleft
p9198
(dp9199
Vambiance
p9200
g8
sssS'3431'
p9201
(dp9202
sS'874'
p9203
(dp9204
g87
(dp9205
Vfood
p9206
g8
ssVwent
p9207
(dp9208
g9206
g8
sVprice
p9209
g8
sssS'3433'
p9210
(dp9211
sS'3434'
p9212
(dp9213
Vdessert
p9214
(dp9215
Vfood
p9216
g22
ssVenough
p9217
(dp9218
g9216
g8
sssS'3435'
p9219
(dp9220
VInn
p9221
(dp9222
Vservice
p9223
g8
ssVrestaurant
p9224
(dp9225
g9223
g22
sssS'870'
p9226
(dp9227
Vfood
p9228
(dp9229
Vfood
p9230
g22
ssVprices
p9231
(dp9232
g9230
g8
sVprice
p9233
g8
sVmonetary_value
p9234
g8
ssVgood
p9235
(dp9236
g9230
g8
sg9233
g8
sssS'3437'
p9237
(dp9238
Vgood
p9239
(dp9240
Vfood
p9241
g8
sVprice
p9242
g8
ssVspaghetti
p9243
(dp9244
g9241
g22
ssVsandwich
p9245
(dp9246
g9241
g22
sssS'2741'
p9247
(dp9248
Vpasta
p9249
(dp9250
Vfood
p9251
g8
sVprice
p9252
g8
sVservice
p9253
g8
ssVfresh
p9254
(dp9255
g9251
g8
sg9252
g8
sg9253
g8
ssVwarm
p9256
(dp9257
g9252
g8
sg9253
g8
ssVService
p9258
(dp9259
g9253
g8
sssS'2036'
p9260
(dp9261
sS'2035'
p9262
(dp9263
Vportions
p9264
(dp9265
Vatmosphere
p9266
g22
sssS'1242'
p9267
(dp9268
Vrice
p9269
(dp9270
Vfood
p9271
g22
sssS'2033'
p9272
(dp9273
sS'2747'
p9274
(dp9275
sS'2030'
p9276
(dp9277
sS'9'
p9278
(dp9279
sS'2748'
p9280
(dp9281
Vthing
p9282
(dp9283
Vfood
p9284
g22
sVservice
p9285
g22
ssVservice
p9286
(dp9287
g9285
g8
sssS'2039'
p9288
(dp9289
sS'2038'
p9290
(dp9291
Vfood
p9292
(dp9293
Vfood
p9294
g22
ssVboring
p9295
(dp9296
g9294
g8
sVservice
p9297
g8
sssS'891'
p9298
(dp9299
Vawful
p9300
(dp9301
Vfood
p9302
g8
sVservice
p9303
g8
ssVwas
p9304
(dp9305
g9302
g8
sVambiance
p9306
g8
sg9303
g8
ssVservice
p9307
(dp9308
g9303
g8
sssS'892'
p9309
(dp9310
Vchecked
p9311
(dp9312
Vprice
p9313
g8
sVservice
p9314
g8
ssVserver
p9315
(dp9316
g9314
g22
sssS'894'
p9317
(dp9318
Vworth
p9319
(dp9320
Vprice
p9321
g8
sVservice
p9322
g8
ssVrestaurant
p9323
(dp9324
g9322
g22
sssS'895'
p9325
(dp9326
sS'896'
p9327
(dp9328
Vbeer
p9329
(dp9330
Vfood
p9331
g22
sssS'897'
p9332
(dp9333
sS'898'
p9334
(dp9335
Vthing
p9336
(dp9337
Vfood
p9338
g22
ssVloud
p9339
(dp9340
g9338
g8
sVambiance
p9341
g8
ssVit
p9342
(dp9343
g9338
g8
sg9341
g8
ssVwas
p9344
(dp9345
g9338
g8
sg9341
g8
sssS'899'
p9346
(dp9347
VFood
p9348
(dp9349
Vfood
p9350
g8
sssS'1530'
p9351
(dp9352
sS'3651'
p9353
(dp9354
VChance
p9355
(dp9356
Vservice
p9357
g8
sssS'783'
p9358
(dp9359
sS'1968'
p9360
(dp9361
sS'1969'
p9362
(dp9363
Vservice
p9364
(dp9365
Vservice
p9366
g22
sssS'3544'
p9367
(dp9368
Vambience
p9369
(dp9370
Vatmosphere
p9371
g22
sssS'3545'
p9372
(dp9373
sS'3546'
p9374
(dp9375
sS'3547'
p9376
(dp9377
Vvalue
p9378
(dp9379
Vmonetary_value
p9380
g22
sssS'3541'
p9381
(dp9382
sS'3542'
p9383
(dp9384
sS'3543'
p9385
(dp9386
VFood
p9387
(dp9388
Vfood
p9389
g8
sssS'3235'
p9390
(dp9391
Vstaff
p9392
(dp9393
Vmilitary_service
p9394
g22
sssS'1964'
p9395
(dp9396
Vfilets
p9397
(dp9398
Vfood
p9399
g22
sssS'422'
p9400
(dp9401
sS'1965'
p9402
(dp9403
sS'3238'
p9404
(dp9405
sS'3069'
p9406
(dp9407
sS'2965'
p9408
(dp9409
Vget
p9410
(dp9411
Vserve
p9412
g8
sssS'2964'
p9413
(dp9414
Vfood
p9415
(dp9416
Vfood
p9417
g22
sssS'2967'
p9418
(dp9419
sS'769'
p9420
(dp9421
sS'2961'
p9422
(dp9423
Vportions
p9424
(dp9425
Vatmosphere
p9426
g38
sssS'2960'
p9427
(dp9428
Vmenu
p9429
(dp9430
Vfood
p9431
g38
sssS'2963'
p9432
(dp9433
Vwines
p9434
(dp9435
Vfood
p9436
g22
sssS'2962'
p9437
(dp9438
Vmussels
p9439
(dp9440
Vfood
p9441
g8
sssS'1780'
p9442
(dp9443
Vmenu
p9444
(dp9445
Vfood
p9446
g22
sVservice
p9447
g22
ssVart
p9448
(dp9449
g9447
g22
sssS'1781'
p9450
(dp9451
sS'760'
p9452
(dp9453
Vdowntown
p9454
(dp9455
Vambiance
p9456
g8
ssVare
p9457
(dp9458
Vprice
p9459
g8
sg9456
g8
sssS'1783'
p9460
(dp9461
sS'2969'
p9462
(dp9463
sS'1785'
p9464
(dp9465
sS'764'
p9466
(dp9467
Vdish
p9468
(dp9469
Vservice
p9470
g8
ssVdry
p9471
(dp9472
Vfood
p9473
g8
sg9470
g8
ssVchicken
p9474
(dp9475
g9473
g8
sg9470
g8
sssS'765'
p9476
(dp9477
VSushi
p9478
(dp9479
Vfood
p9480
g8
ssVspectacular
p9481
(dp9482
g9480
g8
sVservice
p9483
g8
sssS'3049'
p9484
(dp9485
Vfood
p9486
(dp9487
Vfood
p9488
g22
ssVlousy
p9489
(dp9490
g9488
g8
sssS'3048'
p9491
(dp9492
Vbrought
p9493
(dp9494
Vfood
p9495
g8
sVprice
p9496
g8
sVambiance
p9497
g8
ssVnoodles
p9498
(dp9499
g9495
g22
sg9497
g22
ssVus
p9500
(dp9501
g9497
g8
sssS'3041'
p9502
(dp9503
sS'3040'
p9504
(dp9505
sS'3043'
p9506
(dp9507
Vreasonably
p9508
(dp9509
Vfood
p9510
g8
sVserve
p9511
g8
ssVget
p9512
(dp9513
g9511
g8
sssS'3042'
p9514
(dp9515
sS'3045'
p9516
(dp9517
sS'3044'
p9518
(dp9519
sS'3047'
p9520
(dp9521
Vplace
p9522
(dp9523
Vatmosphere
p9524
g22
sssS'3046'
p9525
(dp9526
Vposts
p9527
(dp9528
Vservice
p9529
g8
sssS'1078'
p9530
(dp9531
Vbatter
p9532
(dp9533
Vfood
p9534
g22
ssVfillings
p9535
(dp9536
g9534
g8
sssS'1077'
p9537
(dp9538
Vcheap
p9539
(dp9540
Vfood
p9541
g8
ssVeat
p9542
(dp9543
g9541
g8
sVprice
p9544
g8
sssS'1074'
p9545
(dp9546
sS'1070'
p9547
(dp9548
Vmove
p9549
(dp9550
Vprice
p9551
g8
sVserve
p9552
g8
ssVcrowded
p9553
(dp9554
g9551
g8
sssS'1071'
p9555
(dp9556
Vspot
p9557
(dp9558
Vservice
p9559
g22
sssS'1678'
p9560
(dp9561
sS'1679'
p9562
(dp9563
sS'3030'
p9564
(dp9565
sS'1674'
p9566
(dp9567
sS'1675'
p9568
(dp9569
Vfood
p9570
(dp9571
Vfood
p9572
g8
sssS'1676'
p9573
(dp9574
sS'1677'
p9575
(dp9576
Vpositive
p9577
(dp9578
Vservice
p9579
g8
ssVprompt
p9580
(dp9581
g9579
g8
ssVstaff
p9582
(dp9583
Vmilitary_service
p9584
g22
sg9579
g22
sssS'1670'
p9585
(dp9586
sS'1671'
p9587
(dp9588
sS'1672'
p9589
(dp9590
Vbass
p9591
(dp9592
Vprice
p9593
g22
sssS'1673'
p9594
(dp9595
sS'1094'
p9596
(dp9597
Vfood
p9598
(dp9599
Vfood
p9600
g22
sssS'1095'
p9601
(dp9602
sS'1096'
p9603
(dp9604
Vspot
p9605
(dp9606
Vfood
p9607
g38
sVambiance
p9608
g38
sVservice
p9609
g38
ssVscene
p9610
(dp9611
g9608
g22
ssValive
p9612
(dp9613
g9607
g8
sg9608
g8
sssS'1097'
p9614
(dp9615
Vcuisine
p9616
(dp9617
Voverhaul
p9618
g8
sVservice
p9619
g8
ssVspot
p9620
(dp9621
g9619
g38
sssS'678'
p9622
(dp9623
sS'679'
p9624
(dp9625
sS'1092'
p9626
(dp9627
Vfriends
p9628
(dp9629
Vservice
p9630
g8
ssVget
p9631
(dp9632
Vserve
p9633
g8
sg9630
g8
sssS'1093'
p9634
(dp9635
Vcity
p9636
(dp9637
Vambiance
p9638
g22
sVservice
p9639
g22
ssVrestaurant
p9640
(dp9641
g9639
g8
sssS'674'
p9642
(dp9643
sS'675'
p9644
(dp9645
Vpickles
p9646
(dp9647
Vatmosphere
p9648
g22
ssVexperience
p9649
(dp9650
Vfood
p9651
g8
sg9648
g8
sssS'676'
p9652
(dp9653
Vflavors
p9654
(dp9655
Vatmosphere
p9656
g8
ssVfresh
p9657
(dp9658
Vfood
p9659
g8
sg9656
g8
sssS'677'
p9660
(dp9661
sS'1098'
p9662
(dp9663
sS'1099'
p9664
(dp9665
Vbrunch
p9666
(dp9667
Vfood
p9668
g8
ssVdinner
p9669
(dp9670
g9668
g8
sssS'672'
p9671
(dp9672
Vchopsticks
p9673
(dp9674
Vservice
p9675
g22
sssS'673'
p9676
(dp9677
sS'3135'
p9678
(dp9679
sS'3134'
p9680
(dp9681
sS'3137'
p9682
(dp9683
sS'3136'
p9684
(dp9685
sS'3131'
p9686
(dp9687
sS'3130'
p9688
(dp9689
Vfood
p9690
(dp9691
Vfood
p9692
g22
ssVoily
p9693
(dp9694
g9692
g22
sssS'3133'
p9695
(dp9696
Vphrase
p9697
(dp9698
Vservice
p9699
g22
ssVhot
p9700
(dp9701
Vfood
p9702
g8
sg9699
g8
sssS'3139'
p9703
(dp9704
sS'3138'
p9705
(dp9706
sS'1533'
p9707
(dp9708
sS'1622'
p9709
(dp9710
Vsurprise
p9711
(dp9712
Vatmosphere
p9713
g8
sVservice
p9714
g8
ssVportions
p9715
(dp9716
g9713
g8
ssVservers
p9717
(dp9718
g9713
g8
sg9714
g8
sssS'1418'
p9719
(dp9720
sS'1419'
p9721
(dp9722
sS'1410'
p9723
(dp9724
sS'1411'
p9725
(dp9726
sS'1412'
p9727
(dp9728
g87
(dp9729
Vfood
p9730
g8
ssVvegetarian
p9731
(dp9732
g9730
g8
sVservice
p9733
g8
ssVdishes
p9734
(dp9735
g9730
g8
sg9733
g8
sssS'1413'
p9736
(dp9737
sS'1414'
p9738
(dp9739
sS'1415'
p9740
(dp9741
sS'1416'
p9742
(dp9743
sS'1417'
p9744
(dp9745
sS'1322'
p9746
(dp9747
sS'1323'
p9748
(dp9749
Vmusic
p9750
(dp9751
Vservice
p9752
g22
sssS'1320'
p9753
(dp9754
VNothing
p9755
(dp9756
Vfood
p9757
g8
ssVobvious
p9758
(dp9759
g9757
g8
sssS'1321'
p9760
(dp9761
Vfood
p9762
(dp9763
Vfood
p9764
g22
sssS'1326'
p9765
(dp9766
Vfood
p9767
(dp9768
Vfood
p9769
g22
sVprice
p9770
g22
ssVfresh
p9771
(dp9772
g9769
g8
sg9770
g8
ssVtreated
p9773
(dp9774
g9770
g8
sssS'1327'
p9775
(dp9776
sS'1324'
p9777
(dp9778
sS'1325'
p9779
(dp9780
Vgirlfriend
p9781
(dp9782
Vprice
p9783
g22
sVservice
p9784
g22
ssVrelaxing
p9785
(dp9786
g9783
g22
sssS'1328'
p9787
(dp9788
sS'1329'
p9789
(dp9790
Vreservations
p9791
(dp9792
Vservice
p9793
g8
sssS'5'
p9794
(dp9795
sS'1531'
p9796
(dp9797
sS'1917'
p9798
(dp9799
Vfood
p9800
(dp9801
Vfood
p9802
g22
ssVgood
p9803
(dp9804
g9802
g8
sVprice
p9805
g8
sssS'3618'
p9806
(dp9807
sS'1254'
p9808
(dp9809
Vtea
p9810
(dp9811
Vfood
p9812
g22
ssVsmooth
p9813
(dp9814
g9812
g8
sVservice
p9815
g8
sssS'1527'
p9816
(dp9817
sS'1250'
p9818
(dp9819
Vchicken
p9820
(dp9821
Vfood
p9822
g22
sssS'1528'
p9823
(dp9824
Vfood
p9825
(dp9826
Vfood
p9827
g22
ssVhave
p9828
(dp9829
g9827
g8
sVservice
p9830
g8
sssS'308'
p9831
(dp9832
sS'309'
p9833
(dp9834
Vservice
p9835
(dp9836
Vservice
p9837
g8
sssS'300'
p9838
(dp9839
Vpresentation
p9840
(dp9841
Vservice
p9842
g38
sssS'301'
p9843
(dp9844
Vit
p9845
(dp9846
Vfood
p9847
g8
sVambiance
p9848
g8
sVservice
p9849
g8
ssVhot
p9850
(dp9851
g9847
g8
sg9848
g8
sg9849
g8
ssVtable
p9852
(dp9853
g9847
g22
sg9848
g22
sg9849
g22
ssVwait
p9854
(dp9855
g9849
g22
ssVwas
p9856
(dp9857
g9848
g8
sg9849
g8
ssVnice
p9858
(dp9859
g9847
g8
sg9848
g8
sg9849
g8
sssS'302'
p9860
(dp9861
Vis
p9862
(dp9863
Vprice
p9864
g8
sVservice
p9865
g8
ssVrestaurant
p9866
(dp9867
g9865
g22
sssS'303'
p9868
(dp9869
sS'304'
p9870
(dp9871
Vfish
p9872
(dp9873
Vfood
p9874
g8
sssS'305'
p9875
(dp9876
Vgreat
p9877
(dp9878
Vfood
p9879
g8
sVservice
p9880
g8
ssVsushi
p9881
(dp9882
g9879
g22
sssS'306'
p9883
(dp9884
Vdessert
p9885
(dp9886
Vfood
p9887
g8
sVservice
p9888
g8
ssVtower
p9889
(dp9890
g9888
g8
sssS'307'
p9891
(dp9892
Vrestaurant
p9893
(dp9894
Vservice
p9895
g22
sssS'1626'
p9896
(dp9897
Vtime
p9898
(dp9899
Vatmosphere
p9900
g38
sssS'75'
p9901
(dp9902
sS'2399'
p9903
(dp9904
Vportions
p9905
(dp9906
Vatmosphere
p9907
g8
sssS'71'
p9908
(dp9909
VMADE
p9910
(dp9911
Vprice
p9912
g8
ssVplace
p9913
(dp9914
Vfood
p9915
g22
sg9912
g22
sVatmosphere
p9916
g22
sVservice
p9917
g22
ssVservice
p9918
(dp9919
g9915
g22
sg9912
g22
sg9917
g22
ssVPizza
p9920
(dp9921
g9915
g22
sg9912
g22
sssS'70'
p9922
(dp9923
Vplace
p9924
(dp9925
Vatmosphere
p9926
g8
sssS'3415'
p9927
(dp9928
sS'3056'
p9929
(dp9930
Vfood
p9931
(dp9932
Vfood
p9933
g22
ssVworld
p9934
(dp9935
g9933
g22
ssVtrip
p9936
(dp9937
g9933
g22
sVserve
p9938
g22
ssVambience
p9939
(dp9940
g9933
g22
sVatmosphere
p9941
g22
sg9938
g22
sssS'989'
p9942
(dp9943
Vservice
p9944
(dp9945
Vservice
p9946
g8
sssS'2973'
p9947
(dp9948
Vfood
p9949
(dp9950
Vfood
p9951
g22
sVservice
p9952
g22
ssVamazing
p9953
(dp9954
g9951
g8
sVprice
p9955
g8
sg9952
g8
ssVprompt
p9956
(dp9957
g9952
g8
ssVservice
p9958
(dp9959
g9952
g8
sssS'1447'
p9960
(dp9961
Vthirsty
p9962
(dp9963
Vfood
p9964
g8
ssVHe
p9965
(dp9966
g9964
g8
sssS'3052'
p9967
(dp9968
Vstep
p9969
(dp9970
Vserve
p9971
g8
sssS'3053'
p9972
(dp9973
Vrestaurant
p9974
(dp9975
Vservice
p9976
g22
sssS'2974'
p9977
(dp9978
Vbet
p9979
(dp9980
Vservice
p9981
g22
sssS'78'
p9982
(dp9983
Vremember
p9984
(dp9985
Vprice
p9986
g8
sssS'3603'
p9987
(dp9988
sS'3602'
p9989
(dp9990
sS'3601'
p9991
(dp9992
sS'3600'
p9993
(dp9994
Vlooked
p9995
(dp9996
Vfood
p9997
g8
sVprice
p9998
g8
ssVIt
p9999
(dp10000
g9997
g8
sssS'3607'
p10001
(dp10002
Vit
p10003
(dp10004
Vfood
p10005
g8
ssVcheesy
p10006
(dp10007
g10005
g8
sssS'3606'
p10008
(dp10009
Vgood
p10010
(dp10011
Vfood
p10012
g8
sVprice
p10013
g8
ssVpizza
p10014
(dp10015
g10012
g22
sssS'3605'
p10016
(dp10017
sS'3604'
p10018
(dp10019
sS'3609'
p10020
(dp10021
sS'3608'
p10022
(dp10023
Vgood
p10024
(dp10025
Vprice
p10026
g8
ssVinconsistency
p10027
(dp10028
g10026
g22
sssS'3413'
p10029
(dp10030
sS'2479'
p10031
(dp10032
VBar
p10033
(dp10034
Vservice
p10035
g22
sssS'2478'
p10036
(dp10037
Vdishes
p10038
(dp10039
Vservice
p10040
g22
sssS'470'
p10041
(dp10042
sS'2990'
p10043
(dp10044
sS'2359'
p10045
(dp10046
Vbill
p10047
(dp10048
Vfood
p10049
g22
sVservice
p10050
g22
ssVsteep
p10051
(dp10052
g10049
g8
sVambiance
p10053
g8
sg10050
g8
ssVexperience
p10054
(dp10055
g10049
g22
sssS'2350'
p10056
(dp10057
Vtuna
p10058
(dp10059
Vfood
p10060
g8
sssS'2356'
p10061
(dp10062
sS'2355'
p10063
(dp10064
sS'2991'
p10065
(dp10066
Vsteak
p10067
(dp10068
Vfood
p10069
g22
ssVfatty
p10070
(dp10071
g10069
g8
sVservice
p10072
g8
sssS'1899'
p10073
(dp10074
Vterms
p10075
(dp10076
Vprice
p10077
g22
sssS'1894'
p10078
(dp10079
Vserved
p10080
(dp10081
Vatmosphere
p10082
g8
sVservice
p10083
g8
ssVplace
p10084
(dp10085
g10082
g22
ssVdishes
p10086
(dp10087
g10082
g22
sg10083
g22
sssS'1890'
p10088
(dp10089
Vvibe
p10090
(dp10091
Vfood
p10092
g22
sVprice
p10093
g22
ssVit
p10094
(dp10095
g10092
g8
sssS'1891'
p10096
(dp10097
Vfood
p10098
(dp10099
Vfood
p10100
g22
ssVsoup
p10101
(dp10102
g10100
g22
sVprice
p10103
g22
ssVgood
p10104
(dp10105
g10100
g8
sg10103
g8
ssVit
p10106
(dp10107
g10100
g8
sg10103
g8
ssVone
p10108
(dp10109
g10100
g8
sg10103
g8
sssS'1893'
p10110
(dp10111
Vfries
p10112
(dp10113
Vfood
p10114
g38
sssS'2136'
p10115
(dp10116
Vquiet
p10117
(dp10118
Vatmosphere
p10119
g22
sssS'2137'
p10120
(dp10121
Vpie
p10122
(dp10123
Vfood
p10124
g22
sssS'2134'
p10125
(dp10126
g87
(dp10127
Vfood
p10128
g8
ssVsure
p10129
(dp10130
g10128
g8
ssVbusiness
p10131
(dp10132
g10128
g22
sVservice
p10133
g22
sssS'2135'
p10134
(dp10135
sS'2132'
p10136
(dp10137
Vfood
p10138
(dp10139
Vfood
p10140
g8
ssVare
p10141
(dp10142
g10140
g8
sVprice
p10143
g8
sssS'2133'
p10144
(dp10145
sS'2130'
p10146
(dp10147
sS'2131'
p10148
(dp10149
sS'951'
p10150
(dp10151
sS'950'
p10152
(dp10153
sS'953'
p10154
(dp10155
sS'952'
p10156
(dp10157
sS'955'
p10158
(dp10159
g87
(dp10160
Vfood
p10161
g8
sssS'954'
p10162
(dp10163
sS'2138'
p10164
(dp10165
Vdistrict
p10166
(dp10167
Vambiance
p10168
g22
sssS'2139'
p10169
(dp10170
sS'2648'
p10171
(dp10172
Vfood
p10173
(dp10174
Vfood
p10175
g22
sVatmosphere
p10176
g22
ssVtasty
p10177
(dp10178
g10175
g8
sg10176
g8
ssVsizes
p10179
(dp10180
g10176
g22
sssS'2649'
p10181
(dp10182
sS'2640'
p10183
(dp10184
Vnights
p10185
(dp10186
Vfood
p10187
g8
ssVare
p10188
(dp10189
g10187
g8
sVprice
p10190
g8
ssVtipsy
p10191
(dp10192
g10187
g8
sssS'2641'
p10193
(dp10194
Vbistro
p10195
(dp10196
Vservice
p10197
g22
ssVis
p10198
(dp10199
Vprice
p10200
g8
sg10197
g8
sssS'2642'
p10201
(dp10202
Vchanges
p10203
(dp10204
Vservice
p10205
g8
sssS'2643'
p10206
(dp10207
Vdisaster
p10208
(dp10209
Voverhaul
p10210
g22
sssS'2644'
p10211
(dp10212
sS'2645'
p10213
(dp10214
Vdish
p10215
(dp10216
Vservice
p10217
g8
sssS'2646'
p10218
(dp10219
Vgood
p10220
(dp10221
Vprice
p10222
g8
sssS'2647'
p10223
(dp10224
Vbar
p10225
(dp10226
Vservice
p10227
g22
sssS'3429'
p10228
(dp10229
Vexperience
p10230
(dp10231
Vfood
p10232
g38
sssS'3428'
p10233
(dp10234
sS'3423'
p10235
(dp10236
Vsandwich
p10237
(dp10238
Vfood
p10239
g22
sssS'3422'
p10240
(dp10241
VHall
p10242
(dp10243
Vservice
p10244
g8
sssS'3421'
p10245
(dp10246
Vdowntown
p10247
(dp10248
Vfood
p10249
g8
sVambiance
p10250
g8
ssVlunch
p10251
(dp10252
g10249
g8
sg10250
g8
ssVdinner
p10253
(dp10254
g10249
g22
sssS'3420'
p10255
(dp10256
sS'3426'
p10257
(dp10258
Vreservation
p10259
(dp10260
Vservice
p10261
g8
ssVpeople
p10262
(dp10263
Vmilitary_service
p10264
g22
sg10261
g22
sssS'3425'
p10265
(dp10266
Vscallops
p10267
(dp10268
Vfood
p10269
g22
ssVsauce
p10270
(dp10271
g10269
g22
ssVdelicious
p10272
(dp10273
g10269
g8
sssS'3424'
p10274
(dp10275
Vportion
p10276
(dp10277
Vatmosphere
p10278
g22
ssVfries
p10279
(dp10280
Vfood
p10281
g8
sg10278
g8
sssS'2002'
p10282
(dp10283
sS'2003'
p10284
(dp10285
Vhours
p10286
(dp10287
Vfood
p10288
g22
sssS'2000'
p10289
(dp10290
Vit
p10291
(dp10292
Vfood
p10293
g8
ssVexperience
p10294
(dp10295
g10293
g22
sssS'2001'
p10296
(dp10297
Vchampagne
p10298
(dp10299
Vambiance
p10300
g22
sVservice
p10301
g22
ssVdrinks
p10302
(dp10303
Vfood
p10304
g22
sg10300
g22
sg10301
g22
ssVglasses
p10305
(dp10306
g10301
g22
ssVwine
p10307
(dp10308
g10304
g8
sg10300
g8
sg10301
g8
sssS'2006'
p10309
(dp10310
Vdiscreet
p10311
(dp10312
Vfood
p10313
g8
sVservice
p10314
g8
ssVservice
p10315
(dp10316
g10314
g8
sssS'2007'
p10317
(dp10318
sS'2004'
p10319
(dp10320
sS'2005'
p10321
(dp10322
sS'2008'
p10323
(dp10324
sS'2009'
p10325
(dp10326
sS'2034'
p10327
(dp10328
sS'1544'
p10329
(dp10330
sS'1268'
p10331
(dp10332
Vprovided
p10333
(dp10334
Vprice
p10335
g8
sssS'3026'
p10336
(dp10337
Vsake
p10338
(dp10339
Vfood
p10340
g22
sVservice
p10341
g22
ssVdecor
p10342
(dp10343
g10340
g22
sg10341
g22
ssVservice
p10344
(dp10345
g10341
g8
ssVsoothing
p10346
(dp10347
g10340
g8
sVprice
p10348
g8
sg10341
g8
sssS'3557'
p10349
(dp10350
Vhead
p10351
(dp10352
Vservicing
p10353
g22
ssVcomparable
p10354
(dp10355
Vfood
p10356
g8
sg10353
g8
sssS'3556'
p10357
(dp10358
Vstrayed
p10359
(dp10360
Vprice
p10361
g8
sssS'3555'
p10362
(dp10363
Vincluded
p10364
(dp10365
Vprice
p10366
g8
sVservice
p10367
g8
ssVindian
p10368
(dp10369
g10367
g8
sssS'3554'
p10370
(dp10371
sS'3553'
p10372
(dp10373
sS'3551'
p10374
(dp10375
Vspice
p10376
(dp10377
Vfood
p10378
g38
sssS'3558'
p10379
(dp10380
Vdishes
p10381
(dp10382
Vservice
p10383
g8
sssS'919'
p10384
(dp10385
sS'2997'
p10386
(dp10387
Vcakes
p10388
(dp10389
Vfood
p10390
g8
ssVcrab
p10391
(dp10392
g10390
g22
sssS'918'
p10393
(dp10394
sS'2910'
p10395
(dp10396
sS'2911'
p10397
(dp10398
sS'2912'
p10399
(dp10400
Vdishes
p10401
(dp10402
Vservice
p10403
g8
sssS'1798'
p10404
(dp10405
sS'2914'
p10406
(dp10407
sS'2915'
p10408
(dp10409
Vstaff
p10410
(dp10411
Vmilitary_service
p10412
g22
sssS'719'
p10413
(dp10414
sS'718'
p10415
(dp10416
g87
(dp10417
Vfood
p10418
g8
sVatmosphere
p10419
g8
ssVplace
p10420
(dp10421
g10419
g22
ssVthink
p10422
(dp10423
g10418
g8
sg10419
g8
sssS'1793'
p10424
(dp10425
sS'2919'
p10426
(dp10427
sS'1791'
p10428
(dp10429
sS'714'
p10430
(dp10431
sS'1797'
p10432
(dp10433
sS'712'
p10434
(dp10435
Vservice
p10436
(dp10437
Vservice
p10438
g8
sssS'711'
p10439
(dp10440
sS'710'
p10441
(dp10442
sS'716'
p10443
(dp10444
Vdisappointed
p10445
(dp10446
Vprice
p10447
g8
sssS'660'
p10448
(dp10449
sS'917'
p10450
(dp10451
Vgood
p10452
(dp10453
Vprice
p10454
g8
sVservice
p10455
g8
ssVService
p10456
(dp10457
g10455
g8
sssS'1069'
p10458
(dp10459
Vcheeses
p10460
(dp10461
Vfood
p10462
g22
sssS'1068'
p10463
(dp10464
Vscoop
p10465
(dp10466
Vfood
p10467
g8
ssVit
p10468
(dp10469
g10467
g8
ssVnice
p10470
(dp10471
g10467
g8
sVambiance
p10472
g8
sssS'2179'
p10473
(dp10474
sS'1061'
p10475
(dp10476
Vfast
p10477
(dp10478
Vservice
p10479
g8
ssVService
p10480
(dp10481
g10479
g8
sssS'1060'
p10482
(dp10483
Vgreat
p10484
(dp10485
Vfood
p10486
g8
sVservice
p10487
g8
ssVSpreads
p10488
(dp10489
g10486
g8
sssS'1063'
p10490
(dp10491
Vforgivable
p10492
(dp10493
Vfood
p10494
g8
sssS'1062'
p10495
(dp10496
sS'1065'
p10497
(dp10498
Vprice
p10499
(dp10500
Vmonetary_value
p10501
g38
sssS'1064'
p10502
(dp10503
sS'1067'
p10504
(dp10505
Vbagel
p10506
(dp10507
Vfood
p10508
g8
sssS'1066'
p10509
(dp10510
sS'1669'
p10511
(dp10512
sS'1668'
p10513
(dp10514
sS'1667'
p10515
(dp10516
sS'1666'
p10517
(dp10518
VFood
p10519
(dp10520
Vfood
p10521
g8
ssVgood
p10522
(dp10523
g10521
g8
sVprice
p10524
g8
sssS'1665'
p10525
(dp10526
Vpriced
p10527
(dp10528
Vfood
p10529
g8
sVprice
p10530
g8
ssVDrinks
p10531
(dp10532
g10529
g8
sssS'1664'
p10533
(dp10534
VService
p10535
(dp10536
Vservice
p10537
g8
sssS'1663'
p10538
(dp10539
sS'1662'
p10540
(dp10541
sS'1661'
p10542
(dp10543
sS'1660'
p10544
(dp10545
Vfood
p10546
(dp10547
Vfood
p10548
g22
sssS'1087'
p10549
(dp10550
sS'1086'
p10551
(dp10552
sS'593'
p10553
(dp10554
Vbig
p10555
(dp10556
Vfood
p10557
g8
ssVit
p10558
(dp10559
g10557
g8
sssS'592'
p10560
(dp10561
sS'595'
p10562
(dp10563
sS'594'
p10564
(dp10565
Vfood
p10566
(dp10567
Vfood
p10568
g22
sssS'597'
p10569
(dp10570
Vass
p10571
(dp10572
Vservicing
p10573
g8
sssS'596'
p10574
(dp10575
Vnothing
p10576
(dp10577
Vfood
p10578
g22
sVservice
p10579
g22
ssVit
p10580
(dp10581
g10578
g8
sg10579
g8
ssVrestaurant
p10582
(dp10583
g10579
g22
sssS'599'
p10584
(dp10585
sS'598'
p10586
(dp10587
Vatmosphere
p10588
(dp10589
Vatmosphere
p10590
g22
ssVunheralded
p10591
(dp10592
Vfood
p10593
g8
sg10590
g8
sssS'1089'
p10594
(dp10595
sS'1088'
p10596
(dp10597
sS'3140'
p10598
(dp10599
Vprices
p10600
(dp10601
Vfood
p10602
g8
sVmonetary_value
p10603
g8
ssVsum
p10604
(dp10605
g10602
g22
ssVdelectable
p10606
(dp10607
g10602
g8
ssVeasy
p10608
(dp10609
g10602
g8
sg10603
g8
sssS'3141'
p10610
(dp10611
Vfood
p10612
(dp10613
Vfood
p10614
g22
ssVscatty
p10615
(dp10616
g10614
g8
sVprice
p10617
g8
sVservice
p10618
g8
ssVarrives
p10619
(dp10620
g10614
g8
sg10617
g8
ssVservice
p10621
(dp10622
g10614
g8
sg10617
g8
sg10618
g8
sssS'3142'
p10623
(dp10624
sS'3144'
p10625
(dp10626
Vservice
p10627
(dp10628
Vservice
p10629
g8
sssS'3145'
p10630
(dp10631
Vso-so
p10632
(dp10633
Vfood
p10634
g8
ssVSum
p10635
(dp10636
g10634
g8
sssS'3146'
p10637
(dp10638
sS'3147'
p10639
(dp10640
g87
(dp10641
Vfood
p10642
g8
ssVdisappointed
p10643
(dp10644
g10642
g8
sVprice
p10645
g8
sssS'3148'
p10646
(dp10647
Vrice
p10648
(dp10649
Vfood
p10650
g8
ssVasked
p10651
(dp10652
g10650
g8
sVprice
p10653
g8
sssS'2825'
p10654
(dp10655
sS'2826'
p10656
(dp10657
g87
(dp10658
Vfood
p10659
g8
ssVexpected
p10660
(dp10661
g10659
g8
sVprice
p10662
g8
sssS'2827'
p10663
(dp10664
Vservice
p10665
(dp10666
Vservice
p10667
g8
sssS'2822'
p10668
(dp10669
Vpizza
p10670
(dp10671
Vfood
p10672
g22
sssS'2823'
p10673
(dp10674
VBart
p10675
(dp10676
Vservice
p10677
g22
sssS'3384'
p10678
(dp10679
sS'3382'
p10680
(dp10681
Vflavors
p10682
(dp10683
Vatmosphere
p10684
g8
ssVmenu
p10685
(dp10686
Vfood
p10687
g22
sg10684
g22
sVservice
p10688
g22
ssVgreat
p10689
(dp10690
g10684
g8
sg10688
g8
sssS'3383'
p10691
(dp10692
Vwine
p10693
(dp10694
Vfood
p10695
g22
sssS'3380'
p10696
(dp10697
Vprices
p10698
(dp10699
Vfood
p10700
g8
sVatmosphere
p10701
g8
sVmonetary_value
p10702
g8
ssVhuge
p10703
(dp10704
g10700
g8
sg10701
g8
ssVportions
p10705
(dp10706
g10701
g8
sssS'3381'
p10707
(dp10708
sS'3388'
p10709
(dp10710
sS'713'
p10711
(dp10712
sS'1409'
p10713
(dp10714
sS'1408'
p10715
(dp10716
Vcloses
p10717
(dp10718
Vfood
p10719
g8
sVoverhaul
p10720
g8
sVservice
p10721
g8
ssVIt
p10722
(dp10723
g10719
g8
ssVit
p10724
(dp10725
g10719
g8
sg10721
g8
ssVrestaurant
p10726
(dp10727
g10719
g22
sg10721
g22
sssS'1403'
p10728
(dp10729
VGarden
p10730
(dp10731
Vambiance
p10732
g8
ssVrestaurant
p10733
(dp10734
g10732
g22
sVservice
p10735
g22
sssS'1402'
p10736
(dp10737
sS'1401'
p10738
(dp10739
sS'1400'
p10740
(dp10741
Vplace
p10742
(dp10743
Vatmosphere
p10744
g22
sssS'1407'
p10745
(dp10746
Vseats
p10747
(dp10748
Vambiance
p10749
g22
sssS'1404'
p10750
(dp10751
Vhave
p10752
(dp10753
Vservice
p10754
g8
sssS'1546'
p10755
(dp10756
sS'449'
p10757
(dp10758
Vgarlic
p10759
(dp10760
Vfood
p10761
g22
sssS'448'
p10762
(dp10763
Vpies
p10764
(dp10765
Vfood
p10766
g8
ssVget
p10767
(dp10768
g10766
g8
sVserve
p10769
g8
sssS'1339'
p10770
(dp10771
Vlunch
p10772
(dp10773
Vfood
p10774
g22
sssS'1338'
p10775
(dp10776
Vservice
p10777
(dp10778
Vservice
p10779
g8
sssS'1491'
p10780
(dp10781
Vsauce
p10782
(dp10783
Vfood
p10784
g22
sVambiance
p10785
g22
ssVcrust
p10786
(dp10787
g10785
g22
ssVdelicious
p10788
(dp10789
g10784
g8
sg10785
g8
sssS'693'
p10790
(dp10791
Vservice
p10792
(dp10793
Vservice
p10794
g8
sssS'443'
p10795
(dp10796
sS'442'
p10797
(dp10798
sS'441'
p10799
(dp10800
Vservice
p10801
(dp10802
Vservice
p10803
g8
sssS'440'
p10804
(dp10805
sS'447'
p10806
(dp10807
sS'1330'
p10808
(dp10809
VIt
p10810
(dp10811
Vfood
p10812
g8
ssVpathetic
p10813
(dp10814
g10812
g8
sssS'445'
p10815
(dp10816
Vpriced
p10817
(dp10818
Vprice
p10819
g8
sVservice
p10820
g8
ssVmore
p10821
(dp10822
g10820
g8
sssS'444'
p10823
(dp10824
VPatsy
p10825
(dp10826
Vservice
p10827
g8
sssS'1545'
p10828
(dp10829
Vlot
p10830
(dp10831
Vambiance
p10832
g8
sssS'696'
p10833
(dp10834
Vfood
p10835
(dp10836
Vfood
p10837
g22
sssS'1631'
p10838
(dp10839
Vlist
p10840
(dp10841
Vprice
p10842
g22
sssS'697'
p10843
(dp10844
Vrestaurant
p10845
(dp10846
Vfood
p10847
g22
sVservice
p10848
g22
ssVSaul
p10849
(dp10850
g10847
g8
sssS'1933'
p10851
(dp10852
Vdinner
p10853
(dp10854
Vfood
p10855
g22
sssS'39'
p10856
(dp10857
Vorder
p10858
(dp10859
Vatmosphere
p10860
g22
sVservice
p10861
g22
ssVwaitress
p10862
(dp10863
g10861
g22
sssS'38'
p10864
(dp10865
sS'1540'
p10866
(dp10867
sS'1932'
p10868
(dp10869
Vrestaurant
p10870
(dp10871
Vservice
p10872
g22
sssS'30'
p10873
(dp10874
Vbartender
p10875
(dp10876
Vservice
p10877
g22
sssS'37'
p10878
(dp10879
Vmember
p10880
(dp10881
Vmilitary_service
p10882
g22
sssS'36'
p10883
(dp10884
sS'35'
p10885
(dp10886
sS'34'
p10887
(dp10888
sS'1537'
p10889
(dp10890
Vexperience
p10891
(dp10892
Vfood
p10893
g22
sssS'1240'
p10894
(dp10895
Vcook
p10896
(dp10897
Vservice
p10898
g22
ssVworks
p10899
(dp10900
g10898
g8
sssS'1535'
p10901
(dp10902
sS'1534'
p10903
(dp10904
sS'645'
p10905
(dp10906
sS'1244'
p10907
(dp10908
Vdrink
p10909
(dp10910
Vfood
p10911
g8
sVambiance
p10912
g8
ssVLafayette
p10913
(dp10914
g10912
g8
ssVAngel
p10915
(dp10916
g10911
g8
sg10912
g8
sssS'647'
p10917
(dp10918
Vfood
p10919
(dp10920
Vfood
p10921
g22
sssS'646'
p10922
(dp10923
sS'649'
p10924
(dp10925
sS'648'
p10926
(dp10927
sS'3098'
p10928
(dp10929
Vdrinks
p10930
(dp10931
Vfood
p10932
g8
sssS'1539'
p10933
(dp10934
sS'1538'
p10935
(dp10936
Vsandwich
p10937
(dp10938
Vfood
p10939
g22
sssS'339'
p10940
(dp10941
Vsushi
p10942
(dp10943
Vfood
p10944
g22
sssS'338'
p10945
(dp10946
Vsoup
p10947
(dp10948
Vfood
p10949
g22
sssS'335'
p10950
(dp10951
sS'334'
p10952
(dp10953
Vfood
p10954
(dp10955
Vfood
p10956
g22
ssVwas
p10957
(dp10958
g10956
g8
sVambiance
p10959
g8
sVservice
p10960
g8
ssVservice
p10961
(dp10962
g10956
g8
sg10960
g8
sssS'337'
p10963
(dp10964
sS'336'
p10965
(dp10966
sS'331'
p10967
(dp10968
Vfriend
p10969
(dp10970
Vservice
p10971
g22
sssS'330'
p10972
(dp10973
sS'333'
p10974
(dp10975
VBoy
p10976
(dp10977
Vservice
p10978
g8
ssVwas
p10979
(dp10980
Vambiance
p10981
g8
sg10978
g8
sssS'332'
p10982
(dp10983
g87
(dp10984
Vfood
p10985
g8
ssVskeptical
p10986
(dp10987
g10985
g8
sssS'2061'
p10988
(dp10989
sS'1633'
p10990
(dp10991
sS'543'
p10992
(dp10993
sS'1901'
p10994
(dp10995
Vpeople
p10996
(dp10997
Vmilitary_service
p10998
g8
sssS'3467'
p10999
(dp11000
Vfood
p11001
(dp11002
Vfood
p11003
g22
sssS'3464'
p11004
(dp11005
sS'1085'
p11006
(dp11007
sS'8'
p11008
(dp11009
Vservice
p11010
(dp11011
Vservice
p11012
g8
sssS'3463'
p11013
(dp11014
sS'1496'
p11015
(dp11016
sS'842'
p11017
(dp11018
VService
p11019
(dp11020
Vservice
p11021
g8
sssS'1466'
p11022
(dp11023
Vconversation
p11024
(dp11025
Vfood
p11026
g22
sVprice
p11027
g22
sVservice
p11028
g22
ssVattorney
p11029
(dp11030
g11028
g22
ssVside
p11031
(dp11032
g11026
g22
sg11028
g22
sssS'841'
p11033
(dp11034
sS'840'
p11035
(dp11036
VFood
p11037
(dp11038
Vfood
p11039
g8
sssS'3375'
p11040
(dp11041
sS'2854'
p11042
(dp11043
Vreminded
p11044
(dp11045
Vfood
p11046
g8
sVprice
p11047
g8
sVservice
p11048
g8
ssVintegral
p11049
(dp11050
g11046
g8
sg11048
g8
ssVservice
p11051
(dp11052
g11048
g8
sssS'3638'
p11053
(dp11054
Vcheese
p11055
(dp11056
Vfood
p11057
g22
ssVfigured
p11058
(dp11059
g11057
g8
sVprice
p11060
g8
ssVPizza
p11061
(dp11062
g11057
g8
ssVlunch
p11063
(dp11064
g11057
g22
ssVpizza
p11065
(dp11066
g11057
g22
sssS'3639'
p11067
(dp11068
sS'3636'
p11069
(dp11070
Vwere
p11071
(dp11072
Vprice
p11073
g8
sssS'3637'
p11074
(dp11075
Vlooked
p11076
(dp11077
Vatmosphere
p11078
g8
sVprice
p11079
g8
ssVplace
p11080
(dp11081
g11078
g22
sssS'3634'
p11082
(dp11083
sS'3635'
p11084
(dp11085
sS'3632'
p11086
(dp11087
sS'3633'
p11088
(dp11089
Vtreat
p11090
(dp11091
Vfood
p11092
g8
sVservice
p11093
g8
ssVservice
p11094
(dp11095
g11093
g8
sssS'3630'
p11096
(dp11097
sS'3631'
p11098
(dp11099
Vstyles
p11100
(dp11101
Vprice
p11102
g22
sssS'849'
p11103
(dp11104
sS'848'
p11105
(dp11106
sS'2347'
p11107
(dp11108
sS'2341'
p11109
(dp11110
sS'2349'
p11111
(dp11112
sS'2348'
p11113
(dp11114
sS'2469'
p11115
(dp11116
Vglass
p11117
(dp11118
Vservice
p11119
g22
ssVhad
p11120
(dp11121
Vserve
p11122
g8
sg11119
g8
sssS'2987'
p11123
(dp11124
Vfood
p11125
(dp11126
Vfood
p11127
g22
sssS'2067'
p11128
(dp11129
VDecor
p11130
(dp11131
Vservice
p11132
g8
ssVservice
p11133
(dp11134
g11132
g8
sssS'3708'
p11135
(dp11136
sS'3709'
p11137
(dp11138
Vshrimp
p11139
(dp11140
Vfood
p11141
g22
sssS'1889'
p11142
(dp11143
sS'1888'
p11144
(dp11145
VPastis
p11146
(dp11147
Vfood
p11148
g8
sssS'1887'
p11149
(dp11150
Vtables
p11151
(dp11152
Vfood
p11153
g8
sssS'3703'
p11154
(dp11155
Vcheese
p11156
(dp11157
Vfood
p11158
g38
sssS'3700'
p11159
(dp11160
Vliked
p11161
(dp11162
Vfood
p11163
g8
sVprice
p11164
g8
ssVlocals
p11165
(dp11166
g11163
g8
sssS'1884'
p11167
(dp11168
Vmenu
p11169
(dp11170
Vfood
p11171
g22
sssS'3706'
p11172
(dp11173
sS'3707'
p11174
(dp11175
sS'3704'
p11176
(dp11177
sS'3705'
p11178
(dp11179
sS'2121'
p11180
(dp11181
VIndoor
p11182
(dp11183
Vfood
p11184
g8
ssVcozy
p11185
(dp11186
g11184
g8
sVservice
p11187
g8
sssS'2120'
p11188
(dp11189
sS'2123'
p11190
(dp11191
sS'2122'
p11192
(dp11193
Vhuge
p11194
(dp11195
Vfood
p11196
g8
sVatmosphere
p11197
g8
ssVsushi
p11198
(dp11199
g11196
g22
sg11197
g22
ssVsizes
p11200
(dp11201
g11197
g22
sssS'2125'
p11202
(dp11203
Vsushi
p11204
(dp11205
Vfood
p11206
g8
sssS'2124'
p11207
(dp11208
VStaff
p11209
(dp11210
Vmilitary_service
p11211
g8
sssS'948'
p11212
(dp11213
Vit
p11214
(dp11215
Vfood
p11216
g8
sssS'949'
p11217
(dp11218
Vwine
p11219
(dp11220
Vfood
p11221
g22
sssS'946'
p11222
(dp11223
Vdesserts
p11224
(dp11225
Vfood
p11226
g8
sssS'2128'
p11227
(dp11228
Vsushi
p11229
(dp11230
Vfood
p11231
g38
sVmonetary_value
p11232
g38
ssVvalue
p11233
(dp11234
g11232
g22
sssS'944'
p11235
(dp11236
g87
(dp11237
Vfood
p11238
g8
ssVwent
p11239
(dp11240
g11238
g8
sVprice
p11241
g8
sssS'1457'
p11242
(dp11243
sS'942'
p11244
(dp11245
Vprices
p11246
(dp11247
Vmonetary_value
p11248
g8
ssVlow
p11249
(dp11250
g11248
g8
sVservice
p11251
g8
sssS'943'
p11252
(dp11253
sS'940'
p11254
(dp11255
sS'941'
p11256
(dp11257
Vservice
p11258
(dp11259
Vservice
p11260
g8
ssVexcellent
p11261
(dp11262
Vfood
p11263
g8
sg11260
g8
sssS'3038'
p11264
(dp11265
VStaffs
p11266
(dp11267
Vmilitary_service
p11268
g8
ssVfriendly
p11269
(dp11270
g11268
g8
sssS'1594'
p11271
(dp11272
Vfood
p11273
(dp11274
Vfood
p11275
g22
ssVgood
p11276
(dp11277
g11275
g8
sVprice
p11278
g8
sssS'642'
p11279
(dp11280
sS'2653'
p11281
(dp11282
Vprices
p11283
(dp11284
Vmonetary_value
p11285
g22
sssS'2652'
p11286
(dp11287
Vlights
p11288
(dp11289
Vatmosphere
p11290
g8
ssVputting
p11291
(dp11292
g11290
g8
sVserve
p11293
g8
sVservice
p11294
g8
ssVrestaurant
p11295
(dp11296
g11290
g22
sg11294
g22
sssS'2651'
p11297
(dp11298
sS'2650'
p11299
(dp11300
Vdining
p11301
(dp11302
Vservicing
p11303
g22
sssS'2657'
p11304
(dp11305
sS'2656'
p11306
(dp11307
sS'2655'
p11308
(dp11309
sS'2654'
p11310
(dp11311
sS'133'
p11312
(dp11313
Vatmosphere
p11314
(dp11315
Vatmosphere
p11316
g22
sssS'132'
p11317
(dp11318
sS'3414'
p11319
(dp11320
sS'130'
p11321
(dp11322
Vservice
p11323
(dp11324
Vservice
p11325
g8
sssS'137'
p11326
(dp11327
Vplace
p11328
(dp11329
Vatmosphere
p11330
g22
ssVcrowded
p11331
(dp11332
g11330
g8
sVprice
p11333
g8
sssS'136'
p11334
(dp11335
Vtakeout
p11336
(dp11337
Vfood
p11338
g22
ssVgreat
p11339
(dp11340
g11338
g8
sVservice
p11341
g8
sssS'3410'
p11342
(dp11343
sS'134'
p11344
(dp11345
Vfood
p11346
(dp11347
Vfood
p11348
g22
ssVprepared
p11349
(dp11350
g11348
g8
sVprice
p11351
g8
sssS'1931'
p11352
(dp11353
Vwaiter
p11354
(dp11355
Vservice
p11356
g38
sssS'139'
p11357
(dp11358
Vservice
p11359
(dp11360
Vservice
p11361
g22
sssS'138'
p11362
(dp11363
sS'3418'
p11364
(dp11365
Vnumber
p11366
(dp11367
Vservice
p11368
g22
ssVselections
p11369
(dp11370
g11368
g8
sssS'3419'
p11371
(dp11372
Vcuisine
p11373
(dp11374
Voverhaul
p11375
g22
ssVis
p11376
(dp11377
Vprice
p11378
g8
sg11375
g8
sssS'2019'
p11379
(dp11380
sS'2018'
p11381
(dp11382
g87
(dp11383
Vfood
p11384
g8
ssVfull
p11385
(dp11386
g11384
g8
sVprice
p11387
g8
sssS'2015'
p11388
(dp11389
Vdinner
p11390
(dp11391
Vfood
p11392
g22
sssS'2017'
p11393
(dp11394
sS'2016'
p11395
(dp11396
Vblend
p11397
(dp11398
Vservice
p11399
g8
sssS'2011'
p11400
(dp11401
Vchoices
p11402
(dp11403
Vservice
p11404
g22
sssS'2010'
p11405
(dp11406
Vdinner
p11407
(dp11408
Vfood
p11409
g22
sssS'2012'
p11410
(dp11411
sS'2926'
p11412
(dp11413
Veat
p11414
(dp11415
Vprice
p11416
g8
sssS'183'
p11417
(dp11418
Vnice
p11419
(dp11420
Vambiance
p11421
g8
sssS'3562'
p11422
(dp11423
sS'3563'
p11424
(dp11425
sS'3561'
p11426
(dp11427
sS'3566'
p11428
(dp11429
Vline
p11430
(dp11431
Vservice
p11432
g22
ssVwas
p11433
(dp11434
Vambiance
p11435
g8
sg11432
g8
sssS'3567'
p11436
(dp11437
Vfritter
p11438
(dp11439
Vfood
p11440
g8
sssS'3564'
p11441
(dp11442
sS'3565'
p11443
(dp11444
Vwindows
p11445
(dp11446
Vatmosphere
p11447
g22
sVservice
p11448
g22
ssVstreet
p11449
(dp11450
g11447
g22
sssS'1590'
p11451
(dp11452
Vtime
p11453
(dp11454
Vatmosphere
p11455
g8
sssS'2903'
p11456
(dp11457
Vfood
p11458
(dp11459
Vfood
p11460
g22
sssS'2902'
p11461
(dp11462
sS'2901'
p11463
(dp11464
VSapphire
p11465
(dp11466
Vfood
p11467
g8
sssS'2900'
p11468
(dp11469
Vdessert
p11470
(dp11471
Vfood
p11472
g22
ssVbeverages
p11473
(dp11474
g11472
g8
ssVexcellent
p11475
(dp11476
g11472
g8
sssS'2907'
p11477
(dp11478
Vservice
p11479
(dp11480
Vservice
p11481
g8
sssS'709'
p11482
(dp11483
Vprices
p11484
(dp11485
Vmonetary_value
p11486
g8
ssVaffordable
p11487
(dp11488
Vfood
p11489
g8
sg11486
g8
ssVgood
p11490
(dp11491
g11489
g8
sVprice
p11492
g8
sg11486
g8
ssVfood
p11493
(dp11494
g11489
g22
sg11486
g22
ssVbetter
p11495
(dp11496
g11489
g8
sg11492
g8
sg11486
g8
sssS'2905'
p11497
(dp11498
sS'3035'
p11499
(dp11500
Vrestaurant
p11501
(dp11502
Vfood
p11503
g22
sVservice
p11504
g22
ssVit
p11505
(dp11506
g11503
g8
ssVtitle
p11507
(dp11508
g11503
g22
sssS'704'
p11509
(dp11510
Vprices
p11511
(dp11512
Vmonetary_value
p11513
g8
ssVfabulous
p11514
(dp11515
Vfood
p11516
g8
sg11513
g8
ssVcheap
p11517
(dp11518
g11516
g8
sg11513
g8
ssVit
p11519
(dp11520
g11516
g8
sg11513
g8
sssS'705'
p11521
(dp11522
VGREAT
p11523
(dp11524
Vfood
p11525
g8
sVservice
p11526
g8
ssVportions
p11527
(dp11528
g11525
g8
sVatmosphere
p11529
g8
sg11526
g8
ssVfood
p11530
(dp11531
g11525
g22
sg11529
g22
sg11526
g22
ssVcheap
p11532
(dp11533
g11525
g8
sg11526
g8
ssVIT
p11534
(dp11535
g11525
g8
ssVit
p11536
(dp11537
g11525
g8
sg11526
g8
ssVNOT
p11538
(dp11539
g11525
g8
sg11529
g8
sg11526
g8
ssVsmall
p11540
(dp11541
g11525
g8
sg11529
g8
sg11526
g8
ssVmean
p11542
(dp11543
g11525
g8
sg11529
g8
sg11526
g8
sssS'2909'
p11544
(dp11545
Vdessert
p11546
(dp11547
Vfood
p11548
g8
sssS'2908'
p11549
(dp11550
sS'700'
p11551
(dp11552
sS'701'
p11553
(dp11554
VThai
p11555
(dp11556
Vservice
p11557
g8
sssS'702'
p11558
(dp11559
Vfood
p11560
(dp11561
Vfood
p11562
g22
sssS'703'
p11563
(dp11564
Vrestaurant
p11565
(dp11566
Vservice
p11567
g22
sssS'89'
p11568
(dp11569
Vfood
p11570
(dp11571
Vfood
p11572
g22
ssVbetter
p11573
(dp11574
g11572
g8
sVprice
p11575
g8
ssVunimposing
p11576
(dp11577
g11572
g8
sg11575
g8
sVservice
p11578
g8
ssVservice
p11579
(dp11580
g11572
g8
sg11575
g8
sg11578
g8
sssS'1593'
p11581
(dp11582
sS'82'
p11583
(dp11584
sS'83'
p11585
(dp11586
sS'80'
p11587
(dp11588
VPLACE
p11589
(dp11590
Vatmosphere
p11591
g8
sssS'81'
p11592
(dp11593
Vguys
p11594
(dp11595
Vservice
p11596
g22
sssS'87'
p11597
(dp11598
sS'84'
p11599
(dp11600
Vdate
p11601
(dp11602
Vfood
p11603
g22
sssS'85'
p11604
(dp11605
Vcake
p11606
(dp11607
Vfood
p11608
g8
sssS'1743'
p11609
(dp11610
Vmozzarella
p11611
(dp11612
Vfood
p11613
g22
ssVpizza
p11614
(dp11615
g11613
g22
sssS'1659'
p11616
(dp11617
sS'1652'
p11618
(dp11619
Vservice
p11620
(dp11621
Vservice
p11622
g22
sssS'1653'
p11623
(dp11624
sS'1650'
p11625
(dp11626
Vdraw
p11627
(dp11628
Vserve
p11629
g8
sssS'1651'
p11630
(dp11631
Vcatch
p11632
(dp11633
Vservice
p11634
g22
sssS'1656'
p11635
(dp11636
Vtuna
p11637
(dp11638
Vfood
p11639
g22
sssS'1654'
p11640
(dp11641
sS'1655'
p11642
(dp11643
sS'586'
p11644
(dp11645
sS'3214'
p11646
(dp11647
sS'584'
p11648
(dp11649
Vservice
p11650
(dp11651
Vservice
p11652
g8
sssS'585'
p11653
(dp11654
Vtable
p11655
(dp11656
Vfood
p11657
g8
sssS'582'
p11658
(dp11659
sS'583'
p11660
(dp11661
sS'580'
p11662
(dp11663
Vconcluded
p11664
(dp11665
Vprice
p11666
g8
sssS'581'
p11667
(dp11668
sS'3216'
p11669
(dp11670
Vfresh
p11671
(dp11672
Vfood
p11673
g8
sVprice
p11674
g8
ssVfish
p11675
(dp11676
g11673
g8
sg11674
g8
ssVrice
p11677
(dp11678
g11673
g22
ssVtasted
p11679
(dp11680
g11673
g8
sg11674
g8
sssS'588'
p11681
(dp11682
Vfood
p11683
(dp11684
Vfood
p11685
g22
ssVcool
p11686
(dp11687
g11685
g8
sVatmosphere
p11688
g8
ssVexperience
p11689
(dp11690
g11685
g22
ssVexcellent
p11691
(dp11692
g11685
g8
sssS'589'
p11693
(dp11694
Vfeel
p11695
(dp11696
Vatmosphere
p11697
g8
sssS'3150'
p11698
(dp11699
VFood
p11700
(dp11701
Vfood
p11702
g8
ssVokay
p11703
(dp11704
g11702
g8
sVprice
p11705
g8
sssS'3157'
p11706
(dp11707
Vbagel
p11708
(dp11709
Vfood
p11710
g38
ssVcheese
p11711
(dp11712
g11710
g22
sssS'3156'
p11713
(dp11714
sS'3155'
p11715
(dp11716
Vefficient
p11717
(dp11718
Vfood
p11719
g8
sssS'3154'
p11720
(dp11721
sS'1982'
p11722
(dp11723
sS'2835'
p11724
(dp11725
Vplace
p11726
(dp11727
Vatmosphere
p11728
g22
sssS'2834'
p11729
(dp11730
sS'2833'
p11731
(dp11732
sS'2832'
p11733
(dp11734
Vfood
p11735
(dp11736
Vfood
p11737
g22
ssVprofessional
p11738
(dp11739
g11737
g8
sVservice
p11740
g8
ssVtasty
p11741
(dp11742
g11737
g8
ssVservice
p11743
(dp11744
g11737
g8
sg11740
g8
sssS'2831'
p11745
(dp11746
sS'2830'
p11747
(dp11748
sS'1436'
p11749
(dp11750
Vsource
p11751
(dp11752
Vfood
p11753
g22
sssS'1437'
p11754
(dp11755
Vspicy
p11756
(dp11757
Vfood
p11758
g8
ssVmean
p11759
(dp11760
g11758
g8
sssS'3393'
p11761
(dp11762
sS'1435'
p11763
(dp11764
Vprice
p11765
(dp11766
Vmonetary_value
p11767
g8
ssVQuality
p11768
(dp11769
Vprice
p11770
g22
sg11767
g22
ssVexcellent
p11771
(dp11772
Vfood
p11773
g8
sg11770
g8
sg11767
g8
sssS'1432'
p11774
(dp11775
sS'1433'
p11776
(dp11777
Vchain
p11778
(dp11779
Vmilitary_service
p11780
g22
sssS'1430'
p11781
(dp11782
Vplace
p11783
(dp11784
Vatmosphere
p11785
g22
sssS'3396'
p11786
(dp11787
sS'418'
p11788
(dp11789
Vminutes
p11790
(dp11791
Vprice
p11792
g22
sssS'3213'
p11793
(dp11794
sS'1438'
p11795
(dp11796
Vfood
p11797
(dp11798
Vfood
p11799
g22
sssS'1439'
p11800
(dp11801
Vsection
p11802
(dp11803
Vfood
p11804
g22
sssS'1349'
p11805
(dp11806
Vevening
p11807
(dp11808
Vfood
p11809
g22
ssVfriends
p11810
(dp11811
g11809
g8
sVservice
p11812
g8
sssS'458'
p11813
(dp11814
Vrestaurant
p11815
(dp11816
Vservice
p11817
g22
sssS'459'
p11818
(dp11819
sS'450'
p11820
(dp11821
Vtender
p11822
(dp11823
Vfood
p11824
g22
sVprice
p11825
g22
ssVeggplant
p11826
(dp11827
g11824
g22
sssS'451'
p11828
(dp11829
Vtiramisu
p11830
(dp11831
Vfood
p11832
g8
ssVslice
p11833
(dp11834
g11832
g22
sVserve
p11835
g22
sssS'452'
p11836
(dp11837
Vslow
p11838
(dp11839
Vprice
p11840
g8
sVservice
p11841
g8
ssVWaiters
p11842
(dp11843
g11841
g8
sssS'1343'
p11844
(dp11845
sS'454'
p11846
(dp11847
sS'1345'
p11848
(dp11849
Vcodfish
p11850
(dp11851
Vfood
p11852
g22
sssS'1346'
p11853
(dp11854
Vingredients
p11855
(dp11856
Vfood
p11857
g22
sssS'457'
p11858
(dp11859
sS'3702'
p11860
(dp11861
Vcheese
p11862
(dp11863
Vfood
p11864
g22
ssVwas
p11865
(dp11866
g11864
g8
sVambiance
p11867
g8
sssS'1082'
p11868
(dp11869
Vchalk
p11870
(dp11871
Vfood
p11872
g22
sVservicing
p11873
g22
ssVhead
p11874
(dp11875
g11873
g22
sssS'1885'
p11876
(dp11877
sS'766'
p11878
(dp11879
Vsum
p11880
(dp11881
Vfood
p11882
g22
ssVgood
p11883
(dp11884
g11882
g8
sVprice
p11885
g8
sssS'517'
p11886
(dp11887
Vpage
p11888
(dp11889
Vservice
p11890
g22
sssS'3701'
p11891
(dp11892
Vis
p11893
(dp11894
Vfood
p11895
g8
sVprice
p11896
g8
ssVgood
p11897
(dp11898
g11896
g8
ssVvariety
p11899
(dp11900
g11895
g38
sg11896
g38
sssS'3368'
p11901
(dp11902
sS'1883'
p11903
(dp11904
sS'832'
p11905
(dp11906
sS'1882'
p11907
(dp11908
sS'656'
p11909
(dp11910
sS'657'
p11911
(dp11912
sS'654'
p11913
(dp11914
sS'655'
p11915
(dp11916
sS'652'
p11917
(dp11918
sS'653'
p11919
(dp11920
sS'650'
p11921
(dp11922
Vis
p11923
(dp11924
Vprice
p11925
g8
sssS'651'
p11926
(dp11927
Vexcellent
p11928
(dp11929
Vfood
p11930
g8
ssVscampi
p11931
(dp11932
g11930
g22
sssS'3085'
p11933
(dp11934
Vmention
p11935
(dp11936
Vfood
p11937
g8
sVatmosphere
p11938
g8
sVprice
p11939
g8
ssVlarger
p11940
(dp11941
g11937
g8
sg11938
g8
ssVplace
p11942
(dp11943
g11938
g22
sssS'3084'
p11944
(dp11945
sS'3087'
p11946
(dp11947
Vdrinks
p11948
(dp11949
Vfood
p11950
g22
sssS'3086'
p11951
(dp11952
Vhangout
p11953
(dp11954
Vatmosphere
p11955
g22
sVambiance
p11956
g22
ssVplace
p11957
(dp11958
g11955
g22
ssVdrinks
p11959
(dp11960
Vfood
p11961
g8
sg11955
g8
sg11956
g8
sssS'3081'
p11962
(dp11963
Vshrimp
p11964
(dp11965
Vfood
p11966
g22
sssS'3080'
p11967
(dp11968
Vfood
p11969
(dp11970
Vfood
p11971
g22
sssS'3083'
p11972
(dp11973
Vstaff
p11974
(dp11975
Vmilitary_service
p11976
g22
sssS'3082'
p11977
(dp11978
Vit
p11979
(dp11980
Vfood
p11981
g8
ssVopened
p11982
(dp11983
g11981
g8
sVprice
p11984
g8
sssS'1886'
p11985
(dp11986
Vservice
p11987
(dp11988
Vservice
p11989
g8
sssS'314'
p11990
(dp11991
Vquality
p11992
(dp11993
Vprice
p11994
g38
sssS'1992'
p11995
(dp11996
sS'2127'
p11997
(dp11998
Vrolls
p11999
(dp12000
Vfood
p12001
g22
sssS'2126'
p12002
(dp12003
sS'2129'
p12004
(dp12005
sS'947'
p12006
(dp12007
Vsit
p12008
(dp12009
Vprice
p12010
g8
sssS'945'
p12011
(dp12012
Vcafe
p12013
(dp12014
Vservice
p12015
g22
ssVservice
p12016
(dp12017
g12015
g8
sssS'54'
p12018
(dp12019
VBrewery
p12020
(dp12021
Vservice
p12022
g8
sssS'188'
p12023
(dp12024
Vservice
p12025
(dp12026
Vservice
p12027
g8
sssS'1081'
p12028
(dp12029
sS'322'
p12030
(dp12031
sS'323'
p12032
(dp12033
sS'321'
p12034
(dp12035
Vthings
p12036
(dp12037
Vfood
p12038
g22
sssS'327'
p12039
(dp12040
Videa
p12041
(dp12042
Vfood
p12043
g22
sssS'324'
p12044
(dp12045
sS'328'
p12046
(dp12047
g87
(dp12048
Vfood
p12049
g8
sVprice
p12050
g8
ssVended
p12051
(dp12052
g12049
g8
sg12050
g8
ssVgreat
p12053
(dp12054
g12049
g8
sg12050
g8
sVservice
p12055
g8
ssVit
p12056
(dp12057
g12049
g8
sg12050
g8
sg12055
g8
ssVglad
p12058
(dp12059
g12049
g8
sg12050
g8
sg12055
g8
sssS'329'
p12060
(dp12061
Vprice
p12062
(dp12063
Vmonetary_value
p12064
g22
ssVService
p12065
(dp12066
g12064
g8
sVservice
p12067
g8
sssS'3629'
p12068
(dp12069
VIt
p12070
(dp12071
Vfood
p12072
g8
ssVpizza
p12073
(dp12074
g12072
g22
sssS'3628'
p12075
(dp12076
Vit
p12077
(dp12078
Vfood
p12079
g8
sssS'3621'
p12080
(dp12081
Vfood
p12082
(dp12083
Vfood
p12084
g22
sVambiance
p12085
g22
ssVdiamond
p12086
(dp12087
g12084
g22
sg12085
g22
sssS'564'
p12088
(dp12089
Vtable
p12090
(dp12091
Vfood
p12092
g38
sssS'3623'
p12093
(dp12094
sS'3622'
p12095
(dp12096
sS'3625'
p12097
(dp12098
sS'3624'
p12099
(dp12100
sS'1340'
p12101
(dp12102
VDecor
p12103
(dp12104
Vservice
p12105
g8
sssS'3626'
p12106
(dp12107
sS'1881'
p12108
(dp12109
sS'2330'
p12110
(dp12111
sS'3070'
p12112
(dp12113
sS'2332'
p12114
(dp12115
Vfood
p12116
(dp12117
Vfood
p12118
g22
ssVreasonable
p12119
(dp12120
g12118
g8
sssS'2333'
p12121
(dp12122
sS'2334'
p12123
(dp12124
Vprices
p12125
(dp12126
Vmonetary_value
p12127
g8
ssVmenu
p12128
(dp12129
Vfood
p12130
g22
sg12127
g22
sssS'2335'
p12131
(dp12132
VPrices
p12133
(dp12134
Vfood
p12135
g8
sVmonetary_value
p12136
g8
ssVmarsala
p12137
(dp12138
g12135
g22
ssVdine
p12139
(dp12140
g12135
g8
sVprice
p12141
g8
sg12136
g8
sssS'2336'
p12142
(dp12143
VAmbiance
p12144
(dp12145
Vatmosphere
p12146
g8
ssVromantic
p12147
(dp12148
g12146
g8
sVservice
p12149
g8
sssS'2337'
p12150
(dp12151
Vlunch
p12152
(dp12153
Vfood
p12154
g22
sssS'2338'
p12155
(dp12156
sS'1341'
p12157
(dp12158
Vfriendly
p12159
(dp12160
Vmilitary_service
p12161
g8
sVservice
p12162
g8
ssVService
p12163
(dp12164
g12162
g8
sssS'3072'
p12165
(dp12166
Vprompt
p12167
(dp12168
Vservice
p12169
g8
ssVService
p12170
(dp12171
g12169
g8
sssS'2537'
p12172
(dp12173
sS'3073'
p12174
(dp12175
VFood
p12176
(dp12177
Vfood
p12178
g8
sssS'1880'
p12179
(dp12180
Vplace
p12181
(dp12182
Vfood
p12183
g22
sVatmosphere
p12184
g22
ssVexperience
p12185
(dp12186
g12183
g8
sssS'1591'
p12187
(dp12188
sS'2959'
p12189
(dp12190
sS'3710'
p12191
(dp12192
Vdeli
p12193
(dp12194
Vservice
p12195
g8
sssS'3077'
p12196
(dp12197
sS'3078'
p12198
(dp12199
sS'3079'
p12200
(dp12201
sS'2488'
p12202
(dp12203
sS'2486'
p12204
(dp12205
Vunbearable
p12206
(dp12207
Vfood
p12208
g8
sVatmosphere
p12209
g8
ssVlevel
p12210
(dp12211
g12209
g22
sssS'2487'
p12212
(dp12213
sS'2484'
p12214
(dp12215
g87
(dp12216
Vfood
p12217
g8
ssVreturned
p12218
(dp12219
g12217
g8
sVprice
p12220
g8
sssS'2485'
p12221
(dp12222
Vdish
p12223
(dp12224
Vfood
p12225
g22
sVatmosphere
p12226
g22
sVservice
p12227
g22
ssVsalty
p12228
(dp12229
g12225
g8
sg12226
g8
sg12227
g8
ssVflavor
p12230
(dp12231
g12225
g8
sg12226
g8
sg12227
g8
ssVsmaller
p12232
(dp12233
g12225
g8
sg12226
g8
ssVportions
p12234
(dp12235
g12226
g8
sssS'2482'
p12236
(dp12237
Vliked
p12238
(dp12239
Vprice
p12240
g8
sssS'2483'
p12241
(dp12242
Vmeal
p12243
(dp12244
Vfood
p12245
g8
sssS'3252'
p12246
(dp12247
VWalk-ins
p12248
(dp12249
Vservice
p12250
g8
ssVrisky
p12251
(dp12252
Vfood
p12253
g8
sg12250
g8
sssS'2248'
p12254
(dp12255
Vrecommendation
p12256
(dp12257
Vprice
p12258
g22
sssS'2249'
p12259
(dp12260
sS'2244'
p12261
(dp12262
Vjuice
p12263
(dp12264
Vfood
p12265
g22
ssVnoodles
p12266
(dp12267
g12265
g8
sssS'2245'
p12268
(dp12269
sS'2246'
p12270
(dp12271
sS'2247'
p12272
(dp12273
Voutside
p12274
(dp12275
Vambiance
p12276
g22
ssVterrace
p12277
(dp12278
g12276
g38
sVservice
p12279
g38
sssS'2240'
p12280
(dp12281
Vfood
p12282
(dp12283
Vfood
p12284
g22
sVservice
p12285
g22
ssVservice
p12286
(dp12287
g12285
g8
sssS'2241'
p12288
(dp12289
sS'2242'
p12290
(dp12291
g87
(dp12292
Vfood
p12293
g8
sVatmosphere
p12294
g8
ssVplace
p12295
(dp12296
g12294
g22
ssVtake
p12297
(dp12298
g12293
g8
sg12294
g8
sVservice
p12299
g8
sssS'2243'
p12300
(dp12301
Vstudents
p12302
(dp12303
Vservice
p12304
g8
ssVprices
p12305
(dp12306
Vprice
p12307
g8
sVmonetary_value
p12308
g8
sg12304
g8
ssVnear
p12309
(dp12310
g12307
g8
sg12304
g8
ssVCollege
p12311
(dp12312
g12304
g8
ssVlocation
p12313
(dp12314
g12304
g22
ssVreasonable
p12315
(dp12316
Vfood
p12317
g8
sg12307
g8
sg12308
g8
sg12304
g8
ssVgo
p12318
(dp12319
g12304
g8
sssS'2464'
p12320
(dp12321
sS'994'
p12322
(dp12323
VPrices
p12324
(dp12325
Vmonetary_value
p12326
g8
ssVgood
p12327
(dp12328
Vprice
p12329
g8
sg12326
g8
sssS'2466'
p12330
(dp12331
sS'2467'
p12332
(dp12333
sS'2460'
p12334
(dp12335
sS'990'
p12336
(dp12337
sS'993'
p12338
(dp12339
Vsetting
p12340
(dp12341
Vservice
p12342
g22
ssVcasual
p12343
(dp12344
Vfood
p12345
g8
sg12342
g8
sssS'2463'
p12346
(dp12347
sS'999'
p12348
(dp12349
sS'998'
p12350
(dp12351
sS'120'
p12352
(dp12353
Vworld
p12354
(dp12355
Vfood
p12356
g22
sssS'3253'
p12357
(dp12358
sS'122'
p12359
(dp12360
sS'123'
p12361
(dp12362
sS'3405'
p12363
(dp12364
Vtouch
p12365
(dp12366
Vservice
p12367
g22
sssS'3404'
p12368
(dp12369
sS'126'
p12370
(dp12371
VSeating
p12372
(dp12373
Vservice
p12374
g8
sssS'127'
p12375
(dp12376
Vtaste
p12377
(dp12378
Vservice
p12379
g8
ssVdishes
p12380
(dp12381
g12379
g22
sssS'3409'
p12382
(dp12383
VGrill
p12384
(dp12385
Vservice
p12386
g8
sssS'3408'
p12387
(dp12388
sS'3379'
p12389
(dp12390
VSquare
p12391
(dp12392
Vambiance
p12393
g8
sssS'3417'
p12394
(dp12395
sS'1921'
p12396
(dp12397
Vfood
p12398
(dp12399
Vfood
p12400
g22
ssVsurprise
p12401
(dp12402
g12400
g8
sVservice
p12403
g8
sssS'3378'
p12404
(dp12405
Vwaiter
p12406
(dp12407
Vservice
p12408
g22
sssS'131'
p12409
(dp12410
VUps
p12411
(dp12412
Vprice
p12413
g8
sssS'2068'
p12414
(dp12415
sS'2069'
p12416
(dp12417
g87
(dp12418
Vfood
p12419
g8
ssVlive
p12420
(dp12421
g12419
g8
sVprice
p12422
g8
sssS'2798'
p12423
(dp12424
sS'2799'
p12425
(dp12426
sS'1187'
p12427
(dp12428
Vis
p12429
(dp12430
Vfood
p12431
g8
sVprice
p12432
g8
ssVit
p12433
(dp12434
g12431
g8
sssS'2792'
p12435
(dp12436
sS'3412'
p12437
(dp12438
sS'2062'
p12439
(dp12440
sS'2791'
p12441
(dp12442
Vspecial
p12443
(dp12444
Vfood
p12445
g22
sssS'2064'
p12446
(dp12447
Vsamosa
p12448
(dp12449
Vfood
p12450
g22
sssS'2797'
p12451
(dp12452
sS'2066'
p12453
(dp12454
sS'2795'
p12455
(dp12456
Vrange
p12457
(dp12458
Vambiance
p12459
g22
sssS'1185'
p12460
(dp12461
sS'135'
p12462
(dp12463
Vit
p12464
(dp12465
Vfood
p12466
g8
ssVare
p12467
(dp12468
g12466
g8
sVprice
p12469
g8
sVoverhaul
p12470
g8
ssVcomes
p12471
(dp12472
g12466
g8
ssVcongee
p12473
(dp12474
g12466
g22
sg12470
g22
sssS'1182'
p12475
(dp12476
Vfood
p12477
(dp12478
Vfood
p12479
g22
sssS'3411'
p12480
(dp12481
sS'1183'
p12482
(dp12483
Vsoup
p12484
(dp12485
Vfood
p12486
g22
ssVgood
p12487
(dp12488
g12486
g8
sVprice
p12489
g8
sssS'3371'
p12490
(dp12491
Vpasta
p12492
(dp12493
Vfood
p12494
g22
ssVdelicious
p12495
(dp12496
g12494
g8
sssS'1181'
p12497
(dp12498
Vplace
p12499
(dp12500
Vatmosphere
p12501
g22
ssVfind
p12502
(dp12503
g12501
g8
sVservice
p12504
g8
sssS'3579'
p12505
(dp12506
Vpiece
p12507
(dp12508
Vfood
p12509
g8
sVservice
p12510
g8
ssVpastries
p12511
(dp12512
g12509
g22
sssS'3578'
p12513
(dp12514
sS'3575'
p12515
(dp12516
sS'3574'
p12517
(dp12518
Veven
p12519
(dp12520
Vprice
p12521
g8
sssS'3577'
p12522
(dp12523
sS'3576'
p12524
(dp12525
sS'3571'
p12526
(dp12527
Vfood
p12528
(dp12529
Vfood
p12530
g22
sssS'3570'
p12531
(dp12532
Vpeople
p12533
(dp12534
Vmilitary_service
p12535
g22
sssS'3573'
p12536
(dp12537
sS'3572'
p12538
(dp12539
Vmoney
p12540
(dp12541
Vprice
p12542
g22
ssVguys
p12543
(dp12544
g12542
g8
sVservice
p12545
g8
ssVpaid
p12546
(dp12547
g12542
g8
sssS'2666'
p12548
(dp12549
Vcategory
p12550
(dp12551
Vfood
p12552
g22
sssS'2667'
p12553
(dp12554
VHalibut
p12555
(dp12556
Vfood
p12557
g8
sVservice
p12558
g8
ssVservice
p12559
(dp12560
g12558
g8
sssS'2664'
p12561
(dp12562
Veffort
p12563
(dp12564
Vservice
p12565
g22
ssVleast
p12566
(dp12567
Vatmosphere
p12568
g8
sg12565
g8
sssS'2665'
p12569
(dp12570
sS'2662'
p12571
(dp12572
sS'2663'
p12573
(dp12574
Vget
p12575
(dp12576
Vserve
p12577
g8
sssS'722'
p12578
(dp12579
Vambience
p12580
(dp12581
Vatmosphere
p12582
g22
ssVdark
p12583
(dp12584
Vfood
p12585
g8
sg12582
g8
ssVit
p12586
(dp12587
g12585
g8
sg12582
g8
sssS'2668'
p12588
(dp12589
Vwater
p12590
(dp12591
Vfood
p12592
g8
sssS'2669'
p12593
(dp12594
Vchance
p12595
(dp12596
Vprice
p12597
g8
sVservice
p12598
g8
ssVvisit
p12599
(dp12600
g12598
g8
ssVworse
p12601
(dp12602
g12597
g8
sg12598
g8
sssS'3668'
p12603
(dp12604
Vpresentation
p12605
(dp12606
Vservice
p12607
g22
sssS'2938'
p12608
(dp12609
Vservice
p12610
(dp12611
Vservice
p12612
g8
sssS'2939'
p12613
(dp12614
Vfood
p12615
(dp12616
Vfood
p12617
g22
sVservice
p12618
g22
ssVmediocre
p12619
(dp12620
g12617
g8
sg12618
g8
ssVexcellent
p12621
(dp12622
g12617
g8
sg12618
g8
ssVpricey
p12623
(dp12624
g12617
g8
sg12618
g8
ssVrestaurants
p12625
(dp12626
g12618
g8
sssS'2936'
p12627
(dp12628
Vbuds
p12629
(dp12630
Vservice
p12631
g22
sssS'3257'
p12632
(dp12633
Vis
p12634
(dp12635
Vatmosphere
p12636
g8
sVprice
p12637
g8
ssVfeeling
p12638
(dp12639
g12636
g8
sg12637
g8
ssVplace
p12640
(dp12641
g12636
g22
sssS'2934'
p12642
(dp12643
sS'2935'
p12644
(dp12645
Vnight
p12646
(dp12647
Vfood
p12648
g22
sssS'2932'
p12649
(dp12650
sS'2933'
p12651
(dp12652
sS'2930'
p12653
(dp12654
Vexpectations
p12655
(dp12656
Vfood
p12657
g8
sssS'2931'
p12658
(dp12659
Vfood
p12660
(dp12661
Vfood
p12662
g22
ssg87
(dp12663
g12662
g8
sVprice
p12664
g8
ssVgood
p12665
(dp12666
g12662
g8
sg12664
g8
ssVleft
p12667
(dp12668
g12662
g8
sg12664
g8
sVambiance
p12669
g8
sssS'3595'
p12670
(dp12671
sS'1645'
p12672
(dp12673
sS'1644'
p12674
(dp12675
sS'1647'
p12676
(dp12677
sS'1646'
p12678
(dp12679
sS'1641'
p12680
(dp12681
Vrolls
p12682
(dp12683
Vfood
p12684
g22
sssS'1640'
p12685
(dp12686
Vhungry
p12687
(dp12688
Vfood
p12689
g8
sssS'1643'
p12690
(dp12691
sS'1642'
p12692
(dp12693
sS'1649'
p12694
(dp12695
Vsushi
p12696
(dp12697
Vfood
p12698
g22
sssS'1648'
p12699
(dp12700
sS'1742'
p12701
(dp12702
Vblock
p12703
(dp12704
Vserve
p12705
g8
sssS'729'
p12706
(dp12707
Vprices
p12708
(dp12709
Vmonetary_value
p12710
g8
ssVatmosphere
p12711
(dp12712
Vatmosphere
p12713
g22
sg12710
g22
ssVgreatest
p12714
(dp12715
Vfood
p12716
g8
sg12713
g8
sg12710
g8
sssS'579'
p12717
(dp12718
Vopted
p12719
(dp12720
Vprice
p12721
g8
sssS'604'
p12722
(dp12723
Vselection
p12724
(dp12725
Vservice
p12726
g22
sssS'573'
p12727
(dp12728
Vgood
p12729
(dp12730
Vfood
p12731
g8
sVprice
p12732
g8
ssVwine
p12733
(dp12734
g12731
g8
sssS'572'
p12735
(dp12736
Vravioli
p12737
(dp12738
Vfood
p12739
g8
sssS'571'
p12740
(dp12741
Vtime
p12742
(dp12743
Vatmosphere
p12744
g38
sssS'570'
p12745
(dp12746
sS'576'
p12747
(dp12748
sS'575'
p12749
(dp12750
sS'574'
p12751
(dp12752
sS'2808'
p12753
(dp12754
VALL
p12755
(dp12756
Vfood
p12757
g22
sVservice
p12758
g22
ssVsigns
p12759
(dp12760
g12758
g22
sssS'2809'
p12761
(dp12762
sS'3168'
p12763
(dp12764
Vbagel
p12765
(dp12766
Vfood
p12767
g22
sVservice
p12768
g22
ssVcorner
p12769
(dp12770
g12768
g22
ssVway
p12771
(dp12772
g12767
g22
sVatmosphere
p12773
g22
sg12768
g22
sssS'3169'
p12774
(dp12775
Vplace
p12776
(dp12777
Vatmosphere
p12778
g22
sssS'2802'
p12779
(dp12780
Vdinner
p12781
(dp12782
Vfood
p12783
g22
sssS'2803'
p12784
(dp12785
sS'2800'
p12786
(dp12787
sS'2801'
p12788
(dp12789
Vdishes
p12790
(dp12791
Vservice
p12792
g8
sssS'2806'
p12793
(dp12794
sS'2807'
p12795
(dp12796
Vplace
p12797
(dp12798
Vatmosphere
p12799
g22
sssS'2804'
p12800
(dp12801
VSkewers
p12802
(dp12803
Vservice
p12804
g8
sssS'3161'
p12805
(dp12806
Vtaste
p12807
(dp12808
Vfood
p12809
g38
sVservice
p12810
g38
ssVgummy
p12811
(dp12812
g12809
g8
ssVchewy
p12813
(dp12814
g12809
g8
sssS'1421'
p12815
(dp12816
sS'2154'
p12817
(dp12818
sS'1997'
p12819
(dp12820
g87
(dp12821
Vfood
p12822
g8
ssVfelt
p12823
(dp12824
g12822
g8
sVservice
p12825
g8
sssS'1425'
p12826
(dp12827
sS'3369'
p12828
(dp12829
Vspot
p12830
(dp12831
Vservice
p12832
g38
ssVsurprising
p12833
(dp12834
Vprice
p12835
g8
sg12832
g8
sssS'1426'
p12836
(dp12837
g87
(dp12838
Vfood
p12839
g8
sVprice
p12840
g8
ssVis
p12841
(dp12842
g12840
g8
ssVwas
p12843
(dp12844
g12839
g8
sg12840
g8
sVambiance
p12845
g8
sssS'1429'
p12846
(dp12847
VSauce
p12848
(dp12849
Vfood
p12850
g8
sssS'1428'
p12851
(dp12852
g87
(dp12853
Vfood
p12854
g8
sVprice
p12855
g8
ssVwent
p12856
(dp12857
g12854
g8
sg12855
g8
ssVgood
p12858
(dp12859
g12854
g8
sg12855
g8
ssVit
p12860
(dp12861
g12854
g8
sssS'3366'
p12862
(dp12863
Vfood
p12864
(dp12865
Vfood
p12866
g22
ssVpastas
p12867
(dp12868
g12866
g22
sssS'3367'
p12869
(dp12870
Vvibe
p12871
(dp12872
Vprice
p12873
g38
sVservice
p12874
g38
ssVowner
p12875
(dp12876
g12873
g22
sVmilitary_service
p12877
g22
sg12874
g22
ssVis
p12878
(dp12879
g12873
g8
sg12877
g8
sg12874
g8
ssVfriendly
p12880
(dp12881
g12873
g8
sg12877
g8
sg12874
g8
ssVBest
p12882
(dp12883
g12874
g38
sssS'3360'
p12884
(dp12885
Vcreation
p12886
(dp12887
Vservice
p12888
g22
ssVchoices
p12889
(dp12890
g12888
g8
sssS'2404'
p12891
(dp12892
Vplace
p12893
(dp12894
Vatmosphere
p12895
g22
sssS'3362'
p12896
(dp12897
Vis
p12898
(dp12899
Vprice
p12900
g8
sVmilitary_service
p12901
g8
ssVfamily
p12902
(dp12903
g12901
g22
sssS'3363'
p12904
(dp12905
Vvisit
p12906
(dp12907
Vservice
p12908
g8
sssS'731'
p12909
(dp12910
Vit
p12911
(dp12912
Vfood
p12913
g8
ssVexperience
p12914
(dp12915
g12913
g22
sssS'730'
p12916
(dp12917
sS'733'
p12918
(dp12919
Vplace
p12920
(dp12921
Vatmosphere
p12922
g22
sssS'2157'
p12923
(dp12924
sS'737'
p12925
(dp12926
Vrestaurant
p12927
(dp12928
Vservice
p12929
g22
sssS'736'
p12930
(dp12931
Vstop
p12932
(dp12933
Vatmosphere
p12934
g22
sVservice
p12935
g22
ssVplace
p12936
(dp12937
g12934
g22
sssS'739'
p12938
(dp12939
Vwaiter
p12940
(dp12941
Vservice
p12942
g22
ssVfound
p12943
(dp12944
Vprice
p12945
g8
sg12942
g8
sssS'738'
p12946
(dp12947
Vfood
p12948
(dp12949
Vfood
p12950
g22
sssS'2151'
p12951
(dp12952
Vrate
p12953
(dp12954
Vprice
p12955
g8
sssS'1358'
p12956
(dp12957
Vprice
p12958
(dp12959
Vmonetary_value
p12960
g22
sssS'469'
p12961
(dp12962
Vate
p12963
(dp12964
Vfood
p12965
g8
sVservice
p12966
g8
ssVhusband
p12967
(dp12968
g12966
g22
sssS'468'
p12969
(dp12970
Vneed
p12971
(dp12972
Vatmosphere
p12973
g8
sVservice
p12974
g8
ssVsnobs
p12975
(dp12976
g12974
g8
ssVkind
p12977
(dp12978
Vfood
p12979
g22
sg12973
g22
sg12974
g22
sssS'1353'
p12980
(dp12981
sS'1352'
p12982
(dp12983
Vchef
p12984
(dp12985
Vservice
p12986
g22
sssS'467'
p12987
(dp12988
Vrestaurant
p12989
(dp12990
Vservice
p12991
g22
sssS'466'
p12992
(dp12993
Vincluded
p12994
(dp12995
Vfood
p12996
g8
sVprice
p12997
g8
ssVmix
p12998
(dp12999
g12996
g22
ssVsalads
p13000
(dp13001
g12996
g8
sg12997
g8
ssVsoggy
p13002
(dp13003
g12996
g8
sssS'461'
p13004
(dp13005
Vlets
p13006
(dp13007
Vfood
p13008
g8
sVserve
p13009
g8
ssVmeal
p13010
(dp13011
g13008
g22
sssS'1356'
p13012
(dp13013
sS'1355'
p13014
(dp13015
sS'608'
p13016
(dp13017
Vwas
p13018
(dp13019
Vfood
p13020
g8
sVprice
p13021
g8
sVambiance
p13022
g8
ssVit
p13023
(dp13024
g13020
g8
sg13021
g8
ssVwalked
p13025
(dp13026
g13021
g8
sssS'1273'
p13027
(dp13028
Vfact
p13029
(dp13030
Vfood
p13031
g22
sssS'937'
p13032
(dp13033
VPRICES
p13034
(dp13035
Vmonetary_value
p13036
g8
sssS'936'
p13037
(dp13038
sS'1519'
p13039
(dp13040
Vstaff
p13041
(dp13042
Vmilitary_service
p13043
g22
sssS'1518'
p13044
(dp13045
Vplace
p13046
(dp13047
Vatmosphere
p13048
g22
sssS'1514'
p13049
(dp13050
Vthings
p13051
(dp13052
Vfood
p13053
g22
ssVhome
p13054
(dp13055
g13053
g38
sVmilitary_service
p13056
g38
sssS'1517'
p13057
(dp13058
Vplace
p13059
(dp13060
Vatmosphere
p13061
g22
sssS'934'
p13062
(dp13063
Vmeat
p13064
(dp13065
Vfood
p13066
g22
sssS'1274'
p13067
(dp13068
VIt
p13069
(dp13070
Vfood
p13071
g8
sssS'1004'
p13072
(dp13073
VCity
p13074
(dp13075
Vserve
p13076
g8
sVambiance
p13077
g8
ssVtrip
p13078
(dp13079
g13076
g22
sssS'3184'
p13080
(dp13081
Vfood
p13082
(dp13083
Vfood
p13084
g22
sssS'3185'
p13085
(dp13086
Vmeal
p13087
(dp13088
Vfood
p13089
g22
ssVtime
p13090
(dp13091
g13089
g22
sVatmosphere
p13092
g22
sssS'3186'
p13093
(dp13094
Vstaff
p13095
(dp13096
Vmilitary_service
p13097
g22
sssS'3187'
p13098
(dp13099
sS'3180'
p13100
(dp13101
sS'3181'
p13102
(dp13103
sS'3182'
p13104
(dp13105
sS'3183'
p13106
(dp13107
sS'3188'
p13108
(dp13109
Vlunch
p13110
(dp13111
Vfood
p13112
g22
sssS'3189'
p13113
(dp13114
Vlocation
p13115
(dp13116
Vservice
p13117
g22
sssS'3397'
p13118
(dp13119
sS'355'
p13120
(dp13121
sS'353'
p13122
(dp13123
VMargarita
p13124
(dp13125
Vfood
p13126
g8
sssS'352'
p13127
(dp13128
sS'351'
p13129
(dp13130
Vroll
p13131
(dp13132
Vfood
p13133
g22
sssS'350'
p13134
(dp13135
sS'359'
p13136
(dp13137
sS'3107'
p13138
(dp13139
sS'3612'
p13140
(dp13141
Vhome
p13142
(dp13143
Vmilitary_service
p13144
g8
sssS'2298'
p13145
(dp13146
Vstaff
p13147
(dp13148
Vfood
p13149
g22
sVprice
p13150
g22
sVambiance
p13151
g22
sVmilitary_service
p13152
g22
ssVcrust
p13153
(dp13154
g13151
g22
ssVthin
p13155
(dp13156
g13150
g8
sg13151
g8
ssVingredients
p13157
(dp13158
g13149
g8
sg13150
g8
sg13151
g8
sssS'2323'
p13159
(dp13160
sS'2322'
p13161
(dp13162
sS'2321'
p13163
(dp13164
sS'2320'
p13165
(dp13166
Vslow
p13167
(dp13168
Vprice
p13169
g8
sVservice
p13170
g8
ssVService
p13171
(dp13172
g13170
g8
ssVpeople
p13173
(dp13174
g13169
g22
sVmilitary_service
p13175
g22
sg13170
g22
sssS'2325'
p13176
(dp13177
Vavailable
p13178
(dp13179
Vfood
p13180
g8
sVservice
p13181
g8
ssVdishes
p13182
(dp13183
g13181
g22
sssS'2324'
p13184
(dp13185
Vgo
p13186
(dp13187
Vservice
p13188
g8
sssS'2329'
p13189
(dp13190
Vowner
p13191
(dp13192
Vservice
p13193
g22
ssVcaters
p13194
(dp13195
Vprice
p13196
g8
sg13193
g8
sssS'2328'
p13197
(dp13198
Vfood
p13199
(dp13200
Vfood
p13201
g8
sssS'289'
p13202
(dp13203
sS'288'
p13204
(dp13205
sS'280'
p13206
(dp13207
sS'282'
p13208
(dp13209
sS'285'
p13210
(dp13211
Vgood
p13212
(dp13213
Vfood
p13214
g8
sVprice
p13215
g8
sVservice
p13216
g8
ssVportions
p13217
(dp13218
g13214
g8
sg13215
g8
sVatmosphere
p13219
g8
sg13216
g8
ssVservice
p13220
(dp13221
g13214
g8
sg13215
g8
sg13216
g8
ssVrestaurant
p13222
(dp13223
g13214
g38
sg13216
g38
ssVseems
p13224
(dp13225
g13214
g8
sg13215
g8
sg13216
g8
ssVsmall
p13226
(dp13227
g13214
g8
sg13215
g8
sg13219
g8
sg13216
g8
ssVsauces
p13228
(dp13229
g13214
g8
sssS'284'
p13230
(dp13231
sS'287'
p13232
(dp13233
Vdish
p13234
(dp13235
Vservice
p13236
g22
ssVtuna
p13237
(dp13238
Vfood
p13239
g22
sg13236
g22
sssS'1441'
p13240
(dp13241
Ventree
p13242
(dp13243
Vfood
p13244
g8
sssS'1440'
p13245
(dp13246
Vpepper
p13247
(dp13248
Vfood
p13249
g22
sssS'263'
p13250
(dp13251
Vrestaurant
p13252
(dp13253
Vservice
p13254
g22
sssS'262'
p13255
(dp13256
VIt
p13257
(dp13258
Vfood
p13259
g8
ssVrestaurant
p13260
(dp13261
g13259
g22
sVservice
p13262
g22
sssS'261'
p13263
(dp13264
sS'260'
p13265
(dp13266
Vdish
p13267
(dp13268
Vservice
p13269
g22
sssS'267'
p13270
(dp13271
Vbeers
p13272
(dp13273
Vfood
p13274
g38
sssS'266'
p13275
(dp13276
Vhelpful
p13277
(dp13278
Vfood
p13279
g8
sVmilitary_service
p13280
g8
ssVstaff
p13281
(dp13282
g13280
g22
sssS'1792'
p13283
(dp13284
Vfriends
p13285
(dp13286
Vservice
p13287
g8
sssS'264'
p13288
(dp13289
Vcombinations
p13290
(dp13291
Vmilitary_service
p13292
g22
sssS'269'
p13293
(dp13294
sS'268'
p13295
(dp13296
sS'1562'
p13297
(dp13298
Vplace
p13299
(dp13300
Vatmosphere
p13301
g22
ssVbargain
p13302
(dp13303
g13301
g22
sVprice
p13304
g22
sssS'2499'
p13305
(dp13306
sS'2498'
p13307
(dp13308
sS'2491'
p13309
(dp13310
Vimpressed
p13311
(dp13312
Vprice
p13313
g8
sssS'1296'
p13314
(dp13315
Vprices
p13316
(dp13317
Vmonetary_value
p13318
g22
sssS'2493'
p13319
(dp13320
sS'2492'
p13321
(dp13322
sS'2495'
p13323
(dp13324
Vfood
p13325
(dp13326
Vfood
p13327
g22
ssVpretension
p13328
(dp13329
g13327
g22
sVprice
p13330
g22
sssS'2494'
p13331
(dp13332
Vplace
p13333
(dp13334
Vatmosphere
p13335
g22
sssS'2497'
p13336
(dp13337
VThai
p13338
(dp13339
Vservice
p13340
g8
ssVexcellent
p13341
(dp13342
Vfood
p13343
g8
sg13340
g8
sssS'2496'
p13344
(dp13345
Vseat
p13346
(dp13347
Vambiance
p13348
g22
sssS'2193'
p13349
(dp13350
Vthai
p13351
(dp13352
Vservice
p13353
g22
ssVgreat
p13354
(dp13355
g13353
g8
sssS'1566'
p13356
(dp13357
sS'2259'
p13358
(dp13359
sS'2258'
p13360
(dp13361
sS'2257'
p13362
(dp13363
Vbuddies
p13364
(dp13365
Vservice
p13366
g38
sssS'2256'
p13367
(dp13368
sS'2254'
p13369
(dp13370
Vvibe
p13371
(dp13372
Vprice
p13373
g22
sVservice
p13374
g22
ssVseating
p13375
(dp13376
g13374
g22
sssS'2253'
p13377
(dp13378
Vcurry
p13379
(dp13380
Vfood
p13381
g22
sssS'2252'
p13382
(dp13383
Voblige
p13384
(dp13385
Vprice
p13386
g8
sssS'2251'
p13387
(dp13388
g87
(dp13389
Vfood
p13390
g8
ssVimpressed
p13391
(dp13392
g13390
g8
sVprice
p13393
g8
sssS'2250'
p13394
(dp13395
sS'2477'
p13396
(dp13397
sS'988'
p13398
(dp13399
Vfood
p13400
(dp13401
Vfood
p13402
g22
sssS'3224'
p13403
(dp13404
Vmenu
p13405
(dp13406
Vfood
p13407
g22
sssS'2473'
p13408
(dp13409
sS'2472'
p13410
(dp13411
Vfocus
p13412
(dp13413
Vprice
p13414
g22
sssS'2471'
p13415
(dp13416
sS'982'
p13417
(dp13418
Vcubes
p13419
(dp13420
Vservice
p13421
g22
ssVkicker
p13422
(dp13423
g13421
g22
sssS'983'
p13424
(dp13425
Vlunch
p13426
(dp13427
Vfood
p13428
g8
sssS'980'
p13429
(dp13430
sS'981'
p13431
(dp13432
sS'987'
p13433
(dp13434
Venjoyable
p13435
(dp13436
Vfood
p13437
g8
sssS'984'
p13438
(dp13439
sS'985'
p13440
(dp13441
Vattention
p13442
(dp13443
Vservice
p13444
g8
sssS'115'
p13445
(dp13446
sS'1790'
p13447
(dp13448
sS'116'
p13449
(dp13450
sS'110'
p13451
(dp13452
Vdoubt
p13453
(dp13454
Vatmosphere
p13455
g8
sssS'119'
p13456
(dp13457
Vroom
p13458
(dp13459
Vmilitary_service
p13460
g38
sssS'3432'
p13461
(dp13462
Vbill
p13463
(dp13464
Vservice
p13465
g22
sssS'2785'
p13466
(dp13467
Vwarm
p13468
(dp13469
Vprice
p13470
g8
sVmilitary_service
p13471
g8
ssVstaff
p13472
(dp13473
g13471
g22
sssS'2784'
p13474
(dp13475
Vpastas
p13476
(dp13477
Vfood
p13478
g8
ssVlasagna
p13479
(dp13480
g13478
g22
sssS'2787'
p13481
(dp13482
Vappetizer
p13483
(dp13484
Vfood
p13485
g22
sssS'2786'
p13486
(dp13487
Vdate
p13488
(dp13489
Vfood
p13490
g8
sVservice
p13491
g8
ssVlunch
p13492
(dp13493
g13490
g8
ssVclients
p13494
(dp13495
g13490
g22
sg13491
g22
sssS'2781'
p13496
(dp13497
sS'2780'
p13498
(dp13499
sS'2783'
p13500
(dp13501
sS'2782'
p13502
(dp13503
sS'2789'
p13504
(dp13505
Vsurprised
p13506
(dp13507
Vprice
p13508
g8
sVservice
p13509
g8
ssVarrived
p13510
(dp13511
g13508
g8
sg13509
g8
ssVspoke
p13512
(dp13513
g13509
g8
ssVfriend
p13514
(dp13515
g13508
g22
sg13509
g22
sssS'2788'
p13516
(dp13517
sS'2079'
p13518
(dp13519
Vfood
p13520
(dp13521
Vfood
p13522
g22
ssVplace
p13523
(dp13524
g13522
g22
sVatmosphere
p13525
g22
sssS'2078'
p13526
(dp13527
g87
(dp13528
Vfood
p13529
g8
ssVwent
p13530
(dp13531
g13529
g8
sVprice
p13532
g8
sssS'2072'
p13533
(dp13534
sS'2071'
p13535
(dp13536
Vbass
p13537
(dp13538
Vprice
p13539
g22
sssS'2070'
p13540
(dp13541
Vfood
p13542
(dp13543
Vfood
p13544
g8
ssVexcellent
p13545
(dp13546
g13544
g8
sssS'2077'
p13547
(dp13548
sS'2076'
p13549
(dp13550
Vworld
p13551
(dp13552
Vfood
p13553
g22
ssVappetizer
p13554
(dp13555
g13553
g22
sssS'2075'
p13556
(dp13557
g1256
(dp13558
Vfood
p13559
g8
sssS'3226'
p13560
(dp13561
Vnights
p13562
(dp13563
Vfood
p13564
g8
sssS'1388'
p13565
(dp13566
Vsecret
p13567
(dp13568
Vatmosphere
p13569
g22
ssVplace
p13570
(dp13571
g13569
g22
sssS'1796'
p13572
(dp13573
Vguys
p13574
(dp13575
Vservice
p13576
g8
sssS'3508'
p13577
(dp13578
Vlist
p13579
(dp13580
Vprice
p13581
g22
ssVpriced
p13582
(dp13583
g13581
g8
sssS'3504'
p13584
(dp13585
sS'3505'
p13586
(dp13587
sS'3506'
p13588
(dp13589
g87
(dp13590
Vfood
p13591
g8
sVoverhaul
p13592
g8
ssVcuisine
p13593
(dp13594
g13592
g22
ssVthought
p13595
(dp13596
g13591
g8
sg13592
g8
sssS'3507'
p13597
(dp13598
Vatmosphere
p13599
(dp13600
Vatmosphere
p13601
g8
sssS'2671'
p13602
(dp13603
sS'2670'
p13604
(dp13605
sS'2673'
p13606
(dp13607
sS'2672'
p13608
(dp13609
sS'2675'
p13610
(dp13611
sS'2674'
p13612
(dp13613
sS'2677'
p13614
(dp13615
sS'2676'
p13616
(dp13617
Vset
p13618
(dp13619
Vservice
p13620
g8
sssS'2929'
p13621
(dp13622
sS'2928'
p13623
(dp13624
Vnothing
p13625
(dp13626
Vfood
p13627
g8
sVatmosphere
p13628
g8
ssVProblem
p13629
(dp13630
g13628
g8
sssS'2921'
p13631
(dp13632
Vfood
p13633
(dp13634
Vfood
p13635
g22
sssS'2920'
p13636
(dp13637
sS'2923'
p13638
(dp13639
Vboot
p13640
(dp13641
Vservice
p13642
g8
sssS'2922'
p13643
(dp13644
sS'2925'
p13645
(dp13646
Vmenu
p13647
(dp13648
Vfood
p13649
g22
ssVentrees
p13650
(dp13651
g13649
g22
sVservice
p13652
g22
ssVlimited
p13653
(dp13654
g13649
g8
sg13652
g8
sssS'2924'
p13655
(dp13656
Vfood
p13657
(dp13658
Vfood
p13659
g22
ssVpepper
p13660
(dp13661
g13659
g8
ssVgreat
p13662
(dp13663
g13659
g8
sVservice
p13664
g8
sssS'2927'
p13665
(dp13666
Vdecor
p13667
(dp13668
Vservice
p13669
g22
sssS'2564'
p13670
(dp13671
sS'708'
p13672
(dp13673
sS'2906'
p13674
(dp13675
Vworks
p13676
(dp13677
Vservice
p13678
g8
sssS'1630'
p13679
(dp13680
Vexcellent
p13681
(dp13682
Vfood
p13683
g8
sssS'1987'
p13684
(dp13685
sS'1632'
p13686
(dp13687
Vquibbles
p13688
(dp13689
Vprice
p13690
g22
sssS'3217'
p13691
(dp13692
sS'1634'
p13693
(dp13694
Vfood
p13695
(dp13696
Vfood
p13697
g22
sssS'3211'
p13698
(dp13699
sS'1980'
p13700
(dp13701
sS'1981'
p13702
(dp13703
Vfeel
p13704
(dp13705
Vatmosphere
p13706
g8
sssS'1638'
p13707
(dp13708
Vprices
p13709
(dp13710
Vmonetary_value
p13711
g8
ssVreasonable
p13712
(dp13713
Vfood
p13714
g8
sg13711
g8
sssS'1639'
p13715
(dp13716
Vlist
p13717
(dp13718
Vprice
p13719
g22
sssS'2904'
p13720
(dp13721
Vchicken
p13722
(dp13723
Vfood
p13724
g8
sssS'3218'
p13725
(dp13726
sS'3219'
p13727
(dp13728
sS'1988'
p13729
(dp13730
sS'1989'
p13731
(dp13732
sS'706'
p13733
(dp13734
sS'568'
p13735
(dp13736
Vtried
p13737
(dp13738
Vfood
p13739
g8
sVprice
p13740
g8
ssVhe
p13741
(dp13742
g13739
g8
sssS'569'
p13743
(dp13744
sS'2817'
p13745
(dp13746
Vbar
p13747
(dp13748
Vservice
p13749
g22
sssS'2811'
p13750
(dp13751
sS'2810'
p13752
(dp13753
sS'2812'
p13754
(dp13755
Vis
p13756
(dp13757
Vprice
p13758
g8
sVservicing
p13759
g8
ssVTyphoon
p13760
(dp13761
g13759
g8
sssS'560'
p13762
(dp13763
Vmenu
p13764
(dp13765
Vfood
p13766
g22
ssVdiverse
p13767
(dp13768
g13766
g8
sssS'561'
p13769
(dp13770
sS'562'
p13771
(dp13772
Vtable
p13773
(dp13774
Vfood
p13775
g22
sssS'563'
p13776
(dp13777
sS'2819'
p13778
(dp13779
Vget
p13780
(dp13781
Vserve
p13782
g8
sssS'565'
p13783
(dp13784
sS'566'
p13785
(dp13786
Vice
p13787
(dp13788
Vfood
p13789
g22
sssS'567'
p13790
(dp13791
VFood
p13792
(dp13793
Vfood
p13794
g8
ssVaverage
p13795
(dp13796
g13794
g8
sssS'3178'
p13797
(dp13798
sS'3171'
p13799
(dp13800
sS'3170'
p13801
(dp13802
sS'3173'
p13803
(dp13804
sS'3172'
p13805
(dp13806
Vit
p13807
(dp13808
Vfood
p13809
g8
ssVexperience
p13810
(dp13811
g13809
g22
ssVtoasted
p13812
(dp13813
g13809
g8
sVprice
p13814
g8
sssS'3175'
p13815
(dp13816
VMurray
p13817
(dp13818
Vservice
p13819
g8
sssS'3174'
p13820
(dp13821
Vdirectory
p13822
(dp13823
Vprice
p13824
g22
sssS'3177'
p13825
(dp13826
Vate
p13827
(dp13828
Vfood
p13829
g8
sssS'3176'
p13830
(dp13831
sS'659'
p13832
(dp13833
sS'1188'
p13834
(dp13835
Vfood
p13836
(dp13837
Vfood
p13838
g22
ssVok
p13839
(dp13840
g13838
g8
sVprice
p13841
g8
sVservice
p13842
g8
ssVservice
p13843
(dp13844
g13838
g8
sg13842
g8
sssS'1189'
p13845
(dp13846
VIt
p13847
(dp13848
Vfood
p13849
g8
ssVworth
p13850
(dp13851
g13849
g8
sVprice
p13852
g8
sssS'3377'
p13853
(dp13854
Vwine
p13855
(dp13856
Vfood
p13857
g22
sssS'3376'
p13858
(dp13859
sS'1184'
p13860
(dp13861
VIt
p13862
(dp13863
Vfood
p13864
g8
ssVdeal
p13865
(dp13866
g13864
g22
sVservice
p13867
g22
sssS'3374'
p13868
(dp13869
Vplace
p13870
(dp13871
Vatmosphere
p13872
g22
sssS'3373'
p13873
(dp13874
sS'3372'
p13875
(dp13876
sS'1180'
p13877
(dp13878
sS'3370'
p13879
(dp13880
Vproprietor
p13881
(dp13882
Vservice
p13883
g22
ssVpizza
p13884
(dp13885
Vfood
p13886
g22
sg13883
g22
ssVone
p13887
(dp13888
g13886
g8
sg13883
g8
sssS'726'
p13889
(dp13890
sS'727'
p13891
(dp13892
VThailand
p13893
(dp13894
Vambiance
p13895
g8
sssS'1748'
p13896
(dp13897
sS'1749'
p13898
(dp13899
sS'720'
p13900
(dp13901
Vplace
p13902
(dp13903
Vatmosphere
p13904
g22
sssS'721'
p13905
(dp13906
Vit
p13907
(dp13908
Vfood
p13909
g8
ssVlooks
p13910
(dp13911
g13909
g8
sVatmosphere
p13912
g8
sssS'1745'
p13913
(dp13914
Vcold
p13915
(dp13916
Vfood
p13917
g8
sVprice
p13918
g8
sVatmosphere
p13919
g8
ssVit
p13920
(dp13921
g13917
g8
sg13918
g8
ssVthin
p13922
(dp13923
g13917
g8
sg13918
g8
sssS'1746'
p13924
(dp13925
Vlot
p13926
(dp13927
Vambiance
p13928
g8
sssS'1747'
p13929
(dp13930
Vunappreciative
p13931
(dp13932
Vfood
p13933
g8
sVmilitary_service
p13934
g8
ssVstaff
p13935
(dp13936
g13934
g8
sssS'1740'
p13937
(dp13938
sS'1741'
p13939
(dp13940
sS'728'
p13941
(dp13942
g87
(dp13943
Vfood
p13944
g8
ssVeat
p13945
(dp13946
g13944
g8
sVprice
p13947
g8
sssS'1486'
p13948
(dp13949
sS'1164'
p13950
(dp13951
sS'1165'
p13952
(dp13953
Vit
p13954
(dp13955
Vfood
p13956
g8
ssVworth
p13957
(dp13958
g13956
g8
sVprice
p13959
g8
sssS'1166'
p13960
(dp13961
sS'1167'
p13962
(dp13963
sS'1160'
p13964
(dp13965
sS'1161'
p13966
(dp13967
sS'1162'
p13968
(dp13969
Vstrict
p13970
(dp13971
Vfood
p13972
g8
sVmilitary_service
p13973
g8
ssVcombination
p13974
(dp13975
g13973
g22
sssS'1163'
p13976
(dp13977
Vservice
p13978
(dp13979
Vservice
p13980
g8
sssS'1623'
p13981
(dp13982
Vlist
p13983
(dp13984
Vprice
p13985
g22
sssS'1168'
p13986
(dp13987
sS'1169'
p13988
(dp13989
Vbills
p13990
(dp13991
Vservice
p13992
g22
sssS'3092'
p13993
(dp13994
Vsalmon
p13995
(dp13996
Vfood
p13997
g22
sssS'1489'
p13998
(dp13999
sS'1366'
p14000
(dp14001
Vdrinks
p14002
(dp14003
Vfood
p14004
g8
sssS'2913'
p14005
(dp14006
Vgem
p14007
(dp14008
Vfood
p14009
g22
sssS'1488'
p14010
(dp14011
Vmoist
p14012
(dp14013
Vfood
p14014
g8
ssVfavorite
p14015
(dp14016
g14014
g8
sVservice
p14017
g8
ssVit
p14018
(dp14019
g14014
g8
ssVsicilian
p14020
(dp14021
g14014
g8
sg14017
g8
ssVpizza
p14022
(dp14023
g14014
g38
sg14017
g38
sssS'1367'
p14024
(dp14025
sS'46'
p14026
(dp14027
Vfood
p14028
(dp14029
Vfood
p14030
g22
ssVaverage
p14031
(dp14032
g14030
g38
sssS'47'
p14033
(dp14034
Vplace
p14035
(dp14036
Vatmosphere
p14037
g22
ssVworth
p14038
(dp14039
g14037
g8
sVprice
p14040
g8
sssS'44'
p14041
(dp14042
Vplace
p14043
(dp14044
Vatmosphere
p14045
g22
sssS'45'
p14046
(dp14047
Vservice
p14048
(dp14049
Vservice
p14050
g8
ssVoutstanding
p14051
(dp14052
Vfood
p14053
g8
sg14050
g8
sssS'42'
p14054
(dp14055
VHEARTLAND
p14056
(dp14057
Vambiance
p14058
g8
sssS'43'
p14059
(dp14060
Vtourists
p14061
(dp14062
Vservice
p14063
g22
ssVCenter
p14064
(dp14065
Vfood
p14066
g8
sg14063
g8
sssS'40'
p14067
(dp14068
Vraw
p14069
(dp14070
Vfood
p14071
g8
sVatmosphere
p14072
g8
ssVsalmon
p14073
(dp14074
g14071
g22
sssS'41'
p14075
(dp14076
sS'1568'
p14077
(dp14078
sS'1569'
p14079
(dp14080
Vmake
p14081
(dp14082
Vfood
p14083
g8
sVservice
p14084
g8
ssVcharacters
p14085
(dp14086
g14084
g8
sssS'1298'
p14087
(dp14088
sS'1299'
p14089
(dp14090
sS'1587'
p14091
(dp14092
VDIFFERENT
p14093
(dp14094
Vfood
p14095
g8
sssS'1560'
p14096
(dp14097
sS'1293'
p14098
(dp14099
Vhorrific
p14100
(dp14101
Vfood
p14102
g8
sssS'1290'
p14103
(dp14104
sS'1563'
p14105
(dp14106
sS'1564'
p14107
(dp14108
Vfriendly
p14109
(dp14110
Vmilitary_service
p14111
g8
ssVPeople
p14112
(dp14113
g14111
g8
sssS'1565'
p14114
(dp14115
Vdecor
p14116
(dp14117
Vservice
p14118
g8
sssS'1294'
p14119
(dp14120
sS'1567'
p14121
(dp14122
Vplace
p14123
(dp14124
Vatmosphere
p14125
g22
sssS'1713'
p14126
(dp14127
Vgood
p14128
(dp14129
Vfood
p14130
g8
sVprice
p14131
g8
ssVOther
p14132
(dp14133
g14130
g8
sssS'474'
p14134
(dp14135
sS'796'
p14136
(dp14137
Vfood
p14138
(dp14139
Vfood
p14140
g22
ssVOK
p14141
(dp14142
g14140
g8
sVprice
p14143
g8
sssS'591'
p14144
(dp14145
sS'475'
p14146
(dp14147
Vdeli
p14148
(dp14149
Vservice
p14150
g22
ssVexperience
p14151
(dp14152
Vfood
p14153
g22
sg14150
g22
sssS'795'
p14154
(dp14155
sS'1789'
p14156
(dp14157
Vstop
p14158
(dp14159
Vservice
p14160
g8
sssS'1716'
p14161
(dp14162
VStrike
p14163
(dp14164
Vservice
p14165
g8
sssS'1715'
p14166
(dp14167
sS'590'
p14168
(dp14169
sS'732'
p14170
(dp14171
Vburger
p14172
(dp14173
Vfood
p14174
g22
ssVgreat
p14175
(dp14176
g14174
g8
sVservice
p14177
g8
sssS'1714'
p14178
(dp14179
sS'472'
p14180
(dp14181
sS'473'
p14182
(dp14183
sS'3195'
p14184
(dp14185
sS'3194'
p14186
(dp14187
g87
(dp14188
Vfood
p14189
g8
ssVperson
p14190
(dp14191
g14189
g22
sVservice
p14192
g22
ssVit
p14193
(dp14194
g14189
g8
sg14192
g8
ssVcomes
p14195
(dp14196
g14189
g8
sg14192
g8
sssS'476'
p14197
(dp14198
sS'3192'
p14199
(dp14200
Vquantity
p14201
(dp14202
Vfood
p14203
g22
sssS'3191'
p14204
(dp14205
Vvegetables
p14206
(dp14207
Vfood
p14208
g8
sssS'3190'
p14209
(dp14210
Vvegetarian
p14211
(dp14212
Vservice
p14213
g22
sssS'479'
p14214
(dp14215
Vworld
p14216
(dp14217
Vfood
p14218
g22
sssS'2916'
p14219
(dp14220
sS'3199'
p14221
(dp14222
Vpeople
p14223
(dp14224
Vmilitary_service
p14225
g8
sssS'3198'
p14226
(dp14227
Vfish
p14228
(dp14229
Vfood
p14230
g22
sss.